TN:
SF:/home/travis/build/platisd/smartcar_shield/src/car/Car.hpp
FN:6,_ZN3CarC2Ev
FN:9,_ZN3CarD0Ev
FN:9,_ZN3CarD2Ev
FNDA:0,_ZN3CarD0Ev
FNDA:190,_ZN3CarC2Ev
FNDA:190,_ZN3CarD2Ev
FNF:3
FNH:2
DA:6,190
DA:9,190
LF:2
LH:2
end_of_record
TN:
SF:/home/travis/build/platisd/smartcar_shield/src/car/distance/DistanceCar.cpp
FN:17,_ZN11DistanceCarC1ER7ControlR8OdometerR7Runtime
FN:17,_ZN11DistanceCarC2ER7ControlR8OdometerR7Runtime
FN:36,_ZN11DistanceCarC2ER7ControlR8OdometerS3_R7Runtime
FN:36,_ZN11DistanceCarC1ER7ControlR8OdometerS3_R7Runtime
FN:58,_ZN11DistanceCar11getDistanceEv
FN:64,_ZN11DistanceCar8setSpeedEf
FN:107,_ZN11DistanceCar5brakeEv
FN:134,_ZN11DistanceCar6updateEv
FN:184,_ZN11DistanceCar17controlMotorSpeedERKfS1_S1_
FN:199,_ZN11DistanceCar8getSpeedEv
FN:205,_ZN11DistanceCar20disableCruiseControlEv
FN:210,_ZN11DistanceCar19enableCruiseControlEfffm
FN:222,_ZN11DistanceCar20areOdometersAttachedEv
FN:227,_ZN11DistanceCar23areOdometersDirectionalEv
FN:232,_ZN11DistanceCar18overrideMotorSpeedEii
FNDA:215,_ZN11DistanceCar8getSpeedEv
FNDA:5,_ZN11DistanceCarC2ER7ControlR8OdometerS3_R7Runtime
FNDA:10,_ZN11DistanceCar5brakeEv
FNDA:75,_ZN11DistanceCar8setSpeedEf
FNDA:25,_ZN11DistanceCar18overrideMotorSpeedEii
FNDA:225,_ZN11DistanceCar6updateEv
FNDA:5,_ZN11DistanceCarC1ER7ControlR8OdometerR7Runtime
FNDA:200,_ZN11DistanceCar17controlMotorSpeedERKfS1_S1_
FNDA:555,_ZN11DistanceCar20areOdometersAttachedEv
FNDA:5,_ZN11DistanceCar20disableCruiseControlEv
FNDA:60,_ZN11DistanceCar19enableCruiseControlEfffm
FNDA:125,_ZN11DistanceCarC1ER7ControlR8OdometerS3_R7Runtime
FNDA:5,_ZN11DistanceCarC2ER7ControlR8OdometerR7Runtime
FNDA:40,_ZN11DistanceCar11getDistanceEv
FNDA:675,_ZN11DistanceCar23areOdometersDirectionalEv
FNF:15
FNH:15
DA:17,10
DA:32,10
DA:34,10
DA:36,130
DA:54,130
DA:56,130
DA:58,40
DA:60,75
DA:61,75
DA:64,75
DA:66,75
DA:68,5
DA:69,5
DA:71,140
DA:72,70
DA:75,70
DA:77,15
DA:78,15
DA:84,55
DA:85,55
DA:88,55
DA:89,55
DA:90,55
DA:91,55
DA:93,10
DA:94,10
DA:95,10
DA:100,45
DA:102,15
DA:104,45
DA:107,10
DA:111,10
DA:112,10
DA:117,10
DA:119,10
DA:120,10
DA:121,10
DA:122,10
DA:124,10
DA:127,10
DA:129,10
DA:130,10
DA:131,10
DA:132,10
DA:134,225
DA:136,225
DA:138,40
DA:141,210
DA:142,210
DA:144,5
DA:146,205
DA:150,205
DA:152,5
DA:154,200
DA:160,200
DA:162,50
DA:164,200
DA:168,200
DA:176,50
DA:179,200
DA:181,200
DA:184,200
DA:188,200
DA:189,200
DA:190,200
DA:191,200
DA:192,200
DA:194,400
DA:196,400
DA:199,215
DA:201,425
DA:202,425
DA:205,5
DA:207,5
DA:208,5
DA:210,60
DA:215,60
DA:216,60
DA:217,60
DA:218,60
DA:219,60
DA:220,60
DA:222,555
DA:224,555
DA:227,675
DA:229,675
DA:232,25
DA:234,25
DA:236,15
DA:239,10
LF:90
LH:90
end_of_record
TN:
SF:/home/travis/build/platisd/smartcar_shield/src/car/distance/DistanceCar.hpp
FN:30,_ZN11DistanceCarD2Ev
FN:30,_ZN11DistanceCarD0Ev
FN:30,_ZN11DistanceCarD1Ev
FNDA:0,_ZN11DistanceCarD0Ev
FNDA:130,_ZN11DistanceCarD1Ev
FNDA:10,_ZN11DistanceCarD2Ev
FNF:3
FNH:2
DA:30,140
LF:1
LH:1
end_of_record
TN:
SF:/home/travis/build/platisd/smartcar_shield/src/car/heading/HeadingCar.cpp
FN:3,_ZN10HeadingCarC2ER7ControlR13HeadingSensor
FN:3,_ZN10HeadingCarC1ER7ControlR13HeadingSensor
FN:9,_ZN10HeadingCar10getHeadingEv
FN:14,_ZN10HeadingCar6updateEv
FNDA:10,_ZN10HeadingCar6updateEv
FNDA:10,_ZN10HeadingCarC1ER7ControlR13HeadingSensor
FNDA:5,_ZN10HeadingCar10getHeadingEv
FNDA:10,_ZN10HeadingCarC2ER7ControlR13HeadingSensor
FNF:4
FNH:4
DA:3,20
DA:5,20
DA:7,20
DA:9,5
DA:11,5
DA:14,10
DA:16,10
DA:17,10
LF:8
LH:8
end_of_record
TN:
SF:/home/travis/build/platisd/smartcar_shield/src/car/heading/HeadingCar.hpp
FN:9,_ZN10HeadingCarD1Ev
FN:9,_ZN10HeadingCarD2Ev
FN:9,_ZN10HeadingCarD0Ev
FNDA:10,_ZN10HeadingCarD2Ev
FNDA:0,_ZN10HeadingCarD0Ev
FNDA:10,_ZN10HeadingCarD1Ev
FNF:3
FNH:2
DA:9,20
LF:1
LH:1
end_of_record
TN:
SF:/home/travis/build/platisd/smartcar_shield/src/car/simple/SimpleCar.cpp
FN:7,_ZN9SimpleCarC2ER7Control
FN:12,_ZN9SimpleCar8setSpeedEf
FN:17,_ZN9SimpleCar8setAngleEi
FN:22,_ZN9SimpleCar18overrideMotorSpeedEii
FNDA:20,_ZN9SimpleCar18overrideMotorSpeedEii
FNDA:15,_ZN9SimpleCar8setAngleEi
FNDA:255,_ZN9SimpleCar8setSpeedEf
FNDA:190,_ZN9SimpleCarC2ER7Control
FNF:4
FNH:4
DA:7,190
DA:8,190
DA:10,190
DA:12,255
DA:14,255
DA:15,255
DA:17,15
DA:19,15
DA:20,15
DA:22,20
DA:24,40
DA:25,40
DA:26,20
LF:13
LH:13
end_of_record
TN:
SF:/home/travis/build/platisd/smartcar_shield/src/car/simple/SimpleCar.hpp
FN:18,_ZN9SimpleCarD2Ev
FN:18,_ZN9SimpleCarD0Ev
FNDA:0,_ZN9SimpleCarD0Ev
FNDA:190,_ZN9SimpleCarD2Ev
FNF:2
FNH:1
DA:18,190
LF:1
LH:1
end_of_record
TN:
SF:/home/travis/build/platisd/smartcar_shield/src/car/smart/SmartCar.cpp
FN:3,_ZN8SmartCarC1ER7ControlR13HeadingSensorR8OdometerR7Runtime
FN:3,_ZN8SmartCarC2ER7ControlR13HeadingSensorR8OdometerR7Runtime
FN:13,_ZN8SmartCarC1ER7ControlR13HeadingSensorR8OdometerS5_R7Runtime
FN:13,_ZN8SmartCarC2ER7ControlR13HeadingSensorR8OdometerS5_R7Runtime
FN:24,_ZN8SmartCar6updateEv
FNDA:5,_ZN8SmartCarC1ER7ControlR13HeadingSensorR8OdometerR7Runtime
FNDA:5,_ZN8SmartCarC1ER7ControlR13HeadingSensorR8OdometerS5_R7Runtime
FNDA:5,_ZN8SmartCar6updateEv
FNDA:0,_ZN8SmartCarC2ER7ControlR13HeadingSensorR8OdometerS5_R7Runtime
FNDA:0,_ZN8SmartCarC2ER7ControlR13HeadingSensorR8OdometerR7Runtime
FNF:5
FNH:3
DA:3,5
DA:9,5
DA:11,5
DA:13,5
DA:20,5
DA:22,5
DA:24,5
DA:26,5
DA:27,5
DA:28,5
LF:10
LH:10
end_of_record
TN:
SF:/home/travis/build/platisd/smartcar_shield/src/car/smart/SmartCar.hpp
FN:15,_ZN8SmartCarD1Ev
FN:15,_ZN8SmartCarD0Ev
FNDA:0,_ZN8SmartCarD0Ev
FNDA:10,_ZN8SmartCarD1Ev
FNF:2
FNH:1
DA:15,10
LF:1
LH:1
end_of_record
TN:
SF:/home/travis/build/platisd/smartcar_shield/src/control/Control.hpp
FN:22,_ZN7ControlC2Ev
FN:25,_ZN7ControlD2Ev
FN:25,_ZN7ControlD0Ev
FNDA:295,_ZN7ControlC2Ev
FNDA:295,_ZN7ControlD2Ev
FNDA:0,_ZN7ControlD0Ev
FNF:3
FNH:2
DA:22,295
DA:25,295
LF:2
LH:2
end_of_record
TN:
SF:/home/travis/build/platisd/smartcar_shield/src/control/ackerman/AckermanControl.cpp
FN:9,_ZN15AckermanControlC2ER5MotorS1_
FN:15,_ZN15AckermanControl8setAngleEi
FN:25,_ZN15AckermanControl8setSpeedEi
FN:31,_ZN15AckermanControl18overrideMotorSpeedEii
FNDA:20,_ZN15AckermanControl8setSpeedEi
FNDA:50,_ZN15AckermanControlC2ER5MotorS1_
FNDA:10,_ZN15AckermanControl18overrideMotorSpeedEii
FNDA:20,_ZN15AckermanControl8setAngleEi
FNF:4
FNH:4
DA:9,50
DA:11,50
DA:13,50
DA:15,20
DA:17,40
DA:21,20
DA:22,20
DA:23,20
DA:25,20
DA:27,20
DA:28,20
DA:29,20
DA:31,10
DA:33,10
DA:34,10
DA:36,10
DA:37,10
DA:38,10
LF:18
LH:18
end_of_record
TN:
SF:/home/travis/build/platisd/smartcar_shield/src/control/ackerman/AckermanControl.hpp
FN:10,_ZN15AckermanControlD0Ev
FN:10,_ZN15AckermanControlD2Ev
FNDA:0,_ZN15AckermanControlD0Ev
FNDA:50,_ZN15AckermanControlD2Ev
FNF:2
FNH:1
DA:10,50
LF:1
LH:1
end_of_record
TN:
SF:/home/travis/build/platisd/smartcar_shield/src/control/differential/DifferentialControl.cpp
FN:9,_ZN19DifferentialControlC2ER5MotorS1_
FN:17,_ZN19DifferentialControl8setAngleEi
FN:23,_ZN19DifferentialControl8setSpeedEi
FN:29,_ZN19DifferentialControl9setMotorsEv
FN:48,_ZN19DifferentialControl18overrideMotorSpeedEii
FNDA:45,_ZN19DifferentialControl8setSpeedEi
FNDA:75,_ZN19DifferentialControl9setMotorsEv
FNDA:30,_ZN19DifferentialControl8setAngleEi
FNDA:10,_ZN19DifferentialControl18overrideMotorSpeedEii
FNDA:60,_ZN19DifferentialControlC2ER5MotorS1_
FNF:5
FNH:5
DA:9,60
DA:13,60
DA:15,60
DA:17,30
DA:19,30
DA:20,30
DA:21,30
DA:23,45
DA:25,45
DA:26,45
DA:27,45
DA:29,75
DA:32,75
DA:34,75
DA:37,5
DA:38,5
DA:43,70
DA:44,70
DA:46,75
DA:48,10
DA:50,10
DA:51,10
DA:53,10
DA:54,10
DA:55,10
LF:25
LH:25
end_of_record
TN:
SF:/home/travis/build/platisd/smartcar_shield/src/control/differential/DifferentialControl.hpp
FN:10,_ZN19DifferentialControlD2Ev
FN:10,_ZN19DifferentialControlD0Ev
FNDA:0,_ZN19DifferentialControlD0Ev
FNDA:60,_ZN19DifferentialControlD2Ev
FNF:2
FNH:1
DA:10,60
LF:1
LH:1
end_of_record
TN:
SF:/home/travis/build/platisd/smartcar_shield/src/motor/Motor.hpp
FN:21,_ZN5MotorC2Ev
FN:24,_ZN5MotorD2Ev
FN:24,_ZN5MotorD0Ev
FNDA:285,_ZN5MotorD2Ev
FNDA:0,_ZN5MotorD0Ev
FNDA:285,_ZN5MotorC2Ev
FNF:3
FNH:2
DA:21,285
DA:24,285
LF:2
LH:2
end_of_record
TN:
SF:/home/travis/build/platisd/smartcar_shield/src/motor/analog/pwm/BrushedMotor.cpp
FN:16,_ZN12BrushedMotorC2EhhhR7Runtime
FN:28,_ZN12BrushedMotor8setSpeedEi
FN:55,_ZN12BrushedMotor6attachEv
FNDA:35,_ZN12BrushedMotor8setSpeedEi
FNDA:35,_ZN12BrushedMotorC2EhhhR7Runtime
FNDA:35,_ZN12BrushedMotor6attachEv
FNF:3
FNH:3
DA:16,35
DA:24,35
DA:26,35
DA:28,35
DA:30,35
DA:32,35
DA:35,35
DA:38,15
DA:39,15
DA:44,20
DA:45,20
DA:49,35
DA:51,70
DA:52,70
DA:53,35
DA:55,35
DA:57,35
DA:58,35
DA:59,35
DA:60,35
DA:61,35
LF:21
LH:21
end_of_record
TN:
SF:/home/travis/build/platisd/smartcar_shield/src/motor/analog/pwm/BrushedMotor.hpp
FN:21,_ZN12BrushedMotorD0Ev
FN:21,_ZN12BrushedMotorD2Ev
FNDA:0,_ZN12BrushedMotorD0Ev
FNDA:35,_ZN12BrushedMotorD2Ev
FNF:2
FNH:1
DA:21,35
LF:1
LH:1
end_of_record
TN:
SF:/home/travis/build/platisd/smartcar_shield/src/motor/digital/servo/ServoMotor.cpp
FN:7,_ZN10ServoMotorC2EhiiiR7Runtime
FN:21,_ZN10ServoMotor8setSpeedEi
FN:43,_Z41__static_initialization_and_destruction_0ii
FN:43,_GLOBAL__sub_I__ZN10ServoMotorC2EhiiiR7Runtime
FNDA:1,_Z41__static_initialization_and_destruction_0ii
FNDA:30,_ZN10ServoMotor8setSpeedEi
FNDA:1,_GLOBAL__sub_I__ZN10ServoMotorC2EhiiiR7Runtime
FNDA:30,_ZN10ServoMotorC2EhiiiR7Runtime
FNF:4
FNH:4
DA:7,30
DA:17,30
DA:19,30
DA:21,30
DA:23,30
DA:25,30
DA:26,30
DA:29,30
DA:33,30
DA:35,10
DA:36,10
DA:40,20
DA:41,20
DA:43,33
LF:14
LH:14
end_of_record
TN:
SF:/home/travis/build/platisd/smartcar_shield/src/motor/digital/servo/ServoMotor.hpp
FN:35,_ZN10ServoMotorD2Ev
FN:35,_ZN10ServoMotorD0Ev
FNDA:30,_ZN10ServoMotorD2Ev
FNDA:0,_ZN10ServoMotorD0Ev
FNF:2
FNH:1
DA:35,30
LF:1
LH:1
end_of_record
TN:
SF:/home/travis/build/platisd/smartcar_shield/src/runtime/Runtime.hpp
FN:13,_ZN7RuntimeC2Ev
FN:16,_ZN7RuntimeD2Ev
FN:16,_ZN7RuntimeD0Ev
FNDA:575,_ZN7RuntimeC2Ev
FNDA:0,_ZN7RuntimeD0Ev
FNDA:575,_ZN7RuntimeD2Ev
FNF:3
FNH:2
DA:13,575
DA:16,575
LF:2
LH:2
end_of_record
TN:
SF:/home/travis/build/platisd/smartcar_shield/src/sensors/distance/DistanceSensor.hpp
FN:8,_ZN14DistanceSensorC2Ev
FN:11,_ZN14DistanceSensorD0Ev
FN:11,_ZN14DistanceSensorD2Ev
FNDA:0,_ZN14DistanceSensorD0Ev
FNDA:165,_ZN14DistanceSensorD2Ev
FNDA:165,_ZN14DistanceSensorC2Ev
FNF:3
FNH:2
DA:8,165
DA:11,165
LF:2
LH:2
end_of_record
TN:
SF:/home/travis/build/platisd/smartcar_shield/src/sensors/distance/infrared/analog/InfraredAnalogSensor.cpp
FN:11,_ZN20InfraredAnalogSensorC2ER7Runtime
FN:16,_ZN20InfraredAnalogSensor17getMedianDistanceEh
FNDA:10,_ZN20InfraredAnalogSensor17getMedianDistanceEh
FNDA:55,_ZN20InfraredAnalogSensorC2ER7Runtime
FNF:2
FNH:2
DA:11,55
DA:12,55
DA:14,55
DA:16,10
DA:18,10
DA:20,5
DA:23,5
DA:24,35
DA:26,30
DA:27,30
DA:30,15
LF:11
LH:11
end_of_record
TN:
SF:/home/travis/build/platisd/smartcar_shield/src/sensors/distance/infrared/analog/InfraredAnalogSensor.hpp
FN:24,_ZN20InfraredAnalogSensorD2Ev
FN:24,_ZN20InfraredAnalogSensorD0Ev
FNDA:0,_ZN20InfraredAnalogSensorD0Ev
FNDA:55,_ZN20InfraredAnalogSensorD2Ev
FNF:2
FNH:1
DA:24,55
LF:1
LH:1
end_of_record
TN:
SF:/home/travis/build/platisd/smartcar_shield/src/sensors/distance/infrared/analog/sharp/GP2D120.cpp
FN:9,_ZN7GP2D120C2EhR7Runtime
FN:16,_ZN7GP2D12011getDistanceEv
FNDA:15,_ZN7GP2D12011getDistanceEv
FNDA:15,_ZN7GP2D120C2EhR7Runtime
FNF:2
FNH:2
DA:9,15
DA:12,15
DA:14,15
DA:16,15
DA:18,15
DA:19,15
DA:21,15
LF:7
LH:7
end_of_record
TN:
SF:/home/travis/build/platisd/smartcar_shield/src/sensors/distance/infrared/analog/sharp/GP2D120.hpp
FN:14,_ZN7GP2D120D0Ev
FN:14,_ZN7GP2D120D2Ev
FNDA:0,_ZN7GP2D120D0Ev
FNDA:15,_ZN7GP2D120D2Ev
FNF:2
FNH:1
DA:14,15
LF:1
LH:1
end_of_record
TN:
SF:/home/travis/build/platisd/smartcar_shield/src/sensors/distance/infrared/analog/sharp/GP2Y0A02.cpp
FN:9,_ZN8GP2Y0A02C2EhR7Runtime
FN:16,_ZN8GP2Y0A0211getDistanceEv
FNDA:15,_ZN8GP2Y0A0211getDistanceEv
FNDA:15,_ZN8GP2Y0A02C2EhR7Runtime
FNF:2
FNH:2
DA:9,15
DA:12,15
DA:14,15
DA:16,15
DA:18,15
DA:19,15
DA:21,15
LF:7
LH:7
end_of_record
TN:
SF:/home/travis/build/platisd/smartcar_shield/src/sensors/distance/infrared/analog/sharp/GP2Y0A02.hpp
FN:14,_ZN8GP2Y0A02D2Ev
FN:14,_ZN8GP2Y0A02D0Ev
FNDA:15,_ZN8GP2Y0A02D2Ev
FNDA:0,_ZN8GP2Y0A02D0Ev
FNF:2
FNH:1
DA:14,15
LF:1
LH:1
end_of_record
TN:
SF:/home/travis/build/platisd/smartcar_shield/src/sensors/distance/infrared/analog/sharp/GP2Y0A21.cpp
FN:9,_ZN8GP2Y0A21C2EhR7Runtime
FN:16,_ZN8GP2Y0A2111getDistanceEv
FNDA:15,_ZN8GP2Y0A2111getDistanceEv
FNDA:15,_ZN8GP2Y0A21C2EhR7Runtime
FNF:2
FNH:2
DA:9,15
DA:12,15
DA:14,15
DA:16,15
DA:18,15
DA:20,15
DA:22,15
LF:7
LH:7
end_of_record
TN:
SF:/home/travis/build/platisd/smartcar_shield/src/sensors/distance/infrared/analog/sharp/GP2Y0A21.hpp
FN:14,_ZN8GP2Y0A21D0Ev
FN:14,_ZN8GP2Y0A21D2Ev
FNDA:0,_ZN8GP2Y0A21D0Ev
FNDA:15,_ZN8GP2Y0A21D2Ev
FNF:2
FNH:1
DA:14,15
LF:1
LH:1
end_of_record
TN:
SF:/home/travis/build/platisd/smartcar_shield/src/sensors/distance/ultrasound/i2c/SRF08.cpp
FN:17,_ZN5SRF08C2EhR7Runtime
FN:25,_ZN5SRF086attachEv
FN:34,_ZN5SRF0811getDistanceEv
FN:61,_ZN5SRF0817getMedianDistanceEh
FN:78,_ZN5SRF087setGainEh
FN:92,_ZN5SRF088setRangeEh
FN:105,_ZN5SRF0812setPingDelayEm
FN:111,_ZN5SRF0815getLightReadingEv
FN:135,_ZN5SRF0813changeAddressEh
FNDA:15,_ZN5SRF088setRangeEh
FNDA:5,_ZN5SRF0812setPingDelayEm
FNDA:75,_ZN5SRF08C2EhR7Runtime
FNDA:70,_ZN5SRF0811getDistanceEv
FNDA:15,_ZN5SRF087setGainEh
FNDA:20,_ZN5SRF0815getLightReadingEv
FNDA:15,_ZN5SRF0813changeAddressEh
FNDA:135,_ZN5SRF086attachEv
FNDA:10,_ZN5SRF0817getMedianDistanceEh
FNF:9
FNH:9
DA:17,75
DA:21,75
DA:23,75
DA:25,135
DA:27,135
DA:29,65
DA:30,65
DA:32,135
DA:34,70
DA:36,70
DA:41,70
DA:42,70
DA:43,70
DA:44,70
DA:45,70
DA:46,70
DA:47,70
DA:48,70
DA:50,70
DA:51,70
DA:53,15
DA:55,55
DA:56,55
DA:58,55
DA:61,10
DA:63,10
DA:65,5
DA:68,5
DA:69,55
DA:71,50
DA:72,50
DA:75,15
DA:78,15
DA:80,15
DA:86,15
DA:87,15
DA:88,15
DA:89,15
DA:90,15
DA:92,15
DA:94,15
DA:98,15
DA:99,15
DA:101,15
DA:102,15
DA:103,15
DA:105,5
DA:107,5
DA:108,5
DA:111,20
DA:113,20
DA:119,20
DA:120,20
DA:121,20
DA:122,20
DA:123,20
DA:126,20
DA:127,20
DA:128,20
DA:129,20
DA:130,20
DA:132,20
DA:135,15
DA:137,15
DA:143,15
DA:145,15
DA:146,15
DA:147,15
DA:148,15
DA:150,15
DA:151,15
DA:152,15
DA:153,15
DA:155,15
DA:156,15
DA:157,15
DA:158,15
DA:160,15
DA:161,15
DA:162,15
DA:163,15
DA:165,15
DA:167,15
LF:83
LH:83
end_of_record
TN:
SF:/home/travis/build/platisd/smartcar_shield/src/sensors/distance/ultrasound/i2c/SRF08.hpp
FN:30,_ZN5SRF08D2Ev
FN:30,_ZN5SRF08D0Ev
FNDA:0,_ZN5SRF08D0Ev
FNDA:75,_ZN5SRF08D2Ev
FNF:2
FNH:1
DA:30,75
LF:1
LH:1
end_of_record
TN:
SF:/home/travis/build/platisd/smartcar_shield/src/sensors/distance/ultrasound/ping/SR04.cpp
FN:19,_ZN4SR04C2EhhjR7Runtime
FN:29,_ZN4SR046attachEv
FN:39,_ZN4SR0411getDistanceEv
FN:57,_ZN4SR0417getMedianDistanceEh
FNDA:10,_ZN4SR0417getMedianDistanceEh
FNDA:80,_ZN4SR046attachEv
FNDA:80,_ZN4SR0411getDistanceEv
FNDA:35,_ZN4SR04C2EhhjR7Runtime
FNF:4
FNH:4
DA:19,35
DA:22,35
DA:23,35
DA:25,105
DA:27,35
DA:29,80
DA:31,80
DA:33,30
DA:34,30
DA:35,30
DA:37,80
DA:39,80
DA:41,80
DA:44,80
DA:45,80
DA:46,80
DA:47,80
DA:48,80
DA:50,80
DA:52,80
DA:54,80
DA:57,10
DA:59,10
DA:61,5
DA:64,5
DA:65,55
DA:67,50
DA:68,50
DA:71,15
LF:29
LH:29
end_of_record
TN:
SF:/home/travis/build/platisd/smartcar_shield/src/sensors/distance/ultrasound/ping/SR04.hpp
FN:33,_ZN4SR04D0Ev
FN:33,_ZN4SR04D2Ev
FNDA:35,_ZN4SR04D2Ev
FNDA:0,_ZN4SR04D0Ev
FNF:2
FNH:1
DA:33,35
LF:1
LH:1
end_of_record
TN:
SF:/home/travis/build/platisd/smartcar_shield/src/sensors/heading/HeadingSensor.hpp
FN:7,_ZN13HeadingSensorC2Ev
FN:10,_ZN13HeadingSensorD2Ev
FN:10,_ZN13HeadingSensorD0Ev
FNDA:85,_ZN13HeadingSensorC2Ev
FNDA:85,_ZN13HeadingSensorD2Ev
FNDA:0,_ZN13HeadingSensorD0Ev
FNF:3
FNH:2
DA:7,85
DA:10,85
LF:2
LH:2
end_of_record
TN:
SF:/home/travis/build/platisd/smartcar_shield/src/sensors/heading/gyroscope/GY50.cpp
FN:18,_ZN4GY50C2EimR7Runtime
FN:28,_ZN4GY5010getHeadingEv
FN:35,_ZN4GY506updateEv
FN:56,_ZN4GY506attachEv
FN:86,_ZN4GY509getOffsetEj
FN:104,_ZN4GY5018getAngularVelocityEv
FN:117,_ZN4GY5020readL3G4200DRegisterEh
FN:127,_ZN4GY5021writeL3G4200DRegisterEhh
FNDA:60,_ZN4GY509getOffsetEj
FNDA:275,_ZN4GY5021writeL3G4200DRegisterEhh
FNDA:65,_ZN4GY50C2EimR7Runtime
FNDA:1595,_ZN4GY5018getAngularVelocityEv
FNDA:1060,_ZN4GY506updateEv
FNDA:1595,_ZN4GY506attachEv
FNDA:3190,_ZN4GY5020readL3G4200DRegisterEh
FNDA:35,_ZN4GY5010getHeadingEv
FNF:8
FNH:8
DA:18,65
DA:24,65
DA:26,65
DA:28,35
DA:31,35
DA:32,35
DA:35,1060
DA:37,1060
DA:38,1060
DA:39,1060
DA:41,15
DA:46,1045
DA:48,1045
DA:50,25
DA:51,25
DA:53,1045
DA:56,1595
DA:58,1595
DA:60,1540
DA:69,55
DA:71,55
DA:73,55
DA:77,55
DA:79,55
DA:81,55
DA:83,55
DA:86,60
DA:88,60
DA:90,5
DA:94,55
DA:95,605
DA:97,550
DA:98,550
DA:101,55
DA:104,1595
DA:106,1595
DA:111,1595
DA:112,1595
DA:114,1595
DA:117,3190
DA:119,3190
DA:120,3190
DA:121,3190
DA:122,3190
DA:124,3190
DA:127,275
DA:129,275
DA:130,275
DA:131,275
DA:132,275
DA:133,275
LF:51
LH:51
end_of_record
TN:
SF:/home/travis/build/platisd/smartcar_shield/src/sensors/heading/gyroscope/GY50.hpp
FN:26,_ZN4GY50D2Ev
FN:26,_ZN4GY50D0Ev
FNDA:0,_ZN4GY50D0Ev
FNDA:65,_ZN4GY50D2Ev
FNF:2
FNH:1
DA:26,65
LF:1
LH:1
end_of_record
TN:
SF:/home/travis/build/platisd/smartcar_shield/src/sensors/odometer/Odometer.hpp
FN:22,_ZN8OdometerC2Ev
FNDA:405,_ZN8OdometerC2Ev
FNF:1
FNH:1
DA:22,405
LF:1
LH:1
end_of_record
TN:
SF:/home/travis/build/platisd/smartcar_shield/src/sensors/odometer/interrupt/DirectionalOdometer.cpp
FN:10,_ZN19DirectionalOdometerC2EhhmR7Runtime
FN:22,_ZN19DirectionalOdometer6attachEhPFvvE
FN:33,_ZN19DirectionalOdometer5resetEv
FN:39,_ZN19DirectionalOdometer6updateEv
FN:53,_ZN19DirectionalOdometer11getDistanceEv
FN:65,_ZN19DirectionalOdometer8getSpeedEv
FN:75,_ZN19DirectionalOdometer12getDirectionEv
FN:82,_ZN19DirectionalOdometer17providesDirectionEv
FNDA:5,_ZN19DirectionalOdometer17providesDirectionEv
FNDA:25,_ZN19DirectionalOdometer11getDistanceEv
FNDA:35,_ZN19DirectionalOdometer6attachEhPFvvE
FNDA:15,_ZN19DirectionalOdometer8getSpeedEv
FNDA:9025,_ZN19DirectionalOdometer6updateEv
FNDA:20,_ZN19DirectionalOdometer12getDirectionEv
FNDA:5,_ZN19DirectionalOdometer5resetEv
FNDA:65,_ZN19DirectionalOdometerC2EhhmR7Runtime
FNF:8
FNH:8
DA:10,65
DA:18,65
DA:20,65
DA:22,35
DA:24,35
DA:25,35
DA:27,30
DA:30,35
DA:33,5
DA:35,5
DA:36,5
DA:37,5
DA:39,9025
DA:41,9025
DA:43,5
DA:46,9020
DA:47,9020
DA:49,6020
DA:53,25
DA:55,25
DA:57,5
DA:62,20
DA:65,15
DA:67,15
DA:69,5
DA:72,10
DA:75,20
DA:77,20
DA:79,20
DA:82,5
DA:84,5
LF:31
LH:31
end_of_record
TN:
SF:/home/travis/build/platisd/smartcar_shield/src/sensors/odometer/interrupt/DirectionalOdometer.hpp
FN:10,_ZN19DirectionalOdometerD2Ev
FN:10,_ZN19DirectionalOdometerD0Ev
FNDA:0,_ZN19DirectionalOdometerD0Ev
FNDA:65,_ZN19DirectionalOdometerD2Ev
FNF:2
FNH:1
DA:10,65
LF:1
LH:1
end_of_record
TN:
SF:/home/travis/build/platisd/smartcar_shield/src/sensors/odometer/interrupt/DirectionlessOdometer.cpp
FN:17,_ZN21DirectionlessOdometerC2EmR7Runtime
FN:34,_ZN21DirectionlessOdometer6attachEhPFvvE
FN:50,_ZN21DirectionlessOdometer11getDistanceEv
FN:59,_ZN21DirectionlessOdometer8getSpeedEv
FN:70,_ZN21DirectionlessOdometer10isAttachedEv
FN:75,_ZN21DirectionlessOdometer5resetEv
FN:82,_ZN21DirectionlessOdometer6updateEv
FN:107,_ZN21DirectionlessOdometer17providesDirectionEv
FNDA:105,_ZN21DirectionlessOdometer6attachEhPFvvE
FNDA:18750,_ZN21DirectionlessOdometer10isAttachedEv
FNDA:55,_ZN21DirectionlessOdometer11getDistanceEv
FNDA:50,_ZN21DirectionlessOdometer8getSpeedEv
FNDA:9570,_ZN21DirectionlessOdometer6updateEv
FNDA:5,_ZN21DirectionlessOdometer17providesDirectionEv
FNDA:145,_ZN21DirectionlessOdometerC2EmR7Runtime
FNDA:10,_ZN21DirectionlessOdometer5resetEv
FNF:8
FNH:8
DA:17,145
DA:18,140
DA:22,140
DA:24,5
DA:30,430
DA:32,145
DA:34,105
DA:36,105
DA:37,105
DA:39,30
DA:41,75
DA:42,75
DA:43,75
DA:45,75
DA:47,75
DA:50,55
DA:52,55
DA:54,5
DA:56,50
DA:59,50
DA:61,50
DA:63,5
DA:67,45
DA:70,18750
DA:72,18750
DA:75,10
DA:77,10
DA:78,10
DA:79,10
DA:80,10
DA:82,9570
DA:84,9570
DA:86,5
DA:89,9565
DA:90,9565
DA:93,9565
DA:95,5
DA:99,9560
DA:101,9505
DA:103,9560
DA:104,9560
DA:107,5
DA:109,5
LF:43
LH:43
end_of_record
TN:
SF:/home/travis/build/platisd/smartcar_shield/src/sensors/odometer/interrupt/DirectionlessOdometer.hpp
FN:32,_ZN21DirectionlessOdometerD0Ev
FN:32,_ZN21DirectionlessOdometerD2Ev
FNDA:145,_ZN21DirectionlessOdometerD2Ev
FNDA:0,_ZN21DirectionlessOdometerD0Ev
FNF:2
FNH:1
DA:32,145
LF:1
LH:1
end_of_record
TN:
SF:/home/travis/build/platisd/smartcar_shield/src/utilities/Utilities.hpp
FN:11,_ZN11smartcarlib5utils11getAbsoluteIiEET_RKS2_
FN:11,_ZN11smartcarlib5utils11getAbsoluteIfEET_RKS2_
FN:18,_ZN11smartcarlib5utils12getConstrainIiEET_RKS2_S4_S4_
FN:18,_ZN11smartcarlib5utils12getConstrainIhEET_RKS2_S4_S4_
FN:18,_ZN11smartcarlib5utils12getConstrainIfEET_RKS2_S4_S4_
FN:30,_ZN11smartcarlib5utils9getMedianIjEET_PS2_RKj
FN:60,_ZN11smartcarlib5utils6getMapIiEET_RKS2_S4_S4_S4_S4_
FN:60,_ZN11smartcarlib5utils6getMapIfEET_RKS2_S4_S4_S4_S4_
FN:77,_ZN11smartcarlib5utils14areAlmostEqualEff
FNDA:95,_ZN11smartcarlib5utils6getMapIiEET_RKS2_S4_S4_S4_S4_
FNDA:1160,_ZN11smartcarlib5utils11getAbsoluteIiEET_RKS2_
FNDA:125,_ZN11smartcarlib5utils14areAlmostEqualEff
FNDA:545,_ZN11smartcarlib5utils12getConstrainIiEET_RKS2_S4_S4_
FNDA:5,_ZN11smartcarlib5utils6getMapIfEET_RKS2_S4_S4_S4_S4_
FNDA:30,_ZN11smartcarlib5utils9getMedianIjEET_PS2_RKj
FNDA:270,_ZN11smartcarlib5utils12getConstrainIfEET_RKS2_S4_S4_
FNDA:30,_ZN11smartcarlib5utils12getConstrainIhEET_RKS2_S4_S4_
FNDA:380,_ZN11smartcarlib5utils11getAbsoluteIfEET_RKS2_
FNF:9
FNH:9
DA:11,1540
DA:13,1540
DA:18,845
DA:20,845
DA:30,30
DA:33,205
DA:35,850
DA:37,675
DA:39,50
DA:40,50
DA:41,50
DA:46,30
DA:60,100
DA:68,100
DA:77,125
DA:79,125
LF:16
LH:16
end_of_record
TN:
SF:/home/travis/build/platisd/smartcar_shield/test/build/googletest-src/googlemock/include/gmock/gmock-actions.h
FN:146,_ZN7testing8internal19BuiltInDefaultValueIbE3GetEv
FN:146,_ZN7testing8internal19BuiltInDefaultValueIbE6ExistsEv
FN:147,_ZN7testing8internal19BuiltInDefaultValueIhE6ExistsEv
FN:147,_ZN7testing8internal19BuiltInDefaultValueIhE3GetEv
FN:148,_ZN7testing8internal19BuiltInDefaultValueIaE3GetEv
FN:148,_ZN7testing8internal19BuiltInDefaultValueIaE6ExistsEv
FN:163,_ZN7testing8internal19BuiltInDefaultValueIjE6ExistsEv
FN:163,_ZN7testing8internal19BuiltInDefaultValueIjE3GetEv
FN:164,_ZN7testing8internal19BuiltInDefaultValueIiE3GetEv
FN:164,_ZN7testing8internal19BuiltInDefaultValueIiE6ExistsEv
FN:165,_ZN7testing8internal19BuiltInDefaultValueImE6ExistsEv
FN:165,_ZN7testing8internal19BuiltInDefaultValueImE3GetEv
FN:166,_ZN7testing8internal19BuiltInDefaultValueIlE3GetEv
FN:166,_ZN7testing8internal19BuiltInDefaultValueIlE6ExistsEv
FN:169,_ZN7testing8internal19BuiltInDefaultValueIfE3GetEv
FN:169,_ZN7testing8internal19BuiltInDefaultValueIfE6ExistsEv
FN:215,_ZN7testing12DefaultValueIbE5IsSetEv
FN:215,_ZN7testing12DefaultValueIhE5IsSetEv
FN:215,_ZN7testing12DefaultValueIjE5IsSetEv
FN:215,_ZN7testing12DefaultValueIlE5IsSetEv
FN:215,_ZN7testing12DefaultValueIfE5IsSetEv
FN:215,_ZN7testing12DefaultValueIaE5IsSetEv
FN:215,_ZN7testing12DefaultValueIiE5IsSetEv
FN:215,_ZN7testing12DefaultValueImE5IsSetEv
FN:219,_ZN7testing12DefaultValueIiE6ExistsEv
FN:219,_ZN7testing12DefaultValueImE6ExistsEv
FN:219,_ZN7testing12DefaultValueIfE6ExistsEv
FN:219,_ZN7testing12DefaultValueIlE6ExistsEv
FN:219,_ZN7testing12DefaultValueIbE6ExistsEv
FN:219,_ZN7testing12DefaultValueIhE6ExistsEv
FN:219,_ZN7testing12DefaultValueIjE6ExistsEv
FN:219,_ZN7testing12DefaultValueIaE6ExistsEv
FN:226,_ZN7testing12DefaultValueIhE3GetEv
FN:226,_ZN7testing12DefaultValueIaE3GetEv
FN:226,_ZN7testing12DefaultValueIlE3GetEv
FN:226,_ZN7testing12DefaultValueIjE3GetEv
FN:226,_ZN7testing12DefaultValueIiE3GetEv
FN:226,_ZN7testing12DefaultValueIbE3GetEv
FN:226,_ZN7testing12DefaultValueImE3GetEv
FN:226,_ZN7testing12DefaultValueIfE3GetEv
FN:301,_ZN7testing12DefaultValueIvE6ExistsEv
FN:302,_ZN7testing12DefaultValueIvE3GetEv
FN:320,_ZN7testing15ActionInterfaceIFvhPFvvEiEEC2Ev
FN:320,_ZN7testing15ActionInterfaceIFbvEEC2Ev
FN:320,_ZN7testing15ActionInterfaceIFfvEEC2Ev
FN:320,_ZN7testing15ActionInterfaceIFmvEEC2Ev
FN:320,_ZN7testing15ActionInterfaceIFivEEC2Ev
FN:320,_ZN7testing15ActionInterfaceIFahEEC2Ev
FN:320,_ZN7testing15ActionInterfaceIFjvEEC2Ev
FN:320,_ZN7testing15ActionInterfaceIFviEEC2Ev
FN:320,_ZN7testing15ActionInterfaceIFmhhmEEC2Ev
FN:320,_ZN7testing15ActionInterfaceIFihEEC2Ev
FN:320,_ZN7testing15ActionInterfaceIFlvEEC2Ev
FN:321,_ZN7testing15ActionInterfaceIFjvEED0Ev
FN:321,_ZN7testing15ActionInterfaceIFbvEED2Ev
FN:321,_ZN7testing15ActionInterfaceIFbvEED0Ev
FN:321,_ZN7testing15ActionInterfaceIFmhhmEED0Ev
FN:321,_ZN7testing15ActionInterfaceIFmhhmEED2Ev
FN:321,_ZN7testing15ActionInterfaceIFivEED0Ev
FN:321,_ZN7testing15ActionInterfaceIFahEED2Ev
FN:321,_ZN7testing15ActionInterfaceIFahEED0Ev
FN:321,_ZN7testing15ActionInterfaceIFviEED2Ev
FN:321,_ZN7testing15ActionInterfaceIFmvEED0Ev
FN:321,_ZN7testing15ActionInterfaceIFfvEED0Ev
FN:321,_ZN7testing15ActionInterfaceIFjvEED2Ev
FN:321,_ZN7testing15ActionInterfaceIFihEED0Ev
FN:321,_ZN7testing15ActionInterfaceIFviEED0Ev
FN:321,_ZN7testing15ActionInterfaceIFihEED2Ev
FN:321,_ZN7testing15ActionInterfaceIFvhPFvvEiEED0Ev
FN:321,_ZN7testing15ActionInterfaceIFmvEED2Ev
FN:321,_ZN7testing15ActionInterfaceIFvhPFvvEiEED2Ev
FN:321,_ZN7testing15ActionInterfaceIFlvEED2Ev
FN:321,_ZN7testing15ActionInterfaceIFivEED2Ev
FN:321,_ZN7testing15ActionInterfaceIFfvEED2Ev
FN:321,_ZN7testing15ActionInterfaceIFlvEED0Ev
FN:341,_ZN7testing6ActionIFvhEEC2ERKS2_
FN:341,_ZN7testing6ActionIFlvEEC2ERKS2_
FN:341,_ZN7testing6ActionIFvjEED2Ev
FN:341,_ZN7testing6ActionIFfvEEaSERKS2_
FN:341,_ZN7testing6ActionIFvmEEC2ERKS2_
FN:341,_ZN7testing6ActionIFhvEEC2ERKS2_
FN:341,_ZN7testing6ActionIFfvEEC2ERKS2_
FN:341,_ZN7testing6ActionIFvhiEED2Ev
FN:341,_ZN7testing6ActionIFbvEED2Ev
FN:341,_ZN7testing6ActionIFviEED2Ev
FN:341,_ZN7testing6ActionIFlvEED2Ev
FN:341,_ZN7testing6ActionIFbvEEaSERKS2_
FN:341,_ZN7testing6ActionIFihEEC2ERKS2_
FN:341,_ZN7testing6ActionIFmhEED2Ev
FN:341,_ZN7testing6ActionIFahEEC2ERKS2_
FN:341,_ZN7testing6ActionIFmvEEaSERKS2_
FN:341,_ZN7testing6ActionIFfvEED2Ev
FN:341,_ZN7testing6ActionIFihEEaSERKS2_
FN:341,_ZN7testing6ActionIFvvEEC2ERKS2_
FN:341,_ZN7testing6ActionIFmvEEC2ERKS2_
FN:341,_ZN7testing6ActionIFmhhmEED2Ev
FN:341,_ZN7testing6ActionIFhhhEEC2ERKS2_
FN:341,_ZN7testing6ActionIFihEED2Ev
FN:341,_ZN7testing6ActionIFvhiiEED2Ev
FN:341,_ZN7testing6ActionIFvhPFvvEiEEC2ERKS4_
FN:341,_ZN7testing6ActionIFmvEED2Ev
FN:341,_ZN7testing6ActionIFvvEED2Ev
FN:341,_ZN7testing6ActionIFvhiEEC2ERKS2_
FN:341,_ZN7testing6ActionIFhvEED2Ev
FN:341,_ZN7testing6ActionIFivEEaSERKS2_
FN:341,_ZN7testing6ActionIFhhhEED2Ev
FN:341,_ZN7testing6ActionIFjvEEC2ERKS2_
FN:341,_ZN7testing6ActionIFvhhEEC2ERKS2_
FN:341,_ZN7testing6ActionIFivEED2Ev
FN:341,_ZN7testing6ActionIFlvEEaSERKS2_
FN:341,_ZN7testing6ActionIFvhhEED2Ev
FN:341,_ZN7testing6ActionIFvhiiEEC2ERKS2_
FN:341,_ZN7testing6ActionIFviEEC2ERKS2_
FN:341,_ZN7testing6ActionIFbvEEC2ERKS2_
FN:341,_ZN7testing6ActionIFivEEC2ERKS2_
FN:341,_ZN7testing6ActionIFahEED2Ev
FN:341,_ZN7testing6ActionIFviiEEC2ERKS2_
FN:341,_ZN7testing6ActionIFmhEEC2ERKS2_
FN:341,_ZN7testing6ActionIFvmEED2Ev
FN:341,_ZN7testing6ActionIFahEEaSERKS2_
FN:341,_ZN7testing6ActionIFvhPFvvEiEED2Ev
FN:341,_ZN7testing6ActionIFviiEED2Ev
FN:341,_ZN7testing6ActionIFvjEEC2ERKS2_
FN:341,_ZN7testing6ActionIFjvEED2Ev
FN:341,_ZN7testing6ActionIFvhEED2Ev
FN:341,_ZN7testing6ActionIFmhhmEEC2ERKS2_
FN:344,_ZN7testing6ActionIFvhPFvvEiEE13ActionAdapterC2ERKS5_
FN:344,_ZN7testing6ActionIFmvEE13ActionAdapterC2ERKS3_
FN:344,_ZN7testing6ActionIFjvEE13ActionAdapterC2ERKS3_
FN:344,_ZN7testing6ActionIFbvEE13ActionAdapterC2ERKS3_
FN:344,_ZN7testing6ActionIFmhhmEE13ActionAdapterD2Ev
FN:344,_ZN7testing6ActionIFahEE13ActionAdapterC2EOS3_
FN:344,_ZN7testing6ActionIFihEE13ActionAdapterD2Ev
FN:344,_ZN7testing6ActionIFviEE13ActionAdapterC2EOS3_
FN:344,_ZN7testing6ActionIFivEE13ActionAdapterD2Ev
FN:344,_ZN7testing6ActionIFjvEE13ActionAdapterC2EOS3_
FN:344,_ZN7testing6ActionIFivEE13ActionAdapterC2EOS3_
FN:344,_ZN7testing6ActionIFbvEE13ActionAdapterC2EOS3_
FN:344,_ZN7testing6ActionIFmvEE13ActionAdapterC2EOS3_
FN:344,_ZN7testing6ActionIFmvEE13ActionAdapterD2Ev
FN:344,_ZN7testing6ActionIFbvEE13ActionAdapterD2Ev
FN:344,_ZN7testing6ActionIFfvEE13ActionAdapterD2Ev
FN:344,_ZN7testing6ActionIFmhhmEE13ActionAdapterC2ERKS3_
FN:344,_ZN7testing6ActionIFahEE13ActionAdapterC2ERKS3_
FN:344,_ZN7testing6ActionIFlvEE13ActionAdapterD2Ev
FN:344,_ZN7testing6ActionIFviEE13ActionAdapterD2Ev
FN:344,_ZN7testing6ActionIFlvEE13ActionAdapterC2EOS3_
FN:344,_ZN7testing6ActionIFvhPFvvEiEE13ActionAdapterD2Ev
FN:344,_ZN7testing6ActionIFahEE13ActionAdapterD2Ev
FN:344,_ZN7testing6ActionIFivEE13ActionAdapterC2ERKS3_
FN:344,_ZN7testing6ActionIFihEE13ActionAdapterC2ERKS3_
FN:344,_ZN7testing6ActionIFfvEE13ActionAdapterC2ERKS3_
FN:344,_ZN7testing6ActionIFlvEE13ActionAdapterC2ERKS3_
FN:344,_ZN7testing6ActionIFjvEE13ActionAdapterD2Ev
FN:344,_ZN7testing6ActionIFmhhmEE13ActionAdapterC2EOS3_
FN:344,_ZN7testing6ActionIFviEE13ActionAdapterC2ERKS3_
FN:344,_ZN7testing6ActionIFihEE13ActionAdapterC2EOS3_
FN:344,_ZN7testing6ActionIFfvEE13ActionAdapterC2EOS3_
FN:344,_ZN7testing6ActionIFvhPFvvEiEE13ActionAdapterC2EOS5_
FN:349,_ZN7testing6ActionIFviEE13ActionAdapterclIJiEEEvDpOT_
FN:349,_ZN7testing6ActionIFmhhmEE13ActionAdapterclIJhhmEEEmDpOT_
FN:349,_ZN7testing6ActionIFahEE13ActionAdapterclIJhEEEaDpOT_
FN:349,_ZN7testing6ActionIFmvEE13ActionAdapterclIJEEEmDpOT_
FN:349,_ZN7testing6ActionIFivEE13ActionAdapterclIJEEEiDpOT_
FN:349,_ZN7testing6ActionIFbvEE13ActionAdapterclIJEEEbDpOT_
FN:349,_ZN7testing6ActionIFlvEE13ActionAdapterclIJEEElDpOT_
FN:349,_ZN7testing6ActionIFihEE13ActionAdapterclIJhEEEiDpOT_
FN:349,_ZN7testing6ActionIFjvEE13ActionAdapterclIJEEEjDpOT_
FN:349,_ZN7testing6ActionIFvhPFvvEiEE13ActionAdapterclIJhS2_iEEEvDpOT_
FN:349,_ZN7testing6ActionIFfvEE13ActionAdapterclIJEEEfDpOT_
FN:361,_ZN7testing6ActionIFviEEC2Ev
FN:361,_ZN7testing6ActionIFbvEEC2Ev
FN:361,_ZN7testing6ActionIFviiEEC2Ev
FN:361,_ZN7testing6ActionIFvhEEC2Ev
FN:361,_ZN7testing6ActionIFvmEEC2Ev
FN:361,_ZN7testing6ActionIFfvEEC2Ev
FN:361,_ZN7testing6ActionIFvhiiEEC2Ev
FN:361,_ZN7testing6ActionIFhvEEC2Ev
FN:361,_ZN7testing6ActionIFihEEC2Ev
FN:361,_ZN7testing6ActionIFivEEC2Ev
FN:361,_ZN7testing6ActionIFmvEEC2Ev
FN:361,_ZN7testing6ActionIFvhiEEC2Ev
FN:361,_ZN7testing6ActionIFvhhEEC2Ev
FN:361,_ZN7testing6ActionIFvhPFvvEiEEC2Ev
FN:361,_ZN7testing6ActionIFvjEEC2Ev
FN:361,_ZN7testing6ActionIFahEEC2Ev
FN:361,_ZN7testing6ActionIFmhEEC2Ev
FN:361,_ZN7testing6ActionIFmhhmEEC2Ev
FN:361,_ZN7testing6ActionIFlvEEC2Ev
FN:361,_ZN7testing6ActionIFvvEEC2Ev
FN:361,_ZN7testing6ActionIFjvEEC2Ev
FN:361,_ZN7testing6ActionIFhhhEEC2Ev
FN:369,_ZN7testing6ActionIFmvEEC2INS_8internal23InvokeWithoutArgsActionIZN28DistanceCarCruiseControlTest5SetUpEvEUlvE_EEvEEOT_
FN:369,_ZN7testing6ActionIFmvEEC2INS_8internal23InvokeWithoutArgsActionIZN83GY50AttachedTest_getHeading_WhenTooLowAngularVelocityRead_WillNotUpdateHeading_Test8TestBodyEvEUlvE_EEvEEOT_
FN:369,_ZN7testing6ActionIFivEEC2INS_8internal23InvokeWithoutArgsActionIZN78GY50BasicTest_getOffset_WhenCalled_WillReturnCorrectAverageOfMeasurements_Test8TestBodyEvEUlvE_EEvEEOT_
FN:369,_ZN7testing6ActionIFihEEC2INS_8internal23InvokeWithoutArgsActionIZN85DirectionalOdometerAttachedTest_getDistance_WhenCalled_WillReturnCorrectDistance_Test8TestBodyEvEUlvE_EEvEEOT_
FN:369,_ZN7testing6ActionIFmvEEC2INS_8internal23InvokeWithoutArgsActionIZN90GY50AttachedTest_getHeading_WhenAngularVelocityReadOverTime_WillReturnCorrectDistance_Test8TestBodyEvEUlvE_EEvEEOT_
FN:369,_ZN7testing6ActionIFmvEEC2INS_8internal23InvokeWithoutArgsActionIZN31DirectionalOdometerAttachedTest5SetUpEvEUlvE0_EEvEEOT_
FN:372,_ZN7testing6ActionIFbvEEC2EPNS_15ActionInterfaceIS1_EE
FN:372,_ZN7testing6ActionIFviEEC2EPNS_15ActionInterfaceIS1_EE
FN:372,_ZN7testing6ActionIFlvEEC2EPNS_15ActionInterfaceIS1_EE
FN:372,_ZN7testing6ActionIFjvEEC2EPNS_15ActionInterfaceIS1_EE
FN:372,_ZN7testing6ActionIFihEEC2EPNS_15ActionInterfaceIS1_EE
FN:372,_ZN7testing6ActionIFmvEEC2EPNS_15ActionInterfaceIS1_EE
FN:372,_ZN7testing6ActionIFvhPFvvEiEEC2EPNS_15ActionInterfaceIS3_EE
FN:372,_ZN7testing6ActionIFmhhmEEC2EPNS_15ActionInterfaceIS1_EE
FN:372,_ZN7testing6ActionIFivEEC2EPNS_15ActionInterfaceIS1_EE
FN:372,_ZN7testing6ActionIFfvEEC2EPNS_15ActionInterfaceIS1_EE
FN:372,_ZN7testing6ActionIFahEEC2EPNS_15ActionInterfaceIS1_EE
FN:382,_ZNK7testing6ActionIFbvEE11IsDoDefaultEv
FN:382,_ZNK7testing6ActionIFviiEE11IsDoDefaultEv
FN:382,_ZNK7testing6ActionIFlvEE11IsDoDefaultEv
FN:382,_ZNK7testing6ActionIFhvEE11IsDoDefaultEv
FN:382,_ZNK7testing6ActionIFvmEE11IsDoDefaultEv
FN:382,_ZNK7testing6ActionIFhhhEE11IsDoDefaultEv
FN:382,_ZNK7testing6ActionIFvjEE11IsDoDefaultEv
FN:382,_ZNK7testing6ActionIFvhhEE11IsDoDefaultEv
FN:382,_ZNK7testing6ActionIFvhEE11IsDoDefaultEv
FN:382,_ZNK7testing6ActionIFivEE11IsDoDefaultEv
FN:382,_ZNK7testing6ActionIFjvEE11IsDoDefaultEv
FN:382,_ZNK7testing6ActionIFahEE11IsDoDefaultEv
FN:382,_ZNK7testing6ActionIFmvEE11IsDoDefaultEv
FN:382,_ZNK7testing6ActionIFvvEE11IsDoDefaultEv
FN:382,_ZNK7testing6ActionIFihEE11IsDoDefaultEv
FN:382,_ZNK7testing6ActionIFviEE11IsDoDefaultEv
FN:382,_ZNK7testing6ActionIFmhhmEE11IsDoDefaultEv
FN:382,_ZNK7testing6ActionIFmhEE11IsDoDefaultEv
FN:382,_ZNK7testing6ActionIFvhiiEE11IsDoDefaultEv
FN:382,_ZNK7testing6ActionIFvhPFvvEiEE11IsDoDefaultEv
FN:382,_ZNK7testing6ActionIFfvEE11IsDoDefaultEv
FN:382,_ZNK7testing6ActionIFvhiEE11IsDoDefaultEv
FN:390,_ZNK7testing6ActionIFvhhEE7PerformESt5tupleIJhhEE
FN:390,_ZNK7testing6ActionIFvhiiEE7PerformESt5tupleIJhiiEE
FN:390,_ZNK7testing6ActionIFvhiEE7PerformESt5tupleIJhiEE
FN:390,_ZNK7testing6ActionIFbvEE7PerformESt5tupleIJEE
FN:390,_ZNK7testing6ActionIFlvEE7PerformESt5tupleIJEE
FN:390,_ZNK7testing6ActionIFihEE7PerformESt5tupleIJhEE
FN:390,_ZNK7testing6ActionIFmhhmEE7PerformESt5tupleIJhhmEE
FN:390,_ZNK7testing6ActionIFmvEE7PerformESt5tupleIJEE
FN:390,_ZNK7testing6ActionIFviEE7PerformESt5tupleIJiEE
FN:390,_ZNK7testing6ActionIFmhEE7PerformESt5tupleIJhEE
FN:390,_ZNK7testing6ActionIFjvEE7PerformESt5tupleIJEE
FN:390,_ZNK7testing6ActionIFvhPFvvEiEE7PerformESt5tupleIJhS2_iEE
FN:390,_ZNK7testing6ActionIFvmEE7PerformESt5tupleIJmEE
FN:390,_ZNK7testing6ActionIFvvEE7PerformESt5tupleIJEE
FN:390,_ZNK7testing6ActionIFfvEE7PerformESt5tupleIJEE
FN:390,_ZNK7testing6ActionIFivEE7PerformESt5tupleIJEE
FN:390,_ZNK7testing6ActionIFhvEE7PerformESt5tupleIJEE
FN:390,_ZNK7testing6ActionIFvhEE7PerformESt5tupleIJhEE
FN:390,_ZNK7testing6ActionIFvjEE7PerformESt5tupleIJjEE
FN:390,_ZNK7testing6ActionIFviiEE7PerformESt5tupleIJiiEE
FN:390,_ZNK7testing6ActionIFahEE7PerformESt5tupleIJhEE
FN:390,_ZNK7testing6ActionIFhhhEE7PerformESt5tupleIJhhEE
FN:517,_ZN7testing8internal12ReturnActionIaED2Ev
FN:517,_ZN7testing8internal12ReturnActionIhED2Ev
FN:517,_ZN7testing8internal12ReturnActionIiED2Ev
FN:517,_ZN7testing8internal12ReturnActionImED2Ev
FN:517,_ZN7testing8internal12ReturnActionIbED2Ev
FN:517,_ZN7testing8internal12ReturnActionIfED2Ev
FN:517,_ZN7testing8internal12ReturnActionIjED2Ev
FN:522,_ZN7testing8internal12ReturnActionIiEC2Ei
FN:522,_ZN7testing8internal12ReturnActionIbEC2Eb
FN:522,_ZN7testing8internal12ReturnActionImEC2Em
FN:522,_ZN7testing8internal12ReturnActionIaEC2Ea
FN:522,_ZN7testing8internal12ReturnActionIfEC2Ef
FN:522,_ZN7testing8internal12ReturnActionIjEC2Ej
FN:522,_ZN7testing8internal12ReturnActionIhEC2Eh
FN:527,_ZNK7testing8internal12ReturnActionImEcvNS_6ActionIT_EEIFmvEEEv
FN:527,_ZNK7testing8internal12ReturnActionImEcvNS_6ActionIT_EEIFmhhmEEEv
FN:527,_ZNK7testing8internal12ReturnActionIbEcvNS_6ActionIT_EEIFihEEEv
FN:527,_ZNK7testing8internal12ReturnActionIiEcvNS_6ActionIT_EEIFivEEEv
FN:527,_ZNK7testing8internal12ReturnActionIjEcvNS_6ActionIT_EEIFjvEEEv
FN:527,_ZNK7testing8internal12ReturnActionIhEcvNS_6ActionIT_EEIFihEEEv
FN:527,_ZNK7testing8internal12ReturnActionIiEcvNS_6ActionIT_EEIFlvEEEv
FN:527,_ZNK7testing8internal12ReturnActionIiEcvNS_6ActionIT_EEIFihEEEv
FN:527,_ZNK7testing8internal12ReturnActionIbEcvNS_6ActionIT_EEIFbvEEEv
FN:527,_ZNK7testing8internal12ReturnActionIiEcvNS_6ActionIT_EEIFmvEEEv
FN:527,_ZNK7testing8internal12ReturnActionImEcvNS_6ActionIT_EEIFlvEEEv
FN:527,_ZNK7testing8internal12ReturnActionIhEcvNS_6ActionIT_EEIFivEEEv
FN:527,_ZNK7testing8internal12ReturnActionIaEcvNS_6ActionIT_EEIFahEEEv
FN:527,_ZNK7testing8internal12ReturnActionIfEcvNS_6ActionIT_EEIFfvEEEv
FN:548,_ZN7testing8internal12ReturnActionImE4ImplImFlvEED2Ev
FN:548,_ZN7testing8internal12ReturnActionImE4ImplImFmhhmEED2Ev
FN:548,_ZN7testing8internal12ReturnActionIiE4ImplIiFihEED0Ev
FN:548,_ZN7testing8internal12ReturnActionIiE4ImplIiFlvEED0Ev
FN:548,_ZN7testing8internal12ReturnActionIbE4ImplIbFbvEED2Ev
FN:548,_ZN7testing8internal12ReturnActionIiE4ImplIiFmvEED0Ev
FN:548,_ZN7testing8internal12ReturnActionIhE4ImplIhFivEED2Ev
FN:548,_ZN7testing8internal12ReturnActionIfE4ImplIfFfvEED2Ev
FN:548,_ZN7testing8internal12ReturnActionIiE4ImplIiFivEED2Ev
FN:548,_ZN7testing8internal12ReturnActionIhE4ImplIhFihEED0Ev
FN:548,_ZN7testing8internal12ReturnActionIjE4ImplIjFjvEED0Ev
FN:548,_ZN7testing8internal12ReturnActionIhE4ImplIhFihEED2Ev
FN:548,_ZN7testing8internal12ReturnActionIiE4ImplIiFlvEED2Ev
FN:548,_ZN7testing8internal12ReturnActionIiE4ImplIiFihEED2Ev
FN:548,_ZN7testing8internal12ReturnActionIbE4ImplIbFihEED2Ev
FN:548,_ZN7testing8internal12ReturnActionIiE4ImplIiFivEED0Ev
FN:548,_ZN7testing8internal12ReturnActionImE4ImplImFmvEED2Ev
FN:548,_ZN7testing8internal12ReturnActionImE4ImplImFmhhmEED0Ev
FN:548,_ZN7testing8internal12ReturnActionIfE4ImplIfFfvEED0Ev
FN:548,_ZN7testing8internal12ReturnActionImE4ImplImFlvEED0Ev
FN:548,_ZN7testing8internal12ReturnActionImE4ImplImFmvEED0Ev
FN:548,_ZN7testing8internal12ReturnActionIhE4ImplIhFivEED0Ev
FN:548,_ZN7testing8internal12ReturnActionIbE4ImplIbFbvEED0Ev
FN:548,_ZN7testing8internal12ReturnActionIaE4ImplIaFahEED2Ev
FN:548,_ZN7testing8internal12ReturnActionIiE4ImplIiFmvEED2Ev
FN:548,_ZN7testing8internal12ReturnActionIjE4ImplIjFjvEED2Ev
FN:548,_ZN7testing8internal12ReturnActionIaE4ImplIaFahEED0Ev
FN:548,_ZN7testing8internal12ReturnActionIbE4ImplIbFihEED0Ev
FN:560,_ZN7testing8internal12ReturnActionIhE4ImplIhFivEEC2ERKSt10shared_ptrIhE
FN:560,_ZN7testing8internal12ReturnActionIfE4ImplIfFfvEEC2ERKSt10shared_ptrIfE
FN:560,_ZN7testing8internal12ReturnActionIbE4ImplIbFbvEEC2ERKSt10shared_ptrIbE
FN:560,_ZN7testing8internal12ReturnActionIbE4ImplIbFihEEC2ERKSt10shared_ptrIbE
FN:560,_ZN7testing8internal12ReturnActionIiE4ImplIiFivEEC2ERKSt10shared_ptrIiE
FN:560,_ZN7testing8internal12ReturnActionIjE4ImplIjFjvEEC2ERKSt10shared_ptrIjE
FN:560,_ZN7testing8internal12ReturnActionIiE4ImplIiFmvEEC2ERKSt10shared_ptrIiE
FN:560,_ZN7testing8internal12ReturnActionIaE4ImplIaFahEEC2ERKSt10shared_ptrIaE
FN:560,_ZN7testing8internal12ReturnActionIhE4ImplIhFihEEC2ERKSt10shared_ptrIhE
FN:560,_ZN7testing8internal12ReturnActionImE4ImplImFlvEEC2ERKSt10shared_ptrImE
FN:560,_ZN7testing8internal12ReturnActionImE4ImplImFmhhmEEC2ERKSt10shared_ptrImE
FN:560,_ZN7testing8internal12ReturnActionIiE4ImplIiFlvEEC2ERKSt10shared_ptrIiE
FN:560,_ZN7testing8internal12ReturnActionIiE4ImplIiFihEEC2ERKSt10shared_ptrIiE
FN:560,_ZN7testing8internal12ReturnActionImE4ImplImFmvEEC2ERKSt10shared_ptrImE
FN:564,_ZN7testing8internal12ReturnActionIiE4ImplIiFihEE7PerformERKSt5tupleIJhEE
FN:564,_ZN7testing8internal12ReturnActionIaE4ImplIaFahEE7PerformERKSt5tupleIJhEE
FN:564,_ZN7testing8internal12ReturnActionIiE4ImplIiFivEE7PerformERKSt5tupleIJEE
FN:564,_ZN7testing8internal12ReturnActionIiE4ImplIiFlvEE7PerformERKSt5tupleIJEE
FN:564,_ZN7testing8internal12ReturnActionIiE4ImplIiFmvEE7PerformERKSt5tupleIJEE
FN:564,_ZN7testing8internal12ReturnActionIfE4ImplIfFfvEE7PerformERKSt5tupleIJEE
FN:564,_ZN7testing8internal12ReturnActionIbE4ImplIbFbvEE7PerformERKSt5tupleIJEE
FN:564,_ZN7testing8internal12ReturnActionIjE4ImplIjFjvEE7PerformERKSt5tupleIJEE
FN:564,_ZN7testing8internal12ReturnActionIhE4ImplIhFivEE7PerformERKSt5tupleIJEE
FN:564,_ZN7testing8internal12ReturnActionImE4ImplImFlvEE7PerformERKSt5tupleIJEE
FN:564,_ZN7testing8internal12ReturnActionImE4ImplImFmvEE7PerformERKSt5tupleIJEE
FN:564,_ZN7testing8internal12ReturnActionImE4ImplImFmhhmEE7PerformERKSt5tupleIJhhmEE
FN:564,_ZN7testing8internal12ReturnActionIhE4ImplIhFihEE7PerformERKSt5tupleIJhEE
FN:564,_ZN7testing8internal12ReturnActionIbE4ImplIbFihEE7PerformERKSt5tupleIJhEE
FN:727,_ZNK7testing8internal15DoDefaultActioncvNS_6ActionIT_EEIFvhhEEEv
FN:727,_ZNK7testing8internal15DoDefaultActioncvNS_6ActionIT_EEIFbvEEEv
FN:727,_ZNK7testing8internal15DoDefaultActioncvNS_6ActionIT_EEIFlvEEEv
FN:727,_ZNK7testing8internal15DoDefaultActioncvNS_6ActionIT_EEIFmvEEEv
FN:727,_ZNK7testing8internal15DoDefaultActioncvNS_6ActionIT_EEIFfvEEEv
FN:727,_ZNK7testing8internal15DoDefaultActioncvNS_6ActionIT_EEIFahEEEv
FN:727,_ZNK7testing8internal15DoDefaultActioncvNS_6ActionIT_EEIFvmEEEv
FN:727,_ZNK7testing8internal15DoDefaultActioncvNS_6ActionIT_EEIFivEEEv
FN:727,_ZNK7testing8internal15DoDefaultActioncvNS_6ActionIT_EEIFmhhmEEEv
FN:727,_ZNK7testing8internal15DoDefaultActioncvNS_6ActionIT_EEIFmhEEEv
FN:727,_ZNK7testing8internal15DoDefaultActioncvNS_6ActionIT_EEIFviiEEEv
FN:727,_ZNK7testing8internal15DoDefaultActioncvNS_6ActionIT_EEIFjvEEEv
FN:727,_ZNK7testing8internal15DoDefaultActioncvNS_6ActionIT_EEIFviEEEv
FN:727,_ZNK7testing8internal15DoDefaultActioncvNS_6ActionIT_EEIFvjEEEv
FN:727,_ZNK7testing8internal15DoDefaultActioncvNS_6ActionIT_EEIFvhPFvvEiEEEv
FN:727,_ZNK7testing8internal15DoDefaultActioncvNS_6ActionIT_EEIFihEEEv
FN:727,_ZNK7testing8internal15DoDefaultActioncvNS_6ActionIT_EEIFvhiiEEEv
FN:727,_ZNK7testing8internal15DoDefaultActioncvNS_6ActionIT_EEIFhhhEEEv
FN:727,_ZNK7testing8internal15DoDefaultActioncvNS_6ActionIT_EEIFvhEEEv
FN:727,_ZNK7testing8internal15DoDefaultActioncvNS_6ActionIT_EEIFvvEEEv
FN:727,_ZNK7testing8internal15DoDefaultActioncvNS_6ActionIT_EEIFhvEEEv
FN:727,_ZNK7testing8internal15DoDefaultActioncvNS_6ActionIT_EEIFvhiEEEv
FN:844,_ZN7testing8internal23InvokeWithoutArgsActionIZN78GY50BasicTest_getOffset_WhenCalled_WillReturnCorrectAverageOfMeasurements_Test8TestBodyEvEUlvE_EclIJEEEiDpRKT_
FN:844,_ZN7testing8internal23InvokeWithoutArgsActionIZN31DirectionalOdometerAttachedTest5SetUpEvEUlvE0_EclIJEEEmDpRKT_
FN:844,_ZN7testing8internal23InvokeWithoutArgsActionIZN28DistanceCarCruiseControlTest5SetUpEvEUlvE_EclIJEEEmDpRKT_
FN:844,_ZN7testing8internal23InvokeWithoutArgsActionIZN83GY50AttachedTest_getHeading_WhenTooLowAngularVelocityRead_WillNotUpdateHeading_Test8TestBodyEvEUlvE_EclIJEEEiDpRKT_
FN:844,_ZN7testing8internal23InvokeWithoutArgsActionIZN90GY50AttachedTest_getHeading_WhenAngularVelocityReadOverTime_WillReturnCorrectDistance_Test8TestBodyEvEUlvE_EclIJEEEiDpRKT_
FN:844,_ZN7testing8internal23InvokeWithoutArgsActionIZN85DirectionalOdometerAttachedTest_getDistance_WhenCalled_WillReturnCorrectDistance_Test8TestBodyEvEUlvE_EclIJhEEEiDpRKT_
FN:1041,_ZN7testing6ReturnIbEENS_8internal12ReturnActionIT_EES3_
FN:1041,_ZN7testing6ReturnIfEENS_8internal12ReturnActionIT_EES3_
FN:1041,_ZN7testing6ReturnIjEENS_8internal12ReturnActionIT_EES3_
FN:1041,_ZN7testing6ReturnIiEENS_8internal12ReturnActionIT_EES3_
FN:1041,_ZN7testing6ReturnImEENS_8internal12ReturnActionIT_EES3_
FN:1041,_ZN7testing6ReturnIhEENS_8internal12ReturnActionIT_EES3_
FN:1041,_ZN7testing6ReturnIaEENS_8internal12ReturnActionIT_EES3_
FN:1079,_ZN7testing9DoDefaultEv
FN:1160,_ZN7testing17InvokeWithoutArgsIZN90GY50AttachedTest_getHeading_WhenAngularVelocityReadOverTime_WillReturnCorrectDistance_Test8TestBodyEvEUlvE_EENS_8internal23InvokeWithoutArgsActionINSt5decayIT_E4typeEEES6_
FN:1160,_ZN7testing17InvokeWithoutArgsIZN85DirectionalOdometerAttachedTest_getDistance_WhenCalled_WillReturnCorrectDistance_Test8TestBodyEvEUlvE_EENS_8internal23InvokeWithoutArgsActionINSt5decayIT_E4typeEEES6_
FN:1160,_ZN7testing17InvokeWithoutArgsIZN83GY50AttachedTest_getHeading_WhenTooLowAngularVelocityRead_WillNotUpdateHeading_Test8TestBodyEvEUlvE_EENS_8internal23InvokeWithoutArgsActionINSt5decayIT_E4typeEEES6_
FN:1160,_ZN7testing17InvokeWithoutArgsIZN31DirectionalOdometerAttachedTest5SetUpEvEUlvE0_EENS_8internal23InvokeWithoutArgsActionINSt5decayIT_E4typeEEES6_
FN:1160,_ZN7testing17InvokeWithoutArgsIZN28DistanceCarCruiseControlTest5SetUpEvEUlvE_EENS_8internal23InvokeWithoutArgsActionINSt5decayIT_E4typeEEES6_
FN:1160,_ZN7testing17InvokeWithoutArgsIZN78GY50BasicTest_getOffset_WhenCalled_WillReturnCorrectAverageOfMeasurements_Test8TestBodyEvEUlvE_EENS_8internal23InvokeWithoutArgsActionINSt5decayIT_E4typeEEES6_
FNDA:0,_ZN7testing8internal19BuiltInDefaultValueIaE6ExistsEv
FNDA:0,_ZN7testing12DefaultValueIfE6ExistsEv
FNDA:2130,_ZN7testing15ActionInterfaceIFivEEC2Ev
FNDA:75,_ZN7testing6ActionIFihEEC2Ev
FNDA:9000,_ZN7testing8internal23InvokeWithoutArgsActionIZN31DirectionalOdometerAttachedTest5SetUpEvEUlvE0_EclIJEEEmDpRKT_
FNDA:235,_ZNK7testing8internal12ReturnActionIbEcvNS_6ActionIT_EEIFbvEEEv
FNDA:485,_ZNK7testing8internal15DoDefaultActioncvNS_6ActionIT_EEIFviEEEv
FNDA:20,_ZN7testing6ActionIFvhPFvvEiEE13ActionAdapterD2Ev
FNDA:15,_ZN7testing6ActionIFhhhEED2Ev
FNDA:45,_ZNK7testing8internal12ReturnActionIiEcvNS_6ActionIT_EEIFihEEEv
FNDA:4250,_ZN7testing12DefaultValueImE6ExistsEv
FNDA:2130,_ZN7testing6ActionIFivEEC2EPNS_15ActionInterfaceIS1_EE
FNDA:610,_ZN7testing8internal12ReturnActionImE4ImplImFmvEED2Ev
FNDA:50,_ZN7testing6ActionIFivEEaSERKS2_
FNDA:125,_ZNK7testing6ActionIFvhhEE11IsDoDefaultEv
FNDA:10,_ZN7testing6ActionIFjvEEC2ERKS2_
FNDA:7015,_ZN7testing12DefaultValueIhE5IsSetEv
FNDA:200,_ZN7testing8internal23InvokeWithoutArgsActionIZN28DistanceCarCruiseControlTest5SetUpEvEUlvE_EclIJEEEmDpRKT_
FNDA:55,_ZN7testing8internal12ReturnActionIfE4ImplIfFfvEED0Ev
FNDA:20,_ZN7testing8internal12ReturnActionImE4ImplImFmhhmEED0Ev
FNDA:0,_ZN7testing6ActionIFvhhEEC2ERKS2_
FNDA:5,_ZNK7testing8internal12ReturnActionIiEcvNS_6ActionIT_EEIFmvEEEv
FNDA:5,_ZN7testing6ActionIFihEEC2INS_8internal23InvokeWithoutArgsActionIZN85DirectionalOdometerAttachedTest_getDistance_WhenCalled_WillReturnCorrectDistance_Test8TestBodyEvEUlvE_EEvEEOT_
FNDA:15,_ZN7testing8internal12ReturnActionIbE4ImplIbFihEED2Ev
FNDA:15,_ZN7testing6ActionIFhvEED2Ev
FNDA:2115,_ZN7testing8internal12ReturnActionIiE4ImplIiFivEED0Ev
FNDA:15,_ZN7testing6ActionIFhvEEC2Ev
FNDA:20,_ZN7testing6ActionIFlvEE13ActionAdapterC2EOS3_
FNDA:0,_ZN7testing6ActionIFvhiEEC2ERKS2_
FNDA:800,_ZN7testing6ActionIFviEE13ActionAdapterD2Ev
FNDA:255,_ZN7testing8internal19BuiltInDefaultValueIiE6ExistsEv
FNDA:5,_ZN7testing17InvokeWithoutArgsIZN78GY50BasicTest_getOffset_WhenCalled_WillReturnCorrectAverageOfMeasurements_Test8TestBodyEvEUlvE_EENS_8internal23InvokeWithoutArgsActionINSt5decayIT_E4typeEEES6_
FNDA:30,_ZNK7testing6ActionIFvjEE11IsDoDefaultEv
FNDA:15,_ZNK7testing8internal15DoDefaultActioncvNS_6ActionIT_EEIFjvEEEv
FNDA:20,_ZN7testing17InvokeWithoutArgsIZN28DistanceCarCruiseControlTest5SetUpEvEUlvE_EENS_8internal23InvokeWithoutArgsActionINSt5decayIT_E4typeEEES6_
FNDA:5,_ZN7testing15ActionInterfaceIFjvEEC2Ev
FNDA:30,_ZN7testing6ActionIFlvEE13ActionAdapterclIJEEElDpOT_
FNDA:110,_ZN7testing6ActionIFbvEEC2ERKS2_
FNDA:30,_ZN7testing12DefaultValueIjE5IsSetEv
FNDA:255,_ZN7testing12DefaultValueIiE3GetEv
FNDA:510,_ZN7testing12DefaultValueIbE6ExistsEv
FNDA:20,_ZN7testing6ActionIFvhiEEC2Ev
FNDA:30,_ZN7testing12DefaultValueIjE3GetEv
FNDA:10,_ZN7testing8internal23InvokeWithoutArgsActionIZN90GY50AttachedTest_getHeading_WhenAngularVelocityReadOverTime_WillReturnCorrectDistance_Test8TestBodyEvEUlvE_EclIJEEEiDpRKT_
FNDA:7015,_ZN7testing8internal19BuiltInDefaultValueIhE3GetEv
FNDA:130,_ZN7testing6ActionIFvhhEEC2Ev
FNDA:400,_ZN7testing6ActionIFviEEC2ERKS2_
FNDA:2000,_ZN7testing8internal23InvokeWithoutArgsActionIZN85DirectionalOdometerAttachedTest_getDistance_WhenCalled_WillReturnCorrectDistance_Test8TestBodyEvEUlvE_EclIJhEEEiDpRKT_
FNDA:5,_ZN7testing8internal12ReturnActionIiE4ImplIiFlvEEC2ERKSt10shared_ptrIiE
FNDA:9510,_ZNK7testing6ActionIFivEE11IsDoDefaultEv
FNDA:40,_ZNK7testing6ActionIFjvEE11IsDoDefaultEv
FNDA:510,_ZN7testing12DefaultValueIbE3GetEv
FNDA:5240,_ZN7testing6ActionIFivEEC2ERKS2_
FNDA:615,_ZN7testing15ActionInterfaceIFmvEED2Ev
FNDA:0,_ZN7testing15ActionInterfaceIFvhPFvvEiEED0Ev
FNDA:7070,_ZN7testing6ActionIFihEE13ActionAdapterclIJhEEEiDpOT_
FNDA:40,_ZN7testing8internal19BuiltInDefaultValueIlE6ExistsEv
FNDA:5,_ZN7testing15ActionInterfaceIFvhPFvvEiEED2Ev
FNDA:75,_ZNK7testing8internal15DoDefaultActioncvNS_6ActionIT_EEIFihEEEv
FNDA:20,_ZN7testing8internal12ReturnActionImE4ImplImFlvEE7PerformERKSt5tupleIJEE
FNDA:5,_ZN7testing6ActionIFmvEEC2INS_8internal23InvokeWithoutArgsActionIZN90GY50AttachedTest_getHeading_WhenAngularVelocityReadOverTime_WillReturnCorrectDistance_Test8TestBodyEvEUlvE_EEvEEOT_
FNDA:610,_ZN7testing8internal12ReturnActionImE4ImplImFmvEED0Ev
FNDA:55,_ZNK7testing6ActionIFvhEE11IsDoDefaultEv
FNDA:30,_ZNK7testing8internal15DoDefaultActioncvNS_6ActionIT_EEIFvjEEEv
FNDA:15,_ZNK7testing8internal12ReturnActionImEcvNS_6ActionIT_EEIFlvEEEv
FNDA:1420,_ZN7testing6ActionIFbvEE13ActionAdapterclIJEEEbDpOT_
FNDA:10,_ZN7testing6ActionIFlvEEaSERKS2_
FNDA:8510,_ZN7testing6ActionIFivEED2Ev
FNDA:20,_ZN7testing8internal12ReturnActionImE4ImplImFmhhmEEC2ERKSt10shared_ptrImE
FNDA:335,_ZN7testing6ActionIFahEE13ActionAdapterD2Ev
FNDA:15,_ZN7testing8internal12ReturnActionImE4ImplImFlvEED0Ev
FNDA:10,_ZNK7testing8internal15DoDefaultActioncvNS_6ActionIT_EEIFvhPFvvEiEEEv
FNDA:105,_ZN7testing8internal12ReturnActionIaE4ImplIaFahEED2Ev
FNDA:1005,_ZN7testing8internal23InvokeWithoutArgsActionIZN83GY50AttachedTest_getHeading_WhenTooLowAngularVelocityRead_WillNotUpdateHeading_Test8TestBodyEvEUlvE_EclIJEEEiDpRKT_
FNDA:105,_ZN7testing6ReturnIaEENS_8internal12ReturnActionIT_EES3_
FNDA:235,_ZN7testing8internal12ReturnActionIbE4ImplIbFbvEED0Ev
FNDA:40,_ZN7testing12DefaultValueIlE6ExistsEv
FNDA:130,_ZN7testing6ActionIFvhhEED2Ev
FNDA:15,_ZN7testing8internal12ReturnActionIhE4ImplIhFivEED0Ev
FNDA:7140,_ZN7testing6ActionIFihEE13ActionAdapterC2ERKS3_
FNDA:4285,_ZN7testing6ActionIFivEE13ActionAdapterC2ERKS3_
FNDA:710,_ZN7testing6ActionIFmvEEC2Ev
FNDA:0,_ZN7testing6ActionIFvhiiEEC2ERKS2_
FNDA:105,_ZN7testing15ActionInterfaceIFahEEC2Ev
FNDA:1135,_ZN7testing6ActionIFivEEC2Ev
FNDA:15,_ZNK7testing8internal12ReturnActionIhEcvNS_6ActionIT_EEIFivEEEv
FNDA:30,_ZN7testing6ActionIFmhhmEEC2Ev
FNDA:140,_ZN7testing6ActionIFmhEEC2Ev
FNDA:18140,_ZNK7testing6ActionIFihEE11IsDoDefaultEv
FNDA:55,_ZN7testing8internal12ReturnActionIfED2Ev
FNDA:45,_ZNK7testing6ActionIFvvEE11IsDoDefaultEv
FNDA:25,_ZN7testing6ActionIFvhPFvvEiEED2Ev
FNDA:5,_ZN7testing8internal12ReturnActionIjED2Ev
FNDA:0,_ZN7testing12DefaultValueIaE5IsSetEv
FNDA:5,_ZN7testing8internal12ReturnActionIjE4ImplIjFjvEED2Ev
FNDA:15,_ZNK7testing8internal15DoDefaultActioncvNS_6ActionIT_EEIFvhEEEv
FNDA:20,_ZN7testing6ActionIFjvEE13ActionAdapterD2Ev
FNDA:5,_ZN7testing6ActionIFvmEED2Ev
FNDA:15,_ZNK7testing8internal15DoDefaultActioncvNS_6ActionIT_EEIFhhhEEEv
FNDA:85,_ZN7testing6ActionIFahEEaSERKS2_
FNDA:5,_ZN7testing6ActionIFvhPFvvEiEE13ActionAdapterclIJhS2_iEEEvDpOT_
FNDA:615,_ZN7testing8internal12ReturnActionImE4ImplImFmvEE7PerformERKSt5tupleIJEE
FNDA:0,_ZN7testing6ActionIFvjEEC2ERKS2_
FNDA:400,_ZN7testing6ActionIFviEE13ActionAdapterC2ERKS3_
FNDA:55,_ZNK7testing8internal12ReturnActionIfEcvNS_6ActionIT_EEIFfvEEEv
FNDA:45,_ZNK7testing8internal15DoDefaultActioncvNS_6ActionIT_EEIFvvEEEv
FNDA:255,_ZN7testing12DefaultValueIiE5IsSetEv
FNDA:50,_ZN7testing6ActionIFlvEEC2Ev
FNDA:20,_ZN7testing6ActionIFmhhmEE13ActionAdapterC2EOS3_
FNDA:105,_ZNK7testing8internal12ReturnActionIaEcvNS_6ActionIT_EEIFahEEEv
FNDA:35,_ZN7testing6ActionIFviiEED2Ev
FNDA:20,_ZN7testing8internal12ReturnActionImE4ImplImFmhhmEE7PerformERKSt5tupleIJhhmEE
FNDA:30,_ZN7testing12DefaultValueIjE6ExistsEv
FNDA:50,_ZN7testing6ActionIFlvEE13ActionAdapterC2ERKS3_
FNDA:20,_ZN7testing15ActionInterfaceIFmhhmEEC2Ev
FNDA:30,_ZN7testing6ActionIFvjEEC2Ev
FNDA:200,_ZN7testing15ActionInterfaceIFviEEC2Ev
FNDA:11510,_ZNK7testing6ActionIFmvEE11IsDoDefaultEv
FNDA:5,_ZNK7testing8internal15DoDefaultActioncvNS_6ActionIT_EEIFvhiiEEEv
FNDA:210,_ZNK7testing6ActionIFahEE11IsDoDefaultEv
FNDA:0,_ZN7testing6ActionIFmhEEC2ERKS2_
FNDA:10,_ZN7testing6ActionIFvhPFvvEiEEC2Ev
FNDA:0,_ZN7testing6ActionIFviiEEC2ERKS2_
FNDA:5,_ZN7testing8internal12ReturnActionIiE4ImplIiFmvEED2Ev
FNDA:75,_ZN7testing6ActionIFfvEE13ActionAdapterC2ERKS3_
FNDA:250,_ZN7testing6ActionIFahEED2Ev
FNDA:45,_ZN7testing8internal12ReturnActionIiE4ImplIiFihEEC2ERKSt10shared_ptrIiE
FNDA:0,_ZN7testing12DefaultValueIfE5IsSetEv
FNDA:5,_ZN7testing6ActionIFjvEE13ActionAdapterclIJEEEjDpOT_
FNDA:7015,_ZN7testing12DefaultValueIhE6ExistsEv
FNDA:2130,_ZN7testing15ActionInterfaceIFivEED2Ev
FNDA:105,_ZN7testing6ActionIFahEEC2Ev
FNDA:4250,_ZN7testing8internal19BuiltInDefaultValueImE3GetEv
FNDA:510,_ZN7testing8internal19BuiltInDefaultValueIbE6ExistsEv
FNDA:40,_ZN7testing12DefaultValueIlE5IsSetEv
FNDA:20,_ZN7testing15ActionInterfaceIFlvEED2Ev
FNDA:0,_ZNK7testing6ActionIFvjEE7PerformESt5tupleIJjEE
FNDA:0,_ZNK7testing6ActionIFvhEE7PerformESt5tupleIJhEE
FNDA:55,_ZN7testing6ActionIFfvEEC2EPNS_15ActionInterfaceIS1_EE
FNDA:0,_ZNK7testing6ActionIFhvEE7PerformESt5tupleIJEE
FNDA:0,_ZN7testing15ActionInterfaceIFlvEED0Ev
FNDA:0,_ZNK7testing6ActionIFviiEE7PerformESt5tupleIJiiEE
FNDA:25,_ZN7testing6ActionIFmvEEC2INS_8internal23InvokeWithoutArgsActionIZN31DirectionalOdometerAttachedTest5SetUpEvEUlvE0_EEvEEOT_
FNDA:5,_ZNK7testing6ActionIFvhiiEE11IsDoDefaultEv
FNDA:20,_ZNK7testing8internal15DoDefaultActioncvNS_6ActionIT_EEIFvhiEEEv
FNDA:25,_ZN7testing8internal12ReturnActionIhEC2Eh
FNDA:55,_ZN7testing6ActionIFfvEE13ActionAdapterC2EOS3_
FNDA:0,_ZN7testing12DefaultValueIfE3GetEv
FNDA:15,_ZN7testing6ActionIFhhhEEC2Ev
FNDA:20,_ZNK7testing6ActionIFvhiEE11IsDoDefaultEv
FNDA:5,_ZN7testing6ActionIFvhPFvvEiEE13ActionAdapterC2EOS5_
FNDA:420,_ZN7testing6ActionIFfvEE13ActionAdapterclIJEEEfDpOT_
FNDA:40,_ZN7testing6ActionIFmhhmEEC2ERKS2_
FNDA:20,_ZN7testing15ActionInterfaceIFlvEEC2Ev
FNDA:610,_ZN7testing8internal12ReturnActionImE4ImplImFmvEEC2ERKSt10shared_ptrImE
FNDA:15,_ZN7testing8internal12ReturnActionIbE4ImplIbFihEED0Ev
FNDA:10,_ZNK7testing6ActionIFvhPFvvEiEE11IsDoDefaultEv
FNDA:105,_ZNK7testing6ActionIFahEE7PerformESt5tupleIJhEE
FNDA:480,_ZNK7testing6ActionIFfvEE11IsDoDefaultEv
FNDA:0,_ZNK7testing6ActionIFhhhEE7PerformESt5tupleIJhhEE
FNDA:30,_ZN7testing8internal19BuiltInDefaultValueIjE3GetEv
FNDA:105,_ZN7testing6ActionIFahEEC2EPNS_15ActionInterfaceIS1_EE
FNDA:0,_ZN7testing8internal19BuiltInDefaultValueIfE6ExistsEv
FNDA:15,_ZNK7testing8internal15DoDefaultActioncvNS_6ActionIT_EEIFhvEEEv
FNDA:4250,_ZN7testing12DefaultValueImE3GetEv
FNDA:105,_ZN7testing8internal12ReturnActionIaE4ImplIaFahEED0Ev
FNDA:680,_ZNK7testing6ActionIFviEE11IsDoDefaultEv
FNDA:45,_ZN7testing6ActionIFvvEEC2Ev
FNDA:30,_ZN7testing6ActionIFjvEED2Ev
FNDA:70,_ZN7testing6ActionIFihEE13ActionAdapterC2EOS3_
FNDA:170,_ZNK7testing6ActionIFmhEE11IsDoDefaultEv
FNDA:90,_ZNK7testing6ActionIFmhhmEE11IsDoDefaultEv
FNDA:70,_ZN7testing15ActionInterfaceIFihEEC2Ev
FNDA:4250,_ZN7testing12DefaultValueImE5IsSetEv
FNDA:5020,_ZN7testing8internal12ReturnActionIbE4ImplIbFihEE7PerformERKSt5tupleIJhEE
FNDA:0,_ZN7testing12DefaultValueIaE6ExistsEv
FNDA:55,_ZN7testing15ActionInterfaceIFfvEED2Ev
FNDA:15,_ZN7testing6ActionIFvhEED2Ev
FNDA:2005,_ZN7testing8internal12ReturnActionIhE4ImplIhFihEE7PerformERKSt5tupleIJhEE
FNDA:15,_ZN7testing6ActionIFjvEEC2Ev
FNDA:9070,_ZNK7testing6ActionIFihEE7PerformESt5tupleIJhEE
FNDA:15,_ZN7testing8internal12ReturnActionImE4ImplImFlvEED2Ev
FNDA:5,_ZN7testing17InvokeWithoutArgsIZN85DirectionalOdometerAttachedTest_getDistance_WhenCalled_WillReturnCorrectDistance_Test8TestBodyEvEUlvE_EENS_8internal23InvokeWithoutArgsActionINSt5decayIT_E4typeEEES6_
FNDA:45,_ZN7testing6ActionIFfvEEaSERKS2_
FNDA:80,_ZN7testing6ActionIFmhhmEE13ActionAdapterD2Ev
FNDA:105,_ZN7testing6ActionIFahEE13ActionAdapterC2EOS3_
FNDA:20,_ZN7testing6ActionIFmhhmEE13ActionAdapterclIJhhmEEEmDpOT_
FNDA:20,_ZNK7testing6ActionIFmhhmEE7PerformESt5tupleIJhhmEE
FNDA:7015,_ZN7testing8internal19BuiltInDefaultValueIhE6ExistsEv
FNDA:25,_ZN7testing8internal12ReturnActionIhED2Ev
FNDA:30,_ZNK7testing6ActionIFlvEE7PerformESt5tupleIJEE
FNDA:20,_ZN7testing6ActionIFmvEEC2INS_8internal23InvokeWithoutArgsActionIZN28DistanceCarCruiseControlTest5SetUpEvEUlvE_EEvEEOT_
FNDA:1420,_ZNK7testing6ActionIFbvEE7PerformESt5tupleIJEE
FNDA:30,_ZN7testing6ActionIFvjEED2Ev
FNDA:235,_ZN7testing15ActionInterfaceIFbvEED2Ev
FNDA:20,_ZN7testing8internal12ReturnActionImE4ImplImFmhhmEED2Ev
FNDA:55,_ZN7testing6ReturnIfEENS_8internal12ReturnActionIT_EES3_
FNDA:15,_ZN7testing8internal12ReturnActionIhE4ImplIhFivEEC2ERKSt10shared_ptrIhE
FNDA:85,_ZNK7testing8internal15DoDefaultActioncvNS_6ActionIT_EEIFbvEEEv
FNDA:50,_ZNK7testing8internal15DoDefaultActioncvNS_6ActionIT_EEIFlvEEEv
FNDA:200,_ZN7testing6ActionIFviEEC2EPNS_15ActionInterfaceIS1_EE
FNDA:0,_ZN7testing6ActionIFhvEEC2ERKS2_
FNDA:10835,_ZNK7testing6ActionIFmvEE7PerformESt5tupleIJEE
FNDA:0,_ZN7testing6ActionIFvmEEC2ERKS2_
FNDA:7280,_ZN7testing6ActionIFihEE13ActionAdapterD2Ev
FNDA:200,_ZN7testing6ActionIFviEE13ActionAdapterC2EOS3_
FNDA:7015,_ZN7testing12DefaultValueIhE3GetEv
FNDA:130,_ZNK7testing8internal15DoDefaultActioncvNS_6ActionIT_EEIFvhhEEEv
FNDA:105,_ZN7testing8internal12ReturnActionIaED2Ev
FNDA:40,_ZN7testing6ActionIFlvEEC2ERKS2_
FNDA:5,_ZN7testing17InvokeWithoutArgsIZN90GY50AttachedTest_getHeading_WhenAngularVelocityReadOverTime_WillReturnCorrectDistance_Test8TestBodyEvEUlvE_EENS_8internal23InvokeWithoutArgsActionINSt5decayIT_E4typeEEES6_
FNDA:0,_ZNK7testing6ActionIFvhiEE7PerformESt5tupleIJhiEE
FNDA:235,_ZN7testing15ActionInterfaceIFbvEEC2Ev
FNDA:5,_ZN7testing15ActionInterfaceIFvhPFvvEiEEC2Ev
FNDA:0,_ZNK7testing6ActionIFvhhEE7PerformESt5tupleIJhhEE
FNDA:0,_ZN7testing6ActionIFvhEEC2ERKS2_
FNDA:45,_ZN7testing8internal12ReturnActionIiE4ImplIiFihEE7PerformERKSt5tupleIJhEE
FNDA:610,_ZNK7testing8internal12ReturnActionImEcvNS_6ActionIT_EEIFmvEEEv
FNDA:1640,_ZNK7testing6ActionIFbvEE11IsDoDefaultEv
FNDA:0,_ZNK7testing6ActionIFvhiiEE7PerformESt5tupleIJhiiEE
FNDA:10,_ZN7testing6ActionIFvhPFvvEiEE13ActionAdapterC2ERKS5_
FNDA:20,_ZNK7testing8internal12ReturnActionImEcvNS_6ActionIT_EEIFmhhmEEEv
FNDA:250,_ZN7testing6ReturnIbEENS_8internal12ReturnActionIT_EES3_
FNDA:0,_ZN7testing15ActionInterfaceIFjvEED0Ev
FNDA:10,_ZN7testing6ActionIFjvEE13ActionAdapterC2ERKS3_
FNDA:285,_ZN7testing6ActionIFbvEE13ActionAdapterC2ERKS3_
FNDA:2170,_ZN7testing8internal12ReturnActionIiEC2Ei
FNDA:200,_ZN7testing6ActionIFviEE13ActionAdapterclIJiEEEvDpOT_
FNDA:1220,_ZN7testing6ActionIFmvEE13ActionAdapterC2ERKS3_
FNDA:235,_ZN7testing6ActionIFbvEEC2EPNS_15ActionInterfaceIS1_EE
FNDA:250,_ZN7testing8internal12ReturnActionIbEC2Eb
FNDA:485,_ZN7testing6ActionIFviEEC2Ev
FNDA:105,_ZN7testing8internal12ReturnActionIaE4ImplIaFahEE7PerformERKSt5tupleIJhEE
FNDA:5200,_ZN7testing8internal12ReturnActionIiE4ImplIiFivEE7PerformERKSt5tupleIJEE
FNDA:175,_ZN7testing6ActionIFbvEEaSERKS2_
FNDA:15,_ZN7testing8internal12ReturnActionIbE4ImplIbFihEEC2ERKSt10shared_ptrIbE
FNDA:110,_ZN7testing6ActionIFlvEED2Ev
FNDA:5,_ZN7testing6ReturnIjEENS_8internal12ReturnActionIT_EES3_
FNDA:235,_ZN7testing8internal12ReturnActionIbE4ImplIbFbvEED2Ev
FNDA:5,_ZN7testing6ActionIFjvEE13ActionAdapterC2EOS3_
FNDA:15,_ZNK7testing8internal12ReturnActionIbEcvNS_6ActionIT_EEIFihEEEv
FNDA:0,_ZN7testing12DefaultValueIaE3GetEv
FNDA:0,_ZN7testing8internal19BuiltInDefaultValueIaE3GetEv
FNDA:640,_ZNK7testing8internal15DoDefaultActioncvNS_6ActionIT_EEIFmvEEEv
FNDA:645,_ZN7testing8internal12ReturnActionImEC2Em
FNDA:235,_ZN7testing8internal12ReturnActionIbE4ImplIbFbvEEC2ERKSt10shared_ptrIbE
FNDA:25,_ZNK7testing8internal15DoDefaultActioncvNS_6ActionIT_EEIFfvEEEv
FNDA:0,_ZNK7testing6ActionIFmhEE7PerformESt5tupleIJhEE
FNDA:5,_ZN7testing8internal12ReturnActionIiE4ImplIiFlvEED0Ev
FNDA:1085,_ZN7testing6ActionIFviEED2Ev
FNDA:255,_ZN7testing6ActionIFbvEEC2Ev
FNDA:80,_ZNK7testing6ActionIFlvEE11IsDoDefaultEv
FNDA:2115,_ZN7testing8internal12ReturnActionIiE4ImplIiFivEEC2ERKSt10shared_ptrIiE
FNDA:5,_ZN7testing8internal12ReturnActionIiE4ImplIiFmvEED0Ev
FNDA:10,_ZN7testing8internal12ReturnActionIiE4ImplIiFlvEE7PerformERKSt5tupleIJEE
FNDA:5890,_ZN7testing12DefaultValueIvE6ExistsEv
FNDA:5,_ZN7testing8internal12ReturnActionIjE4ImplIjFjvEEC2ERKSt10shared_ptrIjE
FNDA:2115,_ZNK7testing8internal12ReturnActionIiEcvNS_6ActionIT_EEIFivEEEv
FNDA:25,_ZN7testing17InvokeWithoutArgsIZN31DirectionalOdometerAttachedTest5SetUpEvEUlvE0_EENS_8internal23InvokeWithoutArgsActionINSt5decayIT_E4typeEEES6_
FNDA:2170,_ZN7testing8internal12ReturnActionIiED2Ev
FNDA:2130,_ZN7testing6ActionIFivEE13ActionAdapterC2EOS3_
FNDA:9125,_ZN7testing6ActionIFihEEC2ERKS2_
FNDA:5,_ZN7testing17InvokeWithoutArgsIZN83GY50AttachedTest_getHeading_WhenTooLowAngularVelocityRead_WillNotUpdateHeading_Test8TestBodyEvEUlvE_EENS_8internal23InvokeWithoutArgsActionINSt5decayIT_E4typeEEES6_
FNDA:20,_ZNK7testing8internal15DoDefaultActioncvNS_6ActionIT_EEIFahEEEv
FNDA:510,_ZN7testing12DefaultValueIbE5IsSetEv
FNDA:0,_ZN7testing15ActionInterfaceIFbvEED0Ev
FNDA:105,_ZN7testing6ActionIFahEE13ActionAdapterclIJhEEEaDpOT_
FNDA:30,_ZN7testing6ActionIFfvEEC2ERKS2_
FNDA:20,_ZNK7testing6ActionIFviiEE11IsDoDefaultEv
FNDA:600,_ZN7testing6ActionIFbvEED2Ev
FNDA:45,_ZN7testing8internal12ReturnActionIiE4ImplIiFihEED0Ev
FNDA:20,_ZN7testing6ActionIFvhiEED2Ev
FNDA:4250,_ZN7testing8internal19BuiltInDefaultValueImE6ExistsEv
FNDA:20,_ZN7testing15ActionInterfaceIFmhhmEED2Ev
FNDA:55,_ZN7testing8internal12ReturnActionIfE4ImplIfFfvEEC2ERKSt10shared_ptrIfE
FNDA:0,_ZN7testing15ActionInterfaceIFmhhmEED0Ev
FNDA:8545,_ZN7testing6ActionIFivEE13ActionAdapterD2Ev
FNDA:200,_ZNK7testing6ActionIFviEE7PerformESt5tupleIJiEE
FNDA:5,_ZN7testing6ActionIFmvEEC2INS_8internal23InvokeWithoutArgsActionIZN83GY50AttachedTest_getHeading_WhenTooLowAngularVelocityRead_WillNotUpdateHeading_Test8TestBodyEvEUlvE_EEvEEOT_
FNDA:0,_ZN7testing6ActionIFvvEEC2ERKS2_
FNDA:40,_ZN7testing12DefaultValueIlE3GetEv
FNDA:2450,_ZN7testing6ActionIFmvEE13ActionAdapterD2Ev
FNDA:5890,_ZN7testing12DefaultValueIvE3GetEv
FNDA:5,_ZN7testing8internal12ReturnActionIiE4ImplIiFmvEE7PerformERKSt5tupleIJEE
FNDA:30,_ZNK7testing8internal15DoDefaultActioncvNS_6ActionIT_EEIFmhhmEEEv
FNDA:615,_ZN7testing6ActionIFmvEE13ActionAdapterC2EOS3_
FNDA:5215,_ZN7testing6ActionIFivEE13ActionAdapterclIJEEEiDpOT_
FNDA:140,_ZNK7testing8internal15DoDefaultActioncvNS_6ActionIT_EEIFmhEEEv
FNDA:420,_ZN7testing8internal12ReturnActionIfE4ImplIfFfvEE7PerformERKSt5tupleIJEE
FNDA:5,_ZN7testing6ActionIFjvEEC2EPNS_15ActionInterfaceIS1_EE
FNDA:1200,_ZN7testing6ActionIFmvEEC2ERKS2_
FNDA:105,_ZN7testing8internal12ReturnActionIaEC2Ea
FNDA:0,_ZN7testing15ActionInterfaceIFmvEED0Ev
FNDA:5,_ZN7testing6ActionIFvmEEC2Ev
FNDA:200,_ZN7testing15ActionInterfaceIFviEED2Ev
FNDA:5,_ZNK7testing6ActionIFvhPFvvEiEE7PerformESt5tupleIJhS2_iEE
FNDA:15,_ZN7testing6ActionIFvhEEC2Ev
FNDA:10,_ZN7testing8internal12ReturnActionIhE4ImplIhFihEED0Ev
FNDA:0,_ZN7testing15ActionInterfaceIFahEED0Ev
FNDA:0,_ZN7testing8internal19BuiltInDefaultValueIfE3GetEv
FNDA:40,_ZN7testing8internal19BuiltInDefaultValueIlE3GetEv
FNDA:250,_ZN7testing8internal12ReturnActionIbED2Ev
FNDA:10,_ZNK7testing8internal12ReturnActionIhEcvNS_6ActionIT_EEIFihEEEv
FNDA:255,_ZN7testing12DefaultValueIiE6ExistsEv
FNDA:755,_ZN7testing6ActionIFbvEE13ActionAdapterD2Ev
FNDA:255,_ZN7testing8internal19BuiltInDefaultValueIiE3GetEv
FNDA:10,_ZN7testing8internal12ReturnActionIhE4ImplIhFihEEC2ERKSt10shared_ptrIhE
FNDA:5,_ZNK7testing8internal12ReturnActionIjEcvNS_6ActionIT_EEIFjvEEEv
FNDA:40,_ZN7testing6ActionIFahEEC2ERKS2_
FNDA:5,_ZN7testing8internal12ReturnActionIiE4ImplIiFmvEEC2ERKSt10shared_ptrIiE
FNDA:5,_ZNK7testing6ActionIFjvEE7PerformESt5tupleIJEE
FNDA:105,_ZN7testing8internal12ReturnActionIaE4ImplIaFahEEC2ERKSt10shared_ptrIaE
FNDA:0,_ZN7testing15ActionInterfaceIFivEED0Ev
FNDA:35,_ZN7testing6ActionIFviiEEC2Ev
FNDA:55,_ZN7testing8internal12ReturnActionIfE4ImplIfFfvEED2Ev
FNDA:15,_ZN7testing8internal12ReturnActionIhE4ImplIhFivEED2Ev
FNDA:2115,_ZN7testing8internal12ReturnActionIiE4ImplIiFivEED2Ev
FNDA:140,_ZN7testing6ActionIFmhEED2Ev
FNDA:1105,_ZNK7testing8internal15DoDefaultActioncvNS_6ActionIT_EEIFivEEEv
FNDA:235,_ZN7testing6ActionIFbvEE13ActionAdapterC2EOS3_
FNDA:150,_ZN7testing6ActionIFfvEED2Ev
FNDA:20,_ZN7testing6ActionIFlvEEC2EPNS_15ActionInterfaceIS1_EE
FNDA:75,_ZN7testing6ActionIFmvEEaSERKS2_
FNDA:55,_ZNK7testing6ActionIFhvEE11IsDoDefaultEv
FNDA:20,_ZN7testing6ActionIFihEEaSERKS2_
FNDA:5,_ZNK7testing8internal15DoDefaultActioncvNS_6ActionIT_EEIFvmEEEv
FNDA:620,_ZN7testing6ActionIFmvEE13ActionAdapterclIJEEEmDpOT_
FNDA:645,_ZN7testing8internal12ReturnActionImED2Ev
FNDA:510,_ZN7testing8internal19BuiltInDefaultValueIbE3GetEv
FNDA:105,_ZN7testing15ActionInterfaceIFahEED2Ev
FNDA:2995,_ZN7testing9DoDefaultEv
FNDA:2580,_ZN7testing6ActionIFmvEED2Ev
FNDA:45,_ZN7testing6ActionIFvvEED2Ev
FNDA:5,_ZN7testing8internal12ReturnActionIiE4ImplIiFlvEED2Ev
FNDA:15,_ZN7testing8internal12ReturnActionIhE4ImplIhFivEE7PerformERKSt5tupleIJEE
FNDA:25,_ZN7testing6ReturnIhEENS_8internal12ReturnActionIT_EES3_
FNDA:55,_ZN7testing15ActionInterfaceIFfvEEC2Ev
FNDA:10,_ZN7testing6ActionIFvhPFvvEiEEC2ERKS4_
FNDA:25,_ZNK7testing6ActionIFhhhEE11IsDoDefaultEv
FNDA:0,_ZN7testing15ActionInterfaceIFviEED0Ev
FNDA:420,_ZNK7testing6ActionIFfvEE7PerformESt5tupleIJEE
FNDA:5,_ZN7testing8internal12ReturnActionIjEC2Ej
FNDA:30,_ZN7testing8internal19BuiltInDefaultValueIjE6ExistsEv
FNDA:0,_ZN7testing15ActionInterfaceIFihEED0Ev
FNDA:125,_ZN7testing6ActionIFahEE13ActionAdapterC2ERKS3_
FNDA:6215,_ZNK7testing6ActionIFivEE7PerformESt5tupleIJEE
FNDA:35,_ZNK7testing8internal15DoDefaultActioncvNS_6ActionIT_EEIFviiEEEv
FNDA:70,_ZN7testing15ActionInterfaceIFihEED2Ev
FNDA:90,_ZN7testing6ActionIFlvEE13ActionAdapterD2Ev
FNDA:615,_ZN7testing15ActionInterfaceIFmvEEC2Ev
FNDA:5,_ZN7testing6ActionIFvhiiEEC2Ev
FNDA:20,_ZN7testing6ActionIFmhhmEEC2EPNS_15ActionInterfaceIS1_EE
FNDA:5,_ZN7testing6ActionIFvhPFvvEiEEC2EPNS_15ActionInterfaceIS3_EE
FNDA:5,_ZN7testing6ActionIFivEEC2INS_8internal23InvokeWithoutArgsActionIZN78GY50BasicTest_getOffset_WhenCalled_WillReturnCorrectAverageOfMeasurements_Test8TestBodyEvEUlvE_EEvEEOT_
FNDA:45,_ZN7testing8internal12ReturnActionIiE4ImplIiFihEED2Ev
FNDA:15,_ZN7testing8internal12ReturnActionImE4ImplImFlvEEC2ERKSt10shared_ptrImE
FNDA:70,_ZN7testing6ActionIFihEEC2EPNS_15ActionInterfaceIS1_EE
FNDA:5,_ZN7testing8internal12ReturnActionIjE4ImplIjFjvEED0Ev
FNDA:2170,_ZN7testing6ReturnIiEENS_8internal12ReturnActionIT_EES3_
FNDA:5,_ZNK7testing8internal12ReturnActionIiEcvNS_6ActionIT_EEIFlvEEEv
FNDA:50,_ZNK7testing6ActionIFvmEE11IsDoDefaultEv
FNDA:0,_ZNK7testing6ActionIFvvEE7PerformESt5tupleIJEE
FNDA:65,_ZN7testing6ActionIFfvEEC2Ev
FNDA:0,_ZNK7testing6ActionIFvmEE7PerformESt5tupleIJmEE
FNDA:90,_ZN7testing6ActionIFmhhmEED2Ev
FNDA:5,_ZN7testing15ActionInterfaceIFjvEED2Ev
FNDA:0,_ZN7testing15ActionInterfaceIFfvEED0Ev
FNDA:10,_ZN7testing8internal12ReturnActionIhE4ImplIhFihEED2Ev
FNDA:1000,_ZN7testing8internal23InvokeWithoutArgsActionIZN78GY50BasicTest_getOffset_WhenCalled_WillReturnCorrectAverageOfMeasurements_Test8TestBodyEvEUlvE_EclIJEEEiDpRKT_
FNDA:5,_ZN7testing6ActionIFvhiiEED2Ev
FNDA:40,_ZN7testing6ActionIFmhhmEE13ActionAdapterC2ERKS3_
FNDA:55,_ZN7testing8internal12ReturnActionIfEC2Ef
FNDA:615,_ZN7testing6ActionIFmvEEC2EPNS_15ActionInterfaceIS1_EE
FNDA:5,_ZN7testing8internal12ReturnActionIjE4ImplIjFjvEE7PerformERKSt5tupleIJEE
FNDA:9275,_ZN7testing6ActionIFihEED2Ev
FNDA:1420,_ZN7testing8internal12ReturnActionIbE4ImplIbFbvEE7PerformERKSt5tupleIJEE
FNDA:0,_ZN7testing6ActionIFhhhEEC2ERKS2_
FNDA:645,_ZN7testing6ReturnImEENS_8internal12ReturnActionIT_EES3_
FNDA:185,_ZN7testing6ActionIFfvEE13ActionAdapterD2Ev
FNF:379
FNH:336
DA:146,1020
DA:147,14030
DA:148,0
DA:163,60
DA:164,510
DA:165,8500
DA:166,80
DA:169,0
DA:215,12100
DA:219,12100
DA:220,12100
DA:226,12100
DA:227,0
DA:228,12100
DA:301,5890
DA:302,5890
DA:320,3460
DA:321,3460
DA:341,39865
DA:344,37660
DA:349,15110
DA:350,15110
DA:351,15110
DA:361,3390
DA:369,65
DA:372,3460
DA:373,3460
DA:382,42990
DA:390,28325
DA:391,28325
DA:392,0
DA:394,28325
DA:517,3255
DA:522,3255
DA:527,3255
DA:542,3255
DA:548,6510
DA:560,3255
DA:561,3255
DA:562,6510
DA:564,14905
DA:727,2995
DA:844,13215
DA:845,13215
DA:1041,3255
DA:1042,3255
DA:1079,2995
DA:1080,2995
DA:1160,65
DA:1161,65
LF:50
LH:46
end_of_record
TN:
SF:/home/travis/build/platisd/smartcar_shield/test/build/googletest-src/googlemock/include/gmock/gmock-cardinalities.h
FN:64,_ZN7testing20CardinalityInterfaceC2Ev
FN:66,_ZN7testing20CardinalityInterfaceD2Ev
FN:66,_ZN7testing20CardinalityInterfaceD0Ev
FN:70,_ZNK7testing20CardinalityInterface22ConservativeLowerBoundEv
FN:71,_ZNK7testing20CardinalityInterface22ConservativeUpperBoundEv
FN:87,_ZN7testing11CardinalityD2Ev
FN:87,_ZN7testing11CardinalityaSERKS0_
FN:94,_ZN7testing11CardinalityC2EPKNS_20CardinalityInterfaceE
FN:98,_ZNK7testing11Cardinality22ConservativeLowerBoundEv
FN:99,_ZNK7testing11Cardinality22ConservativeUpperBoundEv
FN:102,_ZNK7testing11Cardinality22IsSatisfiedByCallCountEi
FN:107,_ZNK7testing11Cardinality22IsSaturatedByCallCountEi
FN:113,_ZNK7testing11Cardinality26IsOverSaturatedByCallCountEi
FN:119,_ZNK7testing11Cardinality10DescribeToEPSo
FNDA:2800,_ZNK7testing11Cardinality22ConservativeLowerBoundEv
FNDA:28540,_ZNK7testing11Cardinality22IsSaturatedByCallCountEi
FNDA:0,_ZNK7testing20CardinalityInterface22ConservativeUpperBoundEv
FNDA:44555,_ZN7testing20CardinalityInterfaceC2Ev
FNDA:0,_ZNK7testing20CardinalityInterface22ConservativeLowerBoundEv
FNDA:0,_ZNK7testing11Cardinality10DescribeToEPSo
FNDA:20965,_ZNK7testing11Cardinality26IsOverSaturatedByCallCountEi
FNDA:26145,_ZNK7testing11Cardinality22IsSatisfiedByCallCountEi
FNDA:8375,_ZN7testing11CardinalityD2Ev
FNDA:44555,_ZN7testing11CardinalityC2EPKNS_20CardinalityInterfaceE
FNDA:3430,_ZN7testing11CardinalityaSERKS0_
FNDA:44555,_ZN7testing20CardinalityInterfaceD2Ev
FNDA:2800,_ZNK7testing11Cardinality22ConservativeUpperBoundEv
FNDA:0,_ZN7testing20CardinalityInterfaceD0Ev
FNF:14
FNH:10
DA:64,44555
DA:66,44555
DA:70,0
DA:71,0
DA:87,11805
DA:94,44555
DA:98,2800
DA:99,2800
DA:102,26145
DA:103,26145
DA:107,28540
DA:108,28540
DA:113,20965
DA:114,41475
DA:115,41475
DA:119,0
LF:16
LH:13
end_of_record
TN:
SF:/home/travis/build/platisd/smartcar_shield/test/build/googletest-src/googlemock/include/gmock/gmock-generated-actions.h
FN:81,_ZN7testing8internal12ActionHelperIvNS_14SaveArgActionPILi0EPiE10gmock_ImplIFviEEEE7PerformIiEEvPS7_RKSt5tupleIJT_EE
FN:97,_ZN7testing8internal12ActionHelperIvNS_14SaveArgActionPILi1EPPFvvEE10gmock_ImplIFvhS4_iEEEE7PerformIhS4_iEEvPS9_RKSt5tupleIJT_T0_T1_EE
FNDA:5,_ZN7testing8internal12ActionHelperIvNS_14SaveArgActionPILi1EPPFvvEE10gmock_ImplIFvhS4_iEEEE7PerformIhS4_iEEvPS9_RKSt5tupleIJT_T0_T1_EE
FNDA:200,_ZN7testing8internal12ActionHelperIvNS_14SaveArgActionPILi0EPiE10gmock_ImplIFviEEEE7PerformIiEEvPS7_RKSt5tupleIJT_EE
FNF:2
FNH:2
DA:81,200
DA:82,200
DA:85,200
DA:97,5
DA:99,15
DA:101,15
LF:6
LH:6
end_of_record
TN:
SF:/home/travis/build/platisd/smartcar_shield/test/build/googletest-src/googlemock/include/gmock/gmock-matchers.h
FN:81,_ZN7testing25StringMatchResultListenerD2Ev
FN:81,_ZN7testing25StringMatchResultListenerD0Ev
FN:83,_ZN7testing25StringMatchResultListenerC2Ev
FN:86,_ZNK7testing25StringMatchResultListener3strEv
FN:306,_ZN7testing8internal15PrintIfNotEmptyERKSsPSo
FN:360,_ZN7testing8internal11TuplePrefixILm1EE7MatchesISt5tupleIJNS_7MatcherIhEENS5_IiEES7_EES4_IJhiiEEEEbRKT_RKT0_
FN:360,_ZN7testing8internal11TuplePrefixILm3EE7MatchesISt5tupleIJNS_7MatcherIhEENS5_IPFvvEEENS5_IiEEEES4_IJhS8_iEEEEbRKT_RKT0_
FN:360,_ZN7testing8internal11TuplePrefixILm2EE7MatchesISt5tupleIJNS_7MatcherIhEENS5_IiEES7_EES4_IJhiiEEEEbRKT_RKT0_
FN:360,_ZN7testing8internal11TuplePrefixILm3EE7MatchesISt5tupleIJNS_7MatcherIhEES6_NS5_ImEEEES4_IJhhmEEEEbRKT_RKT0_
FN:360,_ZN7testing8internal11TuplePrefixILm2EE7MatchesISt5tupleIJNS_7MatcherIiEES6_EES4_IJiiEEEEbRKT_RKT0_
FN:360,_ZN7testing8internal11TuplePrefixILm1EE7MatchesISt5tupleIJNS_7MatcherIiEEEES4_IJiEEEEbRKT_RKT0_
FN:360,_ZN7testing8internal11TuplePrefixILm1EE7MatchesISt5tupleIJNS_7MatcherIiEES6_EES4_IJiiEEEEbRKT_RKT0_
FN:360,_ZN7testing8internal11TuplePrefixILm2EE7MatchesISt5tupleIJNS_7MatcherIhEES6_NS5_ImEEEES4_IJhhmEEEEbRKT_RKT0_
FN:360,_ZN7testing8internal11TuplePrefixILm1EE7MatchesISt5tupleIJNS_7MatcherIhEENS5_IPFvvEEENS5_IiEEEES4_IJhS8_iEEEEbRKT_RKT0_
FN:360,_ZN7testing8internal11TuplePrefixILm2EE7MatchesISt5tupleIJNS_7MatcherIhEES6_EES4_IJhhEEEEbRKT_RKT0_
FN:360,_ZN7testing8internal11TuplePrefixILm1EE7MatchesISt5tupleIJNS_7MatcherIhEENS5_IiEEEES4_IJhiEEEEbRKT_RKT0_
FN:360,_ZN7testing8internal11TuplePrefixILm2EE7MatchesISt5tupleIJNS_7MatcherIhEENS5_IiEEEES4_IJhiEEEEbRKT_RKT0_
FN:360,_ZN7testing8internal11TuplePrefixILm3EE7MatchesISt5tupleIJNS_7MatcherIhEENS5_IiEES7_EES4_IJhiiEEEEbRKT_RKT0_
FN:360,_ZN7testing8internal11TuplePrefixILm2EE7MatchesISt5tupleIJNS_7MatcherIhEENS5_IPFvvEEENS5_IiEEEES4_IJhS8_iEEEEbRKT_RKT0_
FN:360,_ZN7testing8internal11TuplePrefixILm1EE7MatchesISt5tupleIJNS_7MatcherIhEEEES4_IJhEEEEbRKT_RKT0_
FN:360,_ZN7testing8internal11TuplePrefixILm1EE7MatchesISt5tupleIJNS_7MatcherIhEES6_EES4_IJhhEEEEbRKT_RKT0_
FN:360,_ZN7testing8internal11TuplePrefixILm1EE7MatchesISt5tupleIJNS_7MatcherIjEEEES4_IJjEEEEbRKT_RKT0_
FN:360,_ZN7testing8internal11TuplePrefixILm1EE7MatchesISt5tupleIJNS_7MatcherImEEEES4_IJmEEEEbRKT_RKT0_
FN:360,_ZN7testing8internal11TuplePrefixILm1EE7MatchesISt5tupleIJNS_7MatcherIhEES6_NS5_ImEEEES4_IJhhmEEEEbRKT_RKT0_
FN:371,_ZN7testing8internal11TuplePrefixILm3EE22ExplainMatchFailuresToISt5tupleIJNS_7MatcherIhEENS5_IiEES7_EES4_IJhiiEEEEvRKT_RKT0_PSo
FN:371,_ZN7testing8internal11TuplePrefixILm3EE22ExplainMatchFailuresToISt5tupleIJNS_7MatcherIhEES6_NS5_ImEEEES4_IJhhmEEEEvRKT_RKT0_PSo
FN:371,_ZN7testing8internal11TuplePrefixILm1EE22ExplainMatchFailuresToISt5tupleIJNS_7MatcherIhEES6_EES4_IJhhEEEEvRKT_RKT0_PSo
FN:371,_ZN7testing8internal11TuplePrefixILm2EE22ExplainMatchFailuresToISt5tupleIJNS_7MatcherIhEENS5_IiEES7_EES4_IJhiiEEEEvRKT_RKT0_PSo
FN:371,_ZN7testing8internal11TuplePrefixILm1EE22ExplainMatchFailuresToISt5tupleIJNS_7MatcherIhEENS5_IPFvvEEENS5_IiEEEES4_IJhS8_iEEEEvRKT_RKT0_PSo
FN:371,_ZN7testing8internal11TuplePrefixILm1EE22ExplainMatchFailuresToISt5tupleIJNS_7MatcherIiEES6_EES4_IJiiEEEEvRKT_RKT0_PSo
FN:371,_ZN7testing8internal11TuplePrefixILm2EE22ExplainMatchFailuresToISt5tupleIJNS_7MatcherIhEES6_EES4_IJhhEEEEvRKT_RKT0_PSo
FN:371,_ZN7testing8internal11TuplePrefixILm1EE22ExplainMatchFailuresToISt5tupleIJNS_7MatcherIhEES6_NS5_ImEEEES4_IJhhmEEEEvRKT_RKT0_PSo
FN:371,_ZN7testing8internal11TuplePrefixILm1EE22ExplainMatchFailuresToISt5tupleIJNS_7MatcherIhEEEES4_IJhEEEEvRKT_RKT0_PSo
FN:371,_ZN7testing8internal11TuplePrefixILm2EE22ExplainMatchFailuresToISt5tupleIJNS_7MatcherIhEENS5_IiEEEES4_IJhiEEEEvRKT_RKT0_PSo
FN:371,_ZN7testing8internal11TuplePrefixILm1EE22ExplainMatchFailuresToISt5tupleIJNS_7MatcherIjEEEES4_IJjEEEEvRKT_RKT0_PSo
FN:371,_ZN7testing8internal11TuplePrefixILm1EE22ExplainMatchFailuresToISt5tupleIJNS_7MatcherImEEEES4_IJmEEEEvRKT_RKT0_PSo
FN:371,_ZN7testing8internal11TuplePrefixILm1EE22ExplainMatchFailuresToISt5tupleIJNS_7MatcherIhEENS5_IiEEEES4_IJhiEEEEvRKT_RKT0_PSo
FN:371,_ZN7testing8internal11TuplePrefixILm1EE22ExplainMatchFailuresToISt5tupleIJNS_7MatcherIhEENS5_IiEES7_EES4_IJhiiEEEEvRKT_RKT0_PSo
FN:371,_ZN7testing8internal11TuplePrefixILm2EE22ExplainMatchFailuresToISt5tupleIJNS_7MatcherIhEENS5_IPFvvEEENS5_IiEEEES4_IJhS8_iEEEEvRKT_RKT0_PSo
FN:371,_ZN7testing8internal11TuplePrefixILm2EE22ExplainMatchFailuresToISt5tupleIJNS_7MatcherIiEES6_EES4_IJiiEEEEvRKT_RKT0_PSo
FN:371,_ZN7testing8internal11TuplePrefixILm3EE22ExplainMatchFailuresToISt5tupleIJNS_7MatcherIhEENS5_IPFvvEEENS5_IiEEEES4_IJhS8_iEEEEvRKT_RKT0_PSo
FN:371,_ZN7testing8internal11TuplePrefixILm2EE22ExplainMatchFailuresToISt5tupleIJNS_7MatcherIhEES6_NS5_ImEEEES4_IJhhmEEEEvRKT_RKT0_PSo
FN:371,_ZN7testing8internal11TuplePrefixILm1EE22ExplainMatchFailuresToISt5tupleIJNS_7MatcherIiEEEES4_IJiEEEEvRKT_RKT0_PSo
FN:405,_ZN7testing8internal11TuplePrefixILm0EE7MatchesISt5tupleIJNS_7MatcherImEEEES4_IJmEEEEbRKT_RKT0_
FN:405,_ZN7testing8internal11TuplePrefixILm0EE7MatchesISt5tupleIJNS_7MatcherIiEES6_EES4_IJiiEEEEbRKT_RKT0_
FN:405,_ZN7testing8internal11TuplePrefixILm0EE7MatchesISt5tupleIJEES5_EEbRKT_RKT0_
FN:405,_ZN7testing8internal11TuplePrefixILm0EE7MatchesISt5tupleIJNS_7MatcherIhEES6_NS5_ImEEEES4_IJhhmEEEEbRKT_RKT0_
FN:405,_ZN7testing8internal11TuplePrefixILm0EE7MatchesISt5tupleIJNS_7MatcherIhEES6_EES4_IJhhEEEEbRKT_RKT0_
FN:405,_ZN7testing8internal11TuplePrefixILm0EE7MatchesISt5tupleIJNS_7MatcherIhEENS5_IiEES7_EES4_IJhiiEEEEbRKT_RKT0_
FN:405,_ZN7testing8internal11TuplePrefixILm0EE7MatchesISt5tupleIJNS_7MatcherIjEEEES4_IJjEEEEbRKT_RKT0_
FN:405,_ZN7testing8internal11TuplePrefixILm0EE7MatchesISt5tupleIJNS_7MatcherIhEENS5_IiEEEES4_IJhiEEEEbRKT_RKT0_
FN:405,_ZN7testing8internal11TuplePrefixILm0EE7MatchesISt5tupleIJNS_7MatcherIhEEEES4_IJhEEEEbRKT_RKT0_
FN:405,_ZN7testing8internal11TuplePrefixILm0EE7MatchesISt5tupleIJNS_7MatcherIiEEEES4_IJiEEEEbRKT_RKT0_
FN:405,_ZN7testing8internal11TuplePrefixILm0EE7MatchesISt5tupleIJNS_7MatcherIhEENS5_IPFvvEEENS5_IiEEEES4_IJhS8_iEEEEbRKT_RKT0_
FN:411,_ZN7testing8internal11TuplePrefixILm0EE22ExplainMatchFailuresToISt5tupleIJNS_7MatcherImEEEES4_IJmEEEEvRKT_RKT0_PSo
FN:411,_ZN7testing8internal11TuplePrefixILm0EE22ExplainMatchFailuresToISt5tupleIJNS_7MatcherIiEES6_EES4_IJiiEEEEvRKT_RKT0_PSo
FN:411,_ZN7testing8internal11TuplePrefixILm0EE22ExplainMatchFailuresToISt5tupleIJNS_7MatcherIhEES6_EES4_IJhhEEEEvRKT_RKT0_PSo
FN:411,_ZN7testing8internal11TuplePrefixILm0EE22ExplainMatchFailuresToISt5tupleIJNS_7MatcherIiEEEES4_IJiEEEEvRKT_RKT0_PSo
FN:411,_ZN7testing8internal11TuplePrefixILm0EE22ExplainMatchFailuresToISt5tupleIJNS_7MatcherIjEEEES4_IJjEEEEvRKT_RKT0_PSo
FN:411,_ZN7testing8internal11TuplePrefixILm0EE22ExplainMatchFailuresToISt5tupleIJNS_7MatcherIhEENS5_IiEES7_EES4_IJhiiEEEEvRKT_RKT0_PSo
FN:411,_ZN7testing8internal11TuplePrefixILm0EE22ExplainMatchFailuresToISt5tupleIJNS_7MatcherIhEENS5_IiEEEES4_IJhiEEEEvRKT_RKT0_PSo
FN:411,_ZN7testing8internal11TuplePrefixILm0EE22ExplainMatchFailuresToISt5tupleIJNS_7MatcherIhEENS5_IPFvvEEENS5_IiEEEES4_IJhS8_iEEEEvRKT_RKT0_PSo
FN:411,_ZN7testing8internal11TuplePrefixILm0EE22ExplainMatchFailuresToISt5tupleIJNS_7MatcherIhEES6_NS5_ImEEEES4_IJhhmEEEEvRKT_RKT0_PSo
FN:411,_ZN7testing8internal11TuplePrefixILm0EE22ExplainMatchFailuresToISt5tupleIJNS_7MatcherIhEEEES4_IJhEEEEvRKT_RKT0_PSo
FN:411,_ZN7testing8internal11TuplePrefixILm0EE22ExplainMatchFailuresToISt5tupleIJEES5_EEvRKT_RKT0_PSo
FN:422,_ZN7testing8internal12TupleMatchesISt5tupleIJNS_7MatcherIhEENS3_IiEEEES2_IJhiEEEEbRKT_RKT0_
FN:422,_ZN7testing8internal12TupleMatchesISt5tupleIJNS_7MatcherIhEES4_NS3_ImEEEES2_IJhhmEEEEbRKT_RKT0_
FN:422,_ZN7testing8internal12TupleMatchesISt5tupleIJNS_7MatcherIjEEEES2_IJjEEEEbRKT_RKT0_
FN:422,_ZN7testing8internal12TupleMatchesISt5tupleIJNS_7MatcherIhEENS3_IPFvvEEENS3_IiEEEES2_IJhS6_iEEEEbRKT_RKT0_
FN:422,_ZN7testing8internal12TupleMatchesISt5tupleIJNS_7MatcherImEEEES2_IJmEEEEbRKT_RKT0_
FN:422,_ZN7testing8internal12TupleMatchesISt5tupleIJNS_7MatcherIiEES4_EES2_IJiiEEEEbRKT_RKT0_
FN:422,_ZN7testing8internal12TupleMatchesISt5tupleIJNS_7MatcherIhEES4_EES2_IJhhEEEEbRKT_RKT0_
FN:422,_ZN7testing8internal12TupleMatchesISt5tupleIJNS_7MatcherIhEEEES2_IJhEEEEbRKT_RKT0_
FN:422,_ZN7testing8internal12TupleMatchesISt5tupleIJEES3_EEbRKT_RKT0_
FN:422,_ZN7testing8internal12TupleMatchesISt5tupleIJNS_7MatcherIhEENS3_IiEES5_EES2_IJhiiEEEEbRKT_RKT0_
FN:422,_ZN7testing8internal12TupleMatchesISt5tupleIJNS_7MatcherIiEEEES2_IJiEEEEbRKT_RKT0_
FN:436,_ZN7testing8internal26ExplainMatchFailureTupleToISt5tupleIJNS_7MatcherIhEENS3_IiEES5_EES2_IJhiiEEEEvRKT_RKT0_PSo
FN:436,_ZN7testing8internal26ExplainMatchFailureTupleToISt5tupleIJNS_7MatcherIhEES4_EES2_IJhhEEEEvRKT_RKT0_PSo
FN:436,_ZN7testing8internal26ExplainMatchFailureTupleToISt5tupleIJNS_7MatcherIhEES4_NS3_ImEEEES2_IJhhmEEEEvRKT_RKT0_PSo
FN:436,_ZN7testing8internal26ExplainMatchFailureTupleToISt5tupleIJNS_7MatcherIiEES4_EES2_IJiiEEEEvRKT_RKT0_PSo
FN:436,_ZN7testing8internal26ExplainMatchFailureTupleToISt5tupleIJNS_7MatcherIhEENS3_IiEEEES2_IJhiEEEEvRKT_RKT0_PSo
FN:436,_ZN7testing8internal26ExplainMatchFailureTupleToISt5tupleIJEES3_EEvRKT_RKT0_PSo
FN:436,_ZN7testing8internal26ExplainMatchFailureTupleToISt5tupleIJNS_7MatcherIjEEEES2_IJjEEEEvRKT_RKT0_PSo
FN:436,_ZN7testing8internal26ExplainMatchFailureTupleToISt5tupleIJNS_7MatcherIhEEEES2_IJhEEEEvRKT_RKT0_PSo
FN:436,_ZN7testing8internal26ExplainMatchFailureTupleToISt5tupleIJNS_7MatcherIiEEEES2_IJiEEEEvRKT_RKT0_PSo
FN:436,_ZN7testing8internal26ExplainMatchFailureTupleToISt5tupleIJNS_7MatcherIhEENS3_IPFvvEEENS3_IiEEEES2_IJhS6_iEEEEvRKT_RKT0_PSo
FN:436,_ZN7testing8internal26ExplainMatchFailureTupleToISt5tupleIJNS_7MatcherImEEEES2_IJmEEEEvRKT_RKT0_PSo
FN:485,_ZN7testing8internal14AnyMatcherImplIRKSt5tupleIJiiEEEC2Ev
FN:485,_ZN7testing8internal14AnyMatcherImplImEC2Ev
FN:485,_ZN7testing8internal14AnyMatcherImplIRKSt5tupleIJiEEEC2Ev
FN:485,_ZN7testing8internal14AnyMatcherImplIRKSt5tupleIJhhEEED0Ev
FN:485,_ZN7testing8internal14AnyMatcherImplIRKSt5tupleIJhPFvvEiEEED2Ev
FN:485,_ZN7testing8internal14AnyMatcherImplIRKSt5tupleIJEEED2Ev
FN:485,_ZN7testing8internal14AnyMatcherImplIRKSt5tupleIJhhEEEC2Ev
FN:485,_ZN7testing8internal14AnyMatcherImplIRKSt5tupleIJhiiEEEC2Ev
FN:485,_ZN7testing8internal14AnyMatcherImplIRKSt5tupleIJhEEED0Ev
FN:485,_ZN7testing8internal14AnyMatcherImplIRKSt5tupleIJhhmEEEC2Ev
FN:485,_ZN7testing8internal14AnyMatcherImplIRKSt5tupleIJmEEED2Ev
FN:485,_ZN7testing8internal14AnyMatcherImplIRKSt5tupleIJhiEEED2Ev
FN:485,_ZN7testing8internal14AnyMatcherImplIRKSt5tupleIJhPFvvEiEEEC2Ev
FN:485,_ZN7testing8internal14AnyMatcherImplIRKSt5tupleIJiiEEED0Ev
FN:485,_ZN7testing8internal14AnyMatcherImplIRKSt5tupleIJjEEEC2Ev
FN:485,_ZN7testing8internal14AnyMatcherImplIRKSt5tupleIJhiiEEED0Ev
FN:485,_ZN7testing8internal14AnyMatcherImplIiED0Ev
FN:485,_ZN7testing8internal14AnyMatcherImplIRKSt5tupleIJhhEEED2Ev
FN:485,_ZN7testing8internal14AnyMatcherImplImED0Ev
FN:485,_ZN7testing8internal14AnyMatcherImplIRKSt5tupleIJiEEED0Ev
FN:485,_ZN7testing8internal14AnyMatcherImplIRKSt5tupleIJmEEEC2Ev
FN:485,_ZN7testing8internal14AnyMatcherImplIRKSt5tupleIJhiEEED0Ev
FN:485,_ZN7testing8internal14AnyMatcherImplIRKSt5tupleIJhhmEEED0Ev
FN:485,_ZN7testing8internal14AnyMatcherImplIRKSt5tupleIJjEEED0Ev
FN:485,_ZN7testing8internal14AnyMatcherImplIRKSt5tupleIJjEEED2Ev
FN:485,_ZN7testing8internal14AnyMatcherImplIPFvvEED2Ev
FN:485,_ZN7testing8internal14AnyMatcherImplIhEC2Ev
FN:485,_ZN7testing8internal14AnyMatcherImplIRKSt5tupleIJmEEED0Ev
FN:485,_ZN7testing8internal14AnyMatcherImplIhED2Ev
FN:485,_ZN7testing8internal14AnyMatcherImplImED2Ev
FN:485,_ZN7testing8internal14AnyMatcherImplIPFvvEED0Ev
FN:485,_ZN7testing8internal14AnyMatcherImplIRKSt5tupleIJhPFvvEiEEED0Ev
FN:485,_ZN7testing8internal14AnyMatcherImplIRKSt5tupleIJEEED0Ev
FN:485,_ZN7testing8internal14AnyMatcherImplIRKSt5tupleIJiiEEED2Ev
FN:485,_ZN7testing8internal14AnyMatcherImplIRKSt5tupleIJiEEED2Ev
FN:485,_ZN7testing8internal14AnyMatcherImplIRKSt5tupleIJhiiEEED2Ev
FN:485,_ZN7testing8internal14AnyMatcherImplIRKSt5tupleIJEEEC2Ev
FN:485,_ZN7testing8internal14AnyMatcherImplIRKSt5tupleIJhiEEEC2Ev
FN:485,_ZN7testing8internal14AnyMatcherImplIRKSt5tupleIJhEEED2Ev
FN:485,_ZN7testing8internal14AnyMatcherImplIhED0Ev
FN:485,_ZN7testing8internal14AnyMatcherImplIiEC2Ev
FN:485,_ZN7testing8internal14AnyMatcherImplIPFvvEEC2Ev
FN:485,_ZN7testing8internal14AnyMatcherImplIRKSt5tupleIJhhmEEED2Ev
FN:485,_ZN7testing8internal14AnyMatcherImplIiED2Ev
FN:485,_ZN7testing8internal14AnyMatcherImplIRKSt5tupleIJhEEEC2Ev
FN:487,_ZNK7testing8internal14AnyMatcherImplIRKSt5tupleIJjEEE15MatchAndExplainES5_PNS_19MatchResultListenerE
FN:487,_ZNK7testing8internal14AnyMatcherImplIPFvvEE15MatchAndExplainERKS3_PNS_19MatchResultListenerE
FN:487,_ZNK7testing8internal14AnyMatcherImplImE15MatchAndExplainERKmPNS_19MatchResultListenerE
FN:487,_ZNK7testing8internal14AnyMatcherImplIRKSt5tupleIJhhEEE15MatchAndExplainES5_PNS_19MatchResultListenerE
FN:487,_ZNK7testing8internal14AnyMatcherImplIRKSt5tupleIJhiEEE15MatchAndExplainES5_PNS_19MatchResultListenerE
FN:487,_ZNK7testing8internal14AnyMatcherImplIRKSt5tupleIJmEEE15MatchAndExplainES5_PNS_19MatchResultListenerE
FN:487,_ZNK7testing8internal14AnyMatcherImplIRKSt5tupleIJhiiEEE15MatchAndExplainES5_PNS_19MatchResultListenerE
FN:487,_ZNK7testing8internal14AnyMatcherImplIRKSt5tupleIJhEEE15MatchAndExplainES5_PNS_19MatchResultListenerE
FN:487,_ZNK7testing8internal14AnyMatcherImplIRKSt5tupleIJiEEE15MatchAndExplainES5_PNS_19MatchResultListenerE
FN:487,_ZNK7testing8internal14AnyMatcherImplIRKSt5tupleIJhhmEEE15MatchAndExplainES5_PNS_19MatchResultListenerE
FN:487,_ZNK7testing8internal14AnyMatcherImplIhE15MatchAndExplainERKhPNS_19MatchResultListenerE
FN:487,_ZNK7testing8internal14AnyMatcherImplIRKSt5tupleIJhPFvvEiEEE15MatchAndExplainES7_PNS_19MatchResultListenerE
FN:487,_ZNK7testing8internal14AnyMatcherImplIiE15MatchAndExplainERKiPNS_19MatchResultListenerE
FN:487,_ZNK7testing8internal14AnyMatcherImplIRKSt5tupleIJEEE15MatchAndExplainES5_PNS_19MatchResultListenerE
FN:487,_ZNK7testing8internal14AnyMatcherImplIRKSt5tupleIJiiEEE15MatchAndExplainES5_PNS_19MatchResultListenerE
FN:491,_ZNK7testing8internal14AnyMatcherImplImE10DescribeToEPSo
FN:491,_ZNK7testing8internal14AnyMatcherImplIRKSt5tupleIJmEEE10DescribeToEPSo
FN:491,_ZNK7testing8internal14AnyMatcherImplIRKSt5tupleIJhiiEEE10DescribeToEPSo
FN:491,_ZNK7testing8internal14AnyMatcherImplIRKSt5tupleIJjEEE10DescribeToEPSo
FN:491,_ZNK7testing8internal14AnyMatcherImplIRKSt5tupleIJiiEEE10DescribeToEPSo
FN:491,_ZNK7testing8internal14AnyMatcherImplIhE10DescribeToEPSo
FN:491,_ZNK7testing8internal14AnyMatcherImplIRKSt5tupleIJiEEE10DescribeToEPSo
FN:491,_ZNK7testing8internal14AnyMatcherImplIiE10DescribeToEPSo
FN:491,_ZNK7testing8internal14AnyMatcherImplIRKSt5tupleIJhhmEEE10DescribeToEPSo
FN:491,_ZNK7testing8internal14AnyMatcherImplIRKSt5tupleIJhEEE10DescribeToEPSo
FN:491,_ZNK7testing8internal14AnyMatcherImplIRKSt5tupleIJhiEEE10DescribeToEPSo
FN:491,_ZNK7testing8internal14AnyMatcherImplIRKSt5tupleIJEEE10DescribeToEPSo
FN:491,_ZNK7testing8internal14AnyMatcherImplIRKSt5tupleIJhPFvvEiEEE10DescribeToEPSo
FN:491,_ZNK7testing8internal14AnyMatcherImplIRKSt5tupleIJhhEEE10DescribeToEPSo
FN:491,_ZNK7testing8internal14AnyMatcherImplIPFvvEE10DescribeToEPSo
FN:492,_ZNK7testing8internal14AnyMatcherImplIRKSt5tupleIJiEEE18DescribeNegationToEPSo
FN:492,_ZNK7testing8internal14AnyMatcherImplIiE18DescribeNegationToEPSo
FN:492,_ZNK7testing8internal14AnyMatcherImplIhE18DescribeNegationToEPSo
FN:492,_ZNK7testing8internal14AnyMatcherImplIRKSt5tupleIJhhmEEE18DescribeNegationToEPSo
FN:492,_ZNK7testing8internal14AnyMatcherImplIRKSt5tupleIJhPFvvEiEEE18DescribeNegationToEPSo
FN:492,_ZNK7testing8internal14AnyMatcherImplIRKSt5tupleIJEEE18DescribeNegationToEPSo
FN:492,_ZNK7testing8internal14AnyMatcherImplImE18DescribeNegationToEPSo
FN:492,_ZNK7testing8internal14AnyMatcherImplIRKSt5tupleIJhEEE18DescribeNegationToEPSo
FN:492,_ZNK7testing8internal14AnyMatcherImplIPFvvEE18DescribeNegationToEPSo
FN:492,_ZNK7testing8internal14AnyMatcherImplIRKSt5tupleIJhiiEEE18DescribeNegationToEPSo
FN:492,_ZNK7testing8internal14AnyMatcherImplIRKSt5tupleIJhhEEE18DescribeNegationToEPSo
FN:492,_ZNK7testing8internal14AnyMatcherImplIRKSt5tupleIJjEEE18DescribeNegationToEPSo
FN:492,_ZNK7testing8internal14AnyMatcherImplIRKSt5tupleIJmEEE18DescribeNegationToEPSo
FN:492,_ZNK7testing8internal14AnyMatcherImplIRKSt5tupleIJiiEEE18DescribeNegationToEPSo
FN:492,_ZNK7testing8internal14AnyMatcherImplIRKSt5tupleIJhiEEE18DescribeNegationToEPSo
FN:507,_ZNK7testing8internal15AnythingMatchercvNS_7MatcherIT_EEIiEEv
FN:507,_ZNK7testing8internal15AnythingMatchercvNS_7MatcherIT_EEImEEv
FN:507,_ZNK7testing8internal15AnythingMatchercvNS_7MatcherIT_EEIPFvvEEEv
FN:507,_ZNK7testing8internal15AnythingMatchercvNS_7MatcherIT_EEIhEEv
FN:2814,_ZNK7testing8internal11MatchMatrix7LhsSizeEv
FN:2815,_ZNK7testing8internal11MatchMatrix7RhsSizeEv
FN:2816,_ZNK7testing8internal11MatchMatrix7HasEdgeEmm
FN:2833,_ZNK7testing8internal11MatchMatrix10SpaceIndexEmm
FN:2893,_ZN7testing8internal35UnorderedElementsAreMatcherImplBase8ElementsEm
FN:2897,_ZNK7testing8internal35UnorderedElementsAreMatcherImplBase11match_flagsEv
FN:3558,_ZN7testing1AIRKSt5tupleIJEEEENS_7MatcherIT_EEv
FN:3558,_ZN7testing1AIRKSt5tupleIJhPFvvEiEEEENS_7MatcherIT_EEv
FN:3558,_ZN7testing1AIhEENS_7MatcherIT_EEv
FN:3558,_ZN7testing1AIiEENS_7MatcherIT_EEv
FN:3558,_ZN7testing1AImEENS_7MatcherIT_EEv
FN:3558,_ZN7testing1AIRKSt5tupleIJhhEEEENS_7MatcherIT_EEv
FN:3558,_ZN7testing1AIRKSt5tupleIJiEEEENS_7MatcherIT_EEv
FN:3558,_ZN7testing1AIRKSt5tupleIJiiEEEENS_7MatcherIT_EEv
FN:3558,_ZN7testing1AIRKSt5tupleIJhEEEENS_7MatcherIT_EEv
FN:3558,_ZN7testing1AIRKSt5tupleIJmEEEENS_7MatcherIT_EEv
FN:3558,_ZN7testing1AIRKSt5tupleIJhhmEEEENS_7MatcherIT_EEv
FN:3558,_ZN7testing1AIRKSt5tupleIJhiEEEENS_7MatcherIT_EEv
FN:3558,_ZN7testing1AIRKSt5tupleIJhiiEEEENS_7MatcherIT_EEv
FN:3558,_ZN7testing1AIRKSt5tupleIJjEEEENS_7MatcherIT_EEv
FN:3558,_ZN7testing1AIPFvvEEENS_7MatcherIT_EEv
FNDA:195,_ZN7testing8internal11TuplePrefixILm2EE7MatchesISt5tupleIJNS_7MatcherIhEES6_EES4_IJhhEEEEbRKT_RKT0_
FNDA:0,_ZN7testing8internal11TuplePrefixILm0EE22ExplainMatchFailuresToISt5tupleIJNS_7MatcherIhEES6_NS5_ImEEEES4_IJhhmEEEEvRKT_RKT0_PSo
FNDA:0,_ZN7testing8internal11TuplePrefixILm0EE22ExplainMatchFailuresToISt5tupleIJNS_7MatcherIhEENS5_IPFvvEEENS5_IiEEEES4_IJhS8_iEEEEvRKT_RKT0_PSo
FNDA:5,_ZN7testing1AIRKSt5tupleIJmEEEENS_7MatcherIT_EEv
FNDA:9625,_ZN7testing8internal11TuplePrefixILm0EE7MatchesISt5tupleIJNS_7MatcherIhEEEES4_IJhEEEEbRKT_RKT0_
FNDA:170,_ZN7testing8internal14AnyMatcherImplIhEC2Ev
FNDA:10,_ZN7testing8internal14AnyMatcherImplIPFvvEED2Ev
FNDA:10,_ZN7testing8internal14AnyMatcherImplImED2Ev
FNDA:170,_ZN7testing8internal14AnyMatcherImplIhED2Ev
FNDA:265,_ZNK7testing8internal14AnyMatcherImplIhE15MatchAndExplainERKhPNS_19MatchResultListenerE
FNDA:485,_ZN7testing8internal11TuplePrefixILm0EE7MatchesISt5tupleIJNS_7MatcherIiEEEES4_IJiEEEEbRKT_RKT0_
FNDA:5,_ZN7testing8internal14AnyMatcherImplIRKSt5tupleIJmEEED0Ev
FNDA:20,_ZN7testing8internal11TuplePrefixILm2EE7MatchesISt5tupleIJNS_7MatcherIhEENS5_IiEEEES4_IJhiEEEEbRKT_RKT0_
FNDA:0,_ZNK7testing8internal14AnyMatcherImplIRKSt5tupleIJmEEE18DescribeNegationToEPSo
FNDA:0,_ZN7testing8internal15PrintIfNotEmptyERKSsPSo
FNDA:10,_ZN7testing8internal14AnyMatcherImplIPFvvEED0Ev
FNDA:170,_ZNK7testing8internal15AnythingMatchercvNS_7MatcherIT_EEIhEEv
FNDA:20,_ZN7testing8internal11TuplePrefixILm1EE7MatchesISt5tupleIJNS_7MatcherIhEENS5_IiEEEES4_IJhiEEEEbRKT_RKT0_
FNDA:5,_ZNK7testing8internal14AnyMatcherImplIRKSt5tupleIJhPFvvEiEEE15MatchAndExplainES7_PNS_19MatchResultListenerE
FNDA:0,_ZN7testing8internal11TuplePrefixILm1EE22ExplainMatchFailuresToISt5tupleIJNS_7MatcherIhEENS5_IiEES7_EES4_IJhiiEEEEvRKT_RKT0_PSo
FNDA:20,_ZN7testing8internal12TupleMatchesISt5tupleIJNS_7MatcherIiEES4_EES2_IJiiEEEEbRKT_RKT0_
FNDA:10,_ZN7testing8internal14AnyMatcherImplIRKSt5tupleIJhPFvvEiEEED0Ev
FNDA:35,_ZN7testing1AIRKSt5tupleIJiiEEEENS_7MatcherIT_EEv
FNDA:0,_ZNK7testing8internal14AnyMatcherImplIRKSt5tupleIJhiiEEE18DescribeNegationToEPSo
FNDA:485,_ZN7testing8internal14AnyMatcherImplIRKSt5tupleIJiEEED0Ev
FNDA:10,_ZNK7testing8internal15AnythingMatchercvNS_7MatcherIT_EEIPFvvEEEv
FNDA:0,_ZNK7testing8internal11MatchMatrix7HasEdgeEmm
FNDA:0,_ZNK7testing8internal14AnyMatcherImplIiE10DescribeToEPSo
FNDA:335,_ZN7testing1AIRKSt5tupleIJhEEEENS_7MatcherIT_EEv
FNDA:50,_ZN7testing8internal12TupleMatchesISt5tupleIJNS_7MatcherImEEEES2_IJmEEEEbRKT_RKT0_
FNDA:0,_ZN7testing8internal11TuplePrefixILm0EE22ExplainMatchFailuresToISt5tupleIJNS_7MatcherIhEENS5_IiEEEES4_IJhiEEEEvRKT_RKT0_PSo
FNDA:30,_ZN7testing8internal14AnyMatcherImplIRKSt5tupleIJjEEED0Ev
FNDA:30,_ZN7testing8internal14AnyMatcherImplIRKSt5tupleIJhhmEEED0Ev
FNDA:70,_ZNK7testing8internal14AnyMatcherImplIRKSt5tupleIJhhmEEE15MatchAndExplainES5_PNS_19MatchResultListenerE
FNDA:20,_ZN7testing8internal14AnyMatcherImplIRKSt5tupleIJhiEEED0Ev
FNDA:30,_ZN7testing8internal11TuplePrefixILm0EE7MatchesISt5tupleIJNS_7MatcherIjEEEES4_IJjEEEEbRKT_RKT0_
FNDA:0,_ZNK7testing8internal14AnyMatcherImplIRKSt5tupleIJjEEE18DescribeNegationToEPSo
FNDA:0,_ZNK7testing8internal14AnyMatcherImplIRKSt5tupleIJhhEEE18DescribeNegationToEPSo
FNDA:5,_ZN7testing8internal14AnyMatcherImplIRKSt5tupleIJmEEEC2Ev
FNDA:0,_ZN7testing8internal35UnorderedElementsAreMatcherImplBase8ElementsEm
FNDA:5,_ZN7testing8internal11TuplePrefixILm1EE7MatchesISt5tupleIJNS_7MatcherIhEENS5_IPFvvEEENS5_IiEEEES4_IJhS8_iEEEEbRKT_RKT0_
FNDA:0,_ZNK7testing8internal14AnyMatcherImplIRKSt5tupleIJhhmEEE10DescribeToEPSo
FNDA:20,_ZN7testing8internal11TuplePrefixILm0EE7MatchesISt5tupleIJNS_7MatcherIhEENS5_IiEEEES4_IJhiEEEEbRKT_RKT0_
FNDA:0,_ZN7testing8internal26ExplainMatchFailureTupleToISt5tupleIJNS_7MatcherIhEEEES2_IJhEEEEvRKT_RKT0_PSo
FNDA:70,_ZN7testing8internal11TuplePrefixILm2EE7MatchesISt5tupleIJNS_7MatcherIhEES6_NS5_ImEEEES4_IJhhmEEEEbRKT_RKT0_
FNDA:30,_ZN7testing8internal14AnyMatcherImplIRKSt5tupleIJjEEED2Ev
FNDA:0,_ZNK7testing8internal14AnyMatcherImplIRKSt5tupleIJiiEEE18DescribeNegationToEPSo
FNDA:0,_ZN7testing8internal26ExplainMatchFailureTupleToISt5tupleIJNS_7MatcherIhEENS3_IPFvvEEENS3_IiEEEES2_IJhS6_iEEEEvRKT_RKT0_PSo
FNDA:0,_ZNK7testing8internal14AnyMatcherImplIRKSt5tupleIJEEE10DescribeToEPSo
FNDA:0,_ZN7testing8internal11TuplePrefixILm3EE22ExplainMatchFailuresToISt5tupleIJNS_7MatcherIhEENS5_IPFvvEEENS5_IiEEEES4_IJhS8_iEEEEvRKT_RKT0_PSo
FNDA:195,_ZN7testing8internal11TuplePrefixILm1EE7MatchesISt5tupleIJNS_7MatcherIhEES6_EES4_IJhhEEEEbRKT_RKT0_
FNDA:9625,_ZN7testing8internal11TuplePrefixILm1EE7MatchesISt5tupleIJNS_7MatcherIhEEEES4_IJhEEEEbRKT_RKT0_
FNDA:170,_ZN7testing8internal14AnyMatcherImplIhED0Ev
FNDA:50,_ZN7testing8internal11TuplePrefixILm1EE7MatchesISt5tupleIJNS_7MatcherImEEEES4_IJmEEEEbRKT_RKT0_
FNDA:0,_ZNK7testing8internal11MatchMatrix10SpaceIndexEmm
FNDA:0,_ZN7testing8internal26ExplainMatchFailureTupleToISt5tupleIJNS_7MatcherImEEEES2_IJmEEEEvRKT_RKT0_PSo
FNDA:10,_ZN7testing8internal14AnyMatcherImplIPFvvEEC2Ev
FNDA:30,_ZN7testing8internal11TuplePrefixILm1EE7MatchesISt5tupleIJNS_7MatcherIjEEEES4_IJjEEEEbRKT_RKT0_
FNDA:0,_ZN7testing8internal11TuplePrefixILm1EE22ExplainMatchFailuresToISt5tupleIJNS_7MatcherIiEEEES4_IJiEEEEvRKT_RKT0_PSo
FNDA:0,_ZN7testing8internal11TuplePrefixILm2EE22ExplainMatchFailuresToISt5tupleIJNS_7MatcherIhEES6_NS5_ImEEEES4_IJhhmEEEEvRKT_RKT0_PSo
FNDA:245,_ZN7testing8internal14AnyMatcherImplIiEC2Ev
FNDA:0,_ZNK7testing8internal11MatchMatrix7RhsSizeEv
FNDA:485,_ZN7testing8internal12TupleMatchesISt5tupleIJNS_7MatcherIiEEEES2_IJiEEEEbRKT_RKT0_
FNDA:70,_ZN7testing8internal11TuplePrefixILm1EE7MatchesISt5tupleIJNS_7MatcherIhEES6_NS5_ImEEEES4_IJhhmEEEEbRKT_RKT0_
FNDA:0,_ZNK7testing8internal14AnyMatcherImplIRKSt5tupleIJhPFvvEiEEE10DescribeToEPSo
FNDA:5,_ZN7testing1AIRKSt5tupleIJhiiEEEENS_7MatcherIT_EEv
FNDA:0,_ZNK7testing8internal14AnyMatcherImplIRKSt5tupleIJhhEEE10DescribeToEPSo
FNDA:20,_ZNK7testing8internal14AnyMatcherImplIRKSt5tupleIJiiEEE15MatchAndExplainES5_PNS_19MatchResultListenerE
FNDA:0,_ZNK7testing8internal14AnyMatcherImplIRKSt5tupleIJhiEEE18DescribeNegationToEPSo
FNDA:20,_ZN7testing1AIRKSt5tupleIJhiEEEENS_7MatcherIT_EEv
FNDA:245,_ZN7testing8internal14AnyMatcherImplIiED2Ev
FNDA:30,_ZN7testing8internal14AnyMatcherImplIRKSt5tupleIJhhmEEED2Ev
FNDA:10,_ZN7testing1AIPFvvEEENS_7MatcherIT_EEv
FNDA:30,_ZN7testing1AIRKSt5tupleIJjEEEENS_7MatcherIT_EEv
FNDA:335,_ZN7testing8internal14AnyMatcherImplIRKSt5tupleIJhEEEC2Ev
FNDA:0,_ZNK7testing8internal14AnyMatcherImplIPFvvEE10DescribeToEPSo
FNDA:9625,_ZN7testing8internal12TupleMatchesISt5tupleIJNS_7MatcherIhEEEES2_IJhEEEEbRKT_RKT0_
FNDA:485,_ZN7testing8internal14AnyMatcherImplIRKSt5tupleIJiEEED2Ev
FNDA:0,_ZN7testing8internal11TuplePrefixILm2EE22ExplainMatchFailuresToISt5tupleIJNS_7MatcherIhEENS5_IPFvvEEENS5_IiEEEES4_IJhS8_iEEEEvRKT_RKT0_PSo
FNDA:5,_ZN7testing8internal11TuplePrefixILm3EE7MatchesISt5tupleIJNS_7MatcherIhEENS5_IiEES7_EES4_IJhiiEEEEbRKT_RKT0_
FNDA:195,_ZN7testing8internal12TupleMatchesISt5tupleIJNS_7MatcherIhEES4_EES2_IJhhEEEEbRKT_RKT0_
FNDA:2290,_ZN7testing8internal14AnyMatcherImplIRKSt5tupleIJEEED0Ev
FNDA:35,_ZN7testing8internal14AnyMatcherImplIRKSt5tupleIJiiEEED2Ev
FNDA:200,_ZNK7testing8internal14AnyMatcherImplIiE15MatchAndExplainERKiPNS_19MatchResultListenerE
FNDA:0,_ZNK7testing8internal14AnyMatcherImplIRKSt5tupleIJhEEE10DescribeToEPSo
FNDA:19185,_ZN7testing8internal12TupleMatchesISt5tupleIJEES3_EEbRKT_RKT0_
FNDA:2290,_ZN7testing8internal14AnyMatcherImplIRKSt5tupleIJEEEC2Ev
FNDA:5,_ZN7testing8internal14AnyMatcherImplIRKSt5tupleIJhiiEEED2Ev
FNDA:5,_ZN7testing8internal11TuplePrefixILm0EE7MatchesISt5tupleIJNS_7MatcherIhEENS5_IPFvvEEENS5_IiEEEES4_IJhS8_iEEEEbRKT_RKT0_
FNDA:5,_ZN7testing8internal11TuplePrefixILm2EE7MatchesISt5tupleIJNS_7MatcherIhEENS5_IPFvvEEENS5_IiEEEES4_IJhS8_iEEEEbRKT_RKT0_
FNDA:0,_ZN7testing8internal11TuplePrefixILm0EE22ExplainMatchFailuresToISt5tupleIJNS_7MatcherIhEEEES4_IJhEEEEvRKT_RKT0_PSo
FNDA:0,_ZN7testing25StringMatchResultListenerC2Ev
FNDA:19185,_ZNK7testing8internal14AnyMatcherImplIRKSt5tupleIJEEE15MatchAndExplainES5_PNS_19MatchResultListenerE
FNDA:20,_ZN7testing8internal14AnyMatcherImplIRKSt5tupleIJhiEEEC2Ev
FNDA:5,_ZN7testing8internal12TupleMatchesISt5tupleIJNS_7MatcherIhEENS3_IiEES5_EES2_IJhiiEEEEbRKT_RKT0_
FNDA:0,_ZNK7testing8internal14AnyMatcherImplIRKSt5tupleIJhiEEE10DescribeToEPSo
FNDA:0,_ZN7testing8internal26ExplainMatchFailureTupleToISt5tupleIJNS_7MatcherIiEEEES2_IJiEEEEvRKT_RKT0_PSo
FNDA:335,_ZN7testing8internal14AnyMatcherImplIRKSt5tupleIJhEEED2Ev
FNDA:0,_ZN7testing8internal11TuplePrefixILm0EE22ExplainMatchFailuresToISt5tupleIJEES5_EEvRKT_RKT0_PSo
FNDA:30,_ZN7testing1AIRKSt5tupleIJhhmEEEENS_7MatcherIT_EEv
FNDA:0,_ZN7testing8internal11TuplePrefixILm2EE22ExplainMatchFailuresToISt5tupleIJNS_7MatcherIiEES6_EES4_IJiiEEEEvRKT_RKT0_PSo
FNDA:2290,_ZN7testing8internal14AnyMatcherImplIRKSt5tupleIJEEED2Ev
FNDA:0,_ZNK7testing8internal14AnyMatcherImplIhE18DescribeNegationToEPSo
FNDA:0,_ZNK7testing8internal14AnyMatcherImplIRKSt5tupleIJhhmEEE18DescribeNegationToEPSo
FNDA:0,_ZNK7testing8internal14AnyMatcherImplIRKSt5tupleIJjEEE10DescribeToEPSo
FNDA:0,_ZN7testing8internal11TuplePrefixILm1EE22ExplainMatchFailuresToISt5tupleIJNS_7MatcherIhEES6_EES4_IJhhEEEEvRKT_RKT0_PSo
FNDA:10,_ZN7testing8internal14AnyMatcherImplIRKSt5tupleIJhPFvvEiEEED2Ev
FNDA:170,_ZN7testing1AIhEENS_7MatcherIT_EEv
FNDA:50,_ZNK7testing8internal14AnyMatcherImplImE15MatchAndExplainERKmPNS_19MatchResultListenerE
FNDA:0,_ZNK7testing8internal14AnyMatcherImplIRKSt5tupleIJhPFvvEiEEE18DescribeNegationToEPSo
FNDA:150,_ZNK7testing8internal14AnyMatcherImplIRKSt5tupleIJhhEEE15MatchAndExplainES5_PNS_19MatchResultListenerE
FNDA:0,_ZN7testing8internal26ExplainMatchFailureTupleToISt5tupleIJNS_7MatcherIhEES4_NS3_ImEEEES2_IJhhmEEEEvRKT_RKT0_PSo
FNDA:0,_ZN7testing8internal26ExplainMatchFailureTupleToISt5tupleIJNS_7MatcherIhEES4_EES2_IJhhEEEEvRKT_RKT0_PSo
FNDA:0,_ZN7testing8internal11TuplePrefixILm2EE22ExplainMatchFailuresToISt5tupleIJNS_7MatcherIhEENS5_IiEES7_EES4_IJhiiEEEEvRKT_RKT0_PSo
FNDA:0,_ZNK7testing8internal14AnyMatcherImplIRKSt5tupleIJEEE18DescribeNegationToEPSo
FNDA:20,_ZN7testing8internal11TuplePrefixILm0EE7MatchesISt5tupleIJNS_7MatcherIiEES6_EES4_IJiiEEEEbRKT_RKT0_
FNDA:0,_ZN7testing8internal11TuplePrefixILm0EE22ExplainMatchFailuresToISt5tupleIJNS_7MatcherIiEEEES4_IJiEEEEvRKT_RKT0_PSo
FNDA:335,_ZN7testing8internal14AnyMatcherImplIRKSt5tupleIJhEEED0Ev
FNDA:5,_ZN7testing8internal14AnyMatcherImplIRKSt5tupleIJhiiEEEC2Ev
FNDA:10,_ZNK7testing8internal15AnythingMatchercvNS_7MatcherIT_EEImEEv
FNDA:145,_ZN7testing8internal14AnyMatcherImplIRKSt5tupleIJhhEEEC2Ev
FNDA:0,_ZNK7testing8internal14AnyMatcherImplIRKSt5tupleIJiiEEE10DescribeToEPSo
FNDA:5,_ZN7testing8internal11TuplePrefixILm2EE7MatchesISt5tupleIJNS_7MatcherIhEENS5_IiEES7_EES4_IJhiiEEEEbRKT_RKT0_
FNDA:0,_ZN7testing8internal26ExplainMatchFailureTupleToISt5tupleIJNS_7MatcherIhEENS3_IiEEEES2_IJhiEEEEvRKT_RKT0_PSo
FNDA:0,_ZN7testing8internal26ExplainMatchFailureTupleToISt5tupleIJNS_7MatcherIiEES4_EES2_IJiiEEEEvRKT_RKT0_PSo
FNDA:0,_ZN7testing8internal26ExplainMatchFailureTupleToISt5tupleIJEES3_EEvRKT_RKT0_PSo
FNDA:0,_ZN7testing8internal11TuplePrefixILm0EE22ExplainMatchFailuresToISt5tupleIJNS_7MatcherImEEEES4_IJmEEEEvRKT_RKT0_PSo
FNDA:2290,_ZN7testing1AIRKSt5tupleIJEEEENS_7MatcherIT_EEv
FNDA:5,_ZN7testing8internal11TuplePrefixILm3EE7MatchesISt5tupleIJNS_7MatcherIhEENS5_IPFvvEEENS5_IiEEEES4_IJhS8_iEEEEbRKT_RKT0_
FNDA:5,_ZN7testing8internal11TuplePrefixILm1EE7MatchesISt5tupleIJNS_7MatcherIhEENS5_IiEES7_EES4_IJhiiEEEEbRKT_RKT0_
FNDA:35,_ZN7testing8internal14AnyMatcherImplIRKSt5tupleIJiiEEEC2Ev
FNDA:0,_ZN7testing8internal11TuplePrefixILm0EE22ExplainMatchFailuresToISt5tupleIJNS_7MatcherIiEES6_EES4_IJiiEEEEvRKT_RKT0_PSo
FNDA:0,_ZNK7testing8internal14AnyMatcherImplIRKSt5tupleIJiEEE18DescribeNegationToEPSo
FNDA:10,_ZN7testing8internal14AnyMatcherImplImEC2Ev
FNDA:0,_ZNK7testing8internal14AnyMatcherImplImE10DescribeToEPSo
FNDA:0,_ZNK7testing8internal35UnorderedElementsAreMatcherImplBase11match_flagsEv
FNDA:50,_ZN7testing8internal11TuplePrefixILm0EE7MatchesISt5tupleIJNS_7MatcherImEEEES4_IJmEEEEbRKT_RKT0_
FNDA:245,_ZNK7testing8internal15AnythingMatchercvNS_7MatcherIT_EEIiEEv
FNDA:0,_ZNK7testing8internal14AnyMatcherImplIRKSt5tupleIJmEEE10DescribeToEPSo
FNDA:0,_ZN7testing8internal11TuplePrefixILm3EE22ExplainMatchFailuresToISt5tupleIJNS_7MatcherIhEENS5_IiEES7_EES4_IJhiiEEEEvRKT_RKT0_PSo
FNDA:30,_ZNK7testing8internal14AnyMatcherImplIRKSt5tupleIJjEEE15MatchAndExplainES5_PNS_19MatchResultListenerE
FNDA:0,_ZN7testing8internal26ExplainMatchFailureTupleToISt5tupleIJNS_7MatcherIhEENS3_IiEES5_EES2_IJhiiEEEEvRKT_RKT0_PSo
FNDA:485,_ZN7testing8internal14AnyMatcherImplIRKSt5tupleIJiEEEC2Ev
FNDA:0,_ZNK7testing8internal14AnyMatcherImplIiE18DescribeNegationToEPSo
FNDA:145,_ZN7testing8internal14AnyMatcherImplIRKSt5tupleIJhhEEED0Ev
FNDA:0,_ZN7testing8internal11TuplePrefixILm3EE22ExplainMatchFailuresToISt5tupleIJNS_7MatcherIhEES6_NS5_ImEEEES4_IJhhmEEEEvRKT_RKT0_PSo
FNDA:0,_ZNK7testing8internal14AnyMatcherImplIRKSt5tupleIJhiiEEE10DescribeToEPSo
FNDA:0,_ZN7testing8internal11TuplePrefixILm0EE22ExplainMatchFailuresToISt5tupleIJNS_7MatcherIhEES6_EES4_IJhhEEEEvRKT_RKT0_PSo
FNDA:10,_ZN7testing1AIRKSt5tupleIJhPFvvEiEEEENS_7MatcherIT_EEv
FNDA:5,_ZNK7testing8internal14AnyMatcherImplIPFvvEE15MatchAndExplainERKS3_PNS_19MatchResultListenerE
FNDA:0,_ZNK7testing8internal11MatchMatrix7LhsSizeEv
FNDA:5,_ZN7testing8internal14AnyMatcherImplIRKSt5tupleIJhiiEEED0Ev
FNDA:0,_ZN7testing8internal11TuplePrefixILm1EE22ExplainMatchFailuresToISt5tupleIJNS_7MatcherIhEES6_NS5_ImEEEES4_IJhhmEEEEvRKT_RKT0_PSo
FNDA:30,_ZN7testing8internal14AnyMatcherImplIRKSt5tupleIJjEEEC2Ev
FNDA:0,_ZNK7testing8internal14AnyMatcherImplIRKSt5tupleIJhEEE18DescribeNegationToEPSo
FNDA:10,_ZN7testing8internal14AnyMatcherImplImED0Ev
FNDA:145,_ZN7testing8internal14AnyMatcherImplIRKSt5tupleIJhhEEED2Ev
FNDA:20,_ZN7testing8internal12TupleMatchesISt5tupleIJNS_7MatcherIhEENS3_IiEEEES2_IJhiEEEEbRKT_RKT0_
FNDA:10,_ZN7testing1AImEENS_7MatcherIT_EEv
FNDA:5,_ZN7testing8internal11TuplePrefixILm0EE7MatchesISt5tupleIJNS_7MatcherIhEENS5_IiEES7_EES4_IJhiiEEEEbRKT_RKT0_
FNDA:0,_ZN7testing8internal11TuplePrefixILm2EE22ExplainMatchFailuresToISt5tupleIJNS_7MatcherIhEENS5_IiEEEES4_IJhiEEEEvRKT_RKT0_PSo
FNDA:245,_ZN7testing8internal14AnyMatcherImplIiED0Ev
FNDA:480,_ZNK7testing8internal14AnyMatcherImplIRKSt5tupleIJiEEE15MatchAndExplainES5_PNS_19MatchResultListenerE
FNDA:485,_ZN7testing8internal11TuplePrefixILm1EE7MatchesISt5tupleIJNS_7MatcherIiEEEES4_IJiEEEEbRKT_RKT0_
FNDA:0,_ZN7testing8internal11TuplePrefixILm1EE22ExplainMatchFailuresToISt5tupleIJNS_7MatcherIhEEEES4_IJhEEEEvRKT_RKT0_PSo
FNDA:195,_ZN7testing8internal11TuplePrefixILm0EE7MatchesISt5tupleIJNS_7MatcherIhEES6_EES4_IJhhEEEEbRKT_RKT0_
FNDA:145,_ZN7testing1AIRKSt5tupleIJhhEEEENS_7MatcherIT_EEv
FNDA:0,_ZN7testing8internal11TuplePrefixILm1EE22ExplainMatchFailuresToISt5tupleIJNS_7MatcherIjEEEES4_IJjEEEEvRKT_RKT0_PSo
FNDA:0,_ZN7testing25StringMatchResultListenerD0Ev
FNDA:20,_ZN7testing8internal11TuplePrefixILm1EE7MatchesISt5tupleIJNS_7MatcherIiEES6_EES4_IJiiEEEEbRKT_RKT0_
FNDA:0,_ZNK7testing8internal14AnyMatcherImplIPFvvEE18DescribeNegationToEPSo
FNDA:5,_ZN7testing8internal12TupleMatchesISt5tupleIJNS_7MatcherIhEENS3_IPFvvEEENS3_IiEEEES2_IJhS6_iEEEEbRKT_RKT0_
FNDA:30,_ZN7testing8internal12TupleMatchesISt5tupleIJNS_7MatcherIjEEEES2_IJjEEEEbRKT_RKT0_
FNDA:70,_ZN7testing8internal12TupleMatchesISt5tupleIJNS_7MatcherIhEES4_NS3_ImEEEES2_IJhhmEEEEbRKT_RKT0_
FNDA:0,_ZN7testing8internal26ExplainMatchFailureTupleToISt5tupleIJNS_7MatcherIjEEEES2_IJjEEEEvRKT_RKT0_PSo
FNDA:0,_ZNK7testing8internal14AnyMatcherImplIRKSt5tupleIJiEEE10DescribeToEPSo
FNDA:0,_ZN7testing8internal11TuplePrefixILm1EE22ExplainMatchFailuresToISt5tupleIJNS_7MatcherIhEENS5_IiEEEES4_IJhiEEEEvRKT_RKT0_PSo
FNDA:485,_ZN7testing1AIRKSt5tupleIJiEEEENS_7MatcherIT_EEv
FNDA:0,_ZN7testing8internal11TuplePrefixILm1EE22ExplainMatchFailuresToISt5tupleIJNS_7MatcherImEEEES4_IJmEEEEvRKT_RKT0_PSo
FNDA:30,_ZN7testing8internal14AnyMatcherImplIRKSt5tupleIJhhmEEEC2Ev
FNDA:5,_ZNK7testing8internal14AnyMatcherImplIRKSt5tupleIJhiiEEE15MatchAndExplainES5_PNS_19MatchResultListenerE
FNDA:50,_ZNK7testing8internal14AnyMatcherImplIRKSt5tupleIJmEEE15MatchAndExplainES5_PNS_19MatchResultListenerE
FNDA:245,_ZN7testing1AIiEENS_7MatcherIT_EEv
FNDA:0,_ZNK7testing8internal14AnyMatcherImplIhE10DescribeToEPSo
FNDA:0,_ZN7testing8internal11TuplePrefixILm1EE22ExplainMatchFailuresToISt5tupleIJNS_7MatcherIhEENS5_IPFvvEEENS5_IiEEEES4_IJhS8_iEEEEvRKT_RKT0_PSo
FNDA:20,_ZNK7testing8internal14AnyMatcherImplIRKSt5tupleIJhiEEE15MatchAndExplainES5_PNS_19MatchResultListenerE
FNDA:0,_ZN7testing8internal11TuplePrefixILm0EE22ExplainMatchFailuresToISt5tupleIJNS_7MatcherIhEENS5_IiEES7_EES4_IJhiiEEEEvRKT_RKT0_PSo
FNDA:19185,_ZN7testing8internal11TuplePrefixILm0EE7MatchesISt5tupleIJEES5_EEbRKT_RKT0_
FNDA:0,_ZNK7testing8internal14AnyMatcherImplImE18DescribeNegationToEPSo
FNDA:0,_ZN7testing8internal11TuplePrefixILm1EE22ExplainMatchFailuresToISt5tupleIJNS_7MatcherIiEES6_EES4_IJiiEEEEvRKT_RKT0_PSo
FNDA:0,_ZN7testing8internal11TuplePrefixILm0EE22ExplainMatchFailuresToISt5tupleIJNS_7MatcherIjEEEES4_IJjEEEEvRKT_RKT0_PSo
FNDA:0,_ZN7testing25StringMatchResultListenerD2Ev
FNDA:0,_ZNK7testing25StringMatchResultListener3strEv
FNDA:70,_ZN7testing8internal11TuplePrefixILm3EE7MatchesISt5tupleIJNS_7MatcherIhEES6_NS5_ImEEEES4_IJhhmEEEEbRKT_RKT0_
FNDA:70,_ZN7testing8internal11TuplePrefixILm0EE7MatchesISt5tupleIJNS_7MatcherIhEES6_NS5_ImEEEES4_IJhhmEEEEbRKT_RKT0_
FNDA:0,_ZN7testing8internal11TuplePrefixILm2EE22ExplainMatchFailuresToISt5tupleIJNS_7MatcherIhEES6_EES4_IJhhEEEEvRKT_RKT0_PSo
FNDA:10,_ZN7testing8internal14AnyMatcherImplIRKSt5tupleIJhPFvvEiEEEC2Ev
FNDA:35,_ZN7testing8internal14AnyMatcherImplIRKSt5tupleIJiiEEED0Ev
FNDA:20,_ZN7testing8internal14AnyMatcherImplIRKSt5tupleIJhiEEED2Ev
FNDA:20,_ZN7testing8internal11TuplePrefixILm2EE7MatchesISt5tupleIJNS_7MatcherIiEES6_EES4_IJiiEEEEbRKT_RKT0_
FNDA:5,_ZN7testing8internal14AnyMatcherImplIRKSt5tupleIJmEEED2Ev
FNDA:9400,_ZNK7testing8internal14AnyMatcherImplIRKSt5tupleIJhEEE15MatchAndExplainES5_PNS_19MatchResultListenerE
FNF:202
FNH:120
DA:81,0
DA:83,0
DA:86,0
DA:306,0
DA:308,0
DA:309,0
DA:311,0
DA:360,10900
DA:362,21755
DA:363,21755
DA:371,0
DA:375,0
DA:380,0
DA:382,0
DA:383,0
DA:384,0
DA:385,0
DA:386,0
DA:387,0
DA:393,0
DA:394,0
DA:395,0
DA:397,0
DA:405,29690
DA:407,29690
DA:411,0
DA:413,0
DA:422,29690
DA:430,29690
DA:436,0
DA:439,0
DA:441,0
DA:485,11475
DA:487,29935
DA:489,29935
DA:491,0
DA:492,0
DA:496,0
DA:497,0
DA:507,435
DA:2814,0
DA:2815,0
DA:2816,0
DA:2817,0
DA:2833,0
DA:2834,0
DA:2893,0
DA:2894,0
DA:2897,0
DA:3558,3825
DA:3559,3825
LF:51
LH:13
end_of_record
TN:
SF:/home/travis/build/platisd/smartcar_shield/test/build/googletest-src/googlemock/include/gmock/gmock-more-actions.h
FN:85,_ZN7testing14SaveArgActionPILi1EPPFvvEE10gmock_ImplIFvhS2_iEED0Ev
FN:85,_ZN7testing14SaveArgActionPILi1EPPFvvEEC2ES3_
FN:85,_ZN7testing7SaveArgILi0EPiEENS_14SaveArgActionPIXT_ET0_EES3_
FN:85,_ZN7testing14SaveArgActionPILi0EPiEC2ES1_
FN:85,_ZN7testing14SaveArgActionPILi0EPiE10gmock_ImplIFviEED0Ev
FN:85,_ZN7testing14SaveArgActionPILi1EPPFvvEE10gmock_ImplIFvhS2_iEED2Ev
FN:85,_ZN7testing14SaveArgActionPILi0EPiE10gmock_ImplIFviEE7PerformERKSt5tupleIJiEE
FN:85,_ZN7testing14SaveArgActionPILi0EPiE10gmock_ImplIFviEED2Ev
FN:85,_ZN7testing14SaveArgActionPILi1EPPFvvEE10gmock_ImplIFvhS2_iEEC2ES3_
FN:85,_ZN7testing14SaveArgActionPILi0EPiE10gmock_ImplIFviEEC2ES1_
FN:85,_ZNK7testing14SaveArgActionPILi0EPiEcvNS_6ActionIT_EEIFviEEEv
FN:85,_ZNK7testing14SaveArgActionPILi0EPiE10gmock_ImplIFviEE17gmock_PerformImplIiNS_8internal12ExcessiveArgES8_S8_S8_S8_S8_S8_S8_S8_EEvRKSt5tupleIJiEET_T0_T1_T2_T3_T4_T5_T6_T7_T8_
FN:85,_ZN7testing7SaveArgILi1EPPFvvEEENS_14SaveArgActionPIXT_ET0_EES5_
FN:85,_ZNK7testing14SaveArgActionPILi1EPPFvvEE10gmock_ImplIFvhS2_iEE17gmock_PerformImplIhS2_iNS_8internal12ExcessiveArgESA_SA_SA_SA_SA_SA_EEvRKSt5tupleIJhS2_iEET_T0_T1_T2_T3_T4_T5_T6_T7_T8_
FN:85,_ZN7testing14SaveArgActionPILi1EPPFvvEE10gmock_ImplIFvhS2_iEE7PerformERKSt5tupleIJhS2_iEE
FN:85,_ZNK7testing14SaveArgActionPILi1EPPFvvEEcvNS_6ActionIT_EEIFvhS2_iEEEv
FNDA:200,_ZN7testing14SaveArgActionPILi0EPiEC2ES1_
FNDA:5,_ZN7testing14SaveArgActionPILi1EPPFvvEE10gmock_ImplIFvhS2_iEED2Ev
FNDA:200,_ZN7testing14SaveArgActionPILi0EPiE10gmock_ImplIFviEED0Ev
FNDA:200,_ZN7testing7SaveArgILi0EPiEENS_14SaveArgActionPIXT_ET0_EES3_
FNDA:200,_ZN7testing14SaveArgActionPILi0EPiE10gmock_ImplIFviEED2Ev
FNDA:5,_ZN7testing14SaveArgActionPILi1EPPFvvEE10gmock_ImplIFvhS2_iEEC2ES3_
FNDA:200,_ZN7testing14SaveArgActionPILi0EPiE10gmock_ImplIFviEE7PerformERKSt5tupleIJiEE
FNDA:5,_ZN7testing14SaveArgActionPILi1EPPFvvEEC2ES3_
FNDA:5,_ZN7testing14SaveArgActionPILi1EPPFvvEE10gmock_ImplIFvhS2_iEED0Ev
FNDA:5,_ZNK7testing14SaveArgActionPILi1EPPFvvEEcvNS_6ActionIT_EEIFvhS2_iEEEv
FNDA:5,_ZN7testing14SaveArgActionPILi1EPPFvvEE10gmock_ImplIFvhS2_iEE7PerformERKSt5tupleIJhS2_iEE
FNDA:5,_ZNK7testing14SaveArgActionPILi1EPPFvvEE10gmock_ImplIFvhS2_iEE17gmock_PerformImplIhS2_iNS_8internal12ExcessiveArgESA_SA_SA_SA_SA_SA_EEvRKSt5tupleIJhS2_iEET_T0_T1_T2_T3_T4_T5_T6_T7_T8_
FNDA:200,_ZN7testing14SaveArgActionPILi0EPiE10gmock_ImplIFviEEC2ES1_
FNDA:200,_ZNK7testing14SaveArgActionPILi0EPiE10gmock_ImplIFviEE17gmock_PerformImplIiNS_8internal12ExcessiveArgES8_S8_S8_S8_S8_S8_S8_S8_EEvRKSt5tupleIJiEET_T0_T1_T2_T3_T4_T5_T6_T7_T8_
FNDA:200,_ZNK7testing14SaveArgActionPILi0EPiEcvNS_6ActionIT_EEIFviEEEv
FNDA:5,_ZN7testing7SaveArgILi1EPPFvvEEENS_14SaveArgActionPIXT_ET0_EES5_
FNF:16
FNH:16
DA:85,1640
DA:88,205
DA:89,205
LF:3
LH:3
end_of_record
TN:
SF:/home/travis/build/platisd/smartcar_shield/test/build/googletest-src/googlemock/include/gmock/gmock-nice-strict.h
FN:74,_ZN7testing8NiceMockI17MockHeadingSensorEC2Ev
FN:74,_ZN7testing8NiceMockI11MockControlEC2Ev
FN:74,_ZN7testing8NiceMockI12MockOdometerEC2Ev
FN:74,_ZN7testing8NiceMockI9MockMotorEC2Ev
FN:74,_ZN7testing8NiceMockI11MockRuntimeEC2Ev
FN:87,_ZN7testing8NiceMockI24MockInfraredAnalogSensorEC2IRNS0_I11MockRuntimeEEEEOT_
FN:87,_ZN7testing8NiceMockISt10shared_ptrI9MockServoEEC2IS3_EEOT_
FN:100,_ZN7testing8NiceMockI11MockControlED0Ev
FN:100,_ZN7testing8NiceMockI11MockRuntimeED0Ev
FN:100,_ZN7testing8NiceMockI11MockRuntimeED2Ev
FN:100,_ZN7testing8NiceMockI17MockHeadingSensorED0Ev
FN:100,_ZN7testing8NiceMockI12MockOdometerED2Ev
FN:100,_ZN7testing8NiceMockI9MockMotorED0Ev
FN:100,_ZN7testing8NiceMockISt10shared_ptrI9MockServoEED2Ev
FN:100,_ZN7testing8NiceMockI24MockInfraredAnalogSensorED2Ev
FN:100,_ZN7testing8NiceMockI17MockHeadingSensorED2Ev
FN:100,_ZN7testing8NiceMockI9MockMotorED2Ev
FN:100,_ZN7testing8NiceMockI11MockControlED2Ev
FN:100,_ZN7testing8NiceMockI24MockInfraredAnalogSensorED0Ev
FN:150,_ZN7testing10StrictMockI9MockMotorEC2Ev
FN:176,_ZN7testing10StrictMockI9MockMotorED0Ev
FN:176,_ZN7testing10StrictMockI9MockMotorED2Ev
FNDA:0,_ZN7testing10StrictMockI9MockMotorED0Ev
FNDA:575,_ZN7testing8NiceMockI11MockRuntimeED2Ev
FNDA:0,_ZN7testing8NiceMockI11MockRuntimeED0Ev
FNDA:100,_ZN7testing10StrictMockI9MockMotorEC2Ev
FNDA:0,_ZN7testing8NiceMockI11MockControlED0Ev
FNDA:185,_ZN7testing8NiceMockI11MockControlEC2Ev
FNDA:20,_ZN7testing8NiceMockI17MockHeadingSensorEC2Ev
FNDA:10,_ZN7testing8NiceMockI24MockInfraredAnalogSensorEC2IRNS0_I11MockRuntimeEEEEOT_
FNDA:0,_ZN7testing8NiceMockI17MockHeadingSensorED0Ev
FNDA:120,_ZN7testing8NiceMockI9MockMotorEC2Ev
FNDA:10,_ZN7testing8NiceMockI24MockInfraredAnalogSensorED2Ev
FNDA:30,_ZN7testing8NiceMockISt10shared_ptrI9MockServoEED2Ev
FNDA:0,_ZN7testing8NiceMockI9MockMotorED0Ev
FNDA:260,_ZN7testing8NiceMockI12MockOdometerED2Ev
FNDA:260,_ZN7testing8NiceMockI12MockOdometerEC2Ev
FNDA:0,_ZN7testing8NiceMockI24MockInfraredAnalogSensorED0Ev
FNDA:120,_ZN7testing8NiceMockI9MockMotorED2Ev
FNDA:185,_ZN7testing8NiceMockI11MockControlED2Ev
FNDA:20,_ZN7testing8NiceMockI17MockHeadingSensorED2Ev
FNDA:30,_ZN7testing8NiceMockISt10shared_ptrI9MockServoEEC2IS3_EEOT_
FNDA:100,_ZN7testing10StrictMockI9MockMotorED2Ev
FNDA:575,_ZN7testing8NiceMockI11MockRuntimeEC2Ev
FNF:22
FNH:16
DA:74,1160
DA:75,1160
DA:76,1160
DA:77,1160
DA:87,40
DA:88,40
DA:89,40
DA:90,40
DA:100,1200
DA:101,1200
DA:102,1200
DA:103,2370
DA:150,100
DA:151,100
DA:152,100
DA:153,100
DA:176,100
DA:177,100
DA:178,100
DA:179,200
LF:20
LH:20
end_of_record
TN:
SF:/home/travis/build/platisd/smartcar_shield/test/build/googletest-src/googlemock/include/gmock/gmock-spec-builders.h
FN:253,_ZN7testing8internal21UntypedOnCallSpecBaseC2EPKci
FN:257,_ZNK7testing8internal21UntypedOnCallSpecBase4fileEv
FN:258,_ZNK7testing8internal21UntypedOnCallSpecBase4lineEv
FN:271,_ZNK7testing8internal21UntypedOnCallSpecBase18AssertSpecPropertyEbRKSs
FN:277,_ZNK7testing8internal21UntypedOnCallSpecBase18ExpectSpecPropertyEbRKSs
FN:292,_ZN7testing8internal10OnCallSpecIFivEED2Ev
FN:292,_ZN7testing8internal10OnCallSpecIFvvEED2Ev
FN:292,_ZN7testing8internal10OnCallSpecIFahEED2Ev
FN:292,_ZN7testing8internal10OnCallSpecIFihEED2Ev
FN:292,_ZN7testing8internal10OnCallSpecIFvhEED2Ev
FN:292,_ZN7testing8internal10OnCallSpecIFvhPFvvEiEED2Ev
FN:292,_ZN7testing8internal10OnCallSpecIFlvEED2Ev
FN:292,_ZN7testing8internal10OnCallSpecIFvhiiEED2Ev
FN:292,_ZN7testing8internal10OnCallSpecIFviEED2Ev
FN:292,_ZN7testing8internal10OnCallSpecIFmhEED2Ev
FN:292,_ZN7testing8internal10OnCallSpecIFfvEED2Ev
FN:292,_ZN7testing8internal10OnCallSpecIFjvEED2Ev
FN:292,_ZN7testing8internal10OnCallSpecIFmhhmEED2Ev
FN:292,_ZN7testing8internal10OnCallSpecIFhvEED2Ev
FN:292,_ZN7testing8internal10OnCallSpecIFmvEED2Ev
FN:292,_ZN7testing8internal10OnCallSpecIFviiEED2Ev
FN:292,_ZN7testing8internal10OnCallSpecIFvjEED2Ev
FN:292,_ZN7testing8internal10OnCallSpecIFvhiEED2Ev
FN:292,_ZN7testing8internal10OnCallSpecIFhhhEED2Ev
FN:292,_ZN7testing8internal10OnCallSpecIFvmEED2Ev
FN:292,_ZN7testing8internal10OnCallSpecIFvhhEED2Ev
FN:292,_ZN7testing8internal10OnCallSpecIFbvEED2Ev
FN:299,_ZN7testing8internal10OnCallSpecIFmvEEC2EPKciRKSt5tupleIJEE
FN:299,_ZN7testing8internal10OnCallSpecIFfvEEC2EPKciRKSt5tupleIJEE
FN:299,_ZN7testing8internal10OnCallSpecIFbvEEC2EPKciRKSt5tupleIJEE
FN:299,_ZN7testing8internal10OnCallSpecIFivEEC2EPKciRKSt5tupleIJEE
FN:299,_ZN7testing8internal10OnCallSpecIFahEEC2EPKciRKSt5tupleIJNS_7MatcherIhEEEE
FN:321,_ZN7testing8internal10OnCallSpecIFbvEE13WillByDefaultERKNS_6ActionIS2_EE
FN:321,_ZN7testing8internal10OnCallSpecIFivEE13WillByDefaultERKNS_6ActionIS2_EE
FN:321,_ZN7testing8internal10OnCallSpecIFmvEE13WillByDefaultERKNS_6ActionIS2_EE
FN:321,_ZN7testing8internal10OnCallSpecIFahEE13WillByDefaultERKNS_6ActionIS2_EE
FN:321,_ZN7testing8internal10OnCallSpecIFfvEE13WillByDefaultERKNS_6ActionIS2_EE
FN:334,_ZNK7testing8internal10OnCallSpecIFivEE7MatchesERKSt5tupleIJEE
FN:334,_ZNK7testing8internal10OnCallSpecIFvmEE7MatchesERKSt5tupleIJmEE
FN:334,_ZNK7testing8internal10OnCallSpecIFfvEE7MatchesERKSt5tupleIJEE
FN:334,_ZNK7testing8internal10OnCallSpecIFahEE7MatchesERKSt5tupleIJhEE
FN:334,_ZNK7testing8internal10OnCallSpecIFhvEE7MatchesERKSt5tupleIJEE
FN:334,_ZNK7testing8internal10OnCallSpecIFbvEE7MatchesERKSt5tupleIJEE
FN:334,_ZNK7testing8internal10OnCallSpecIFvhPFvvEiEE7MatchesERKSt5tupleIJhS3_iEE
FN:334,_ZNK7testing8internal10OnCallSpecIFmvEE7MatchesERKSt5tupleIJEE
FN:334,_ZNK7testing8internal10OnCallSpecIFihEE7MatchesERKSt5tupleIJhEE
FN:334,_ZNK7testing8internal10OnCallSpecIFvhiiEE7MatchesERKSt5tupleIJhiiEE
FN:334,_ZNK7testing8internal10OnCallSpecIFvvEE7MatchesERKSt5tupleIJEE
FN:334,_ZNK7testing8internal10OnCallSpecIFvhiEE7MatchesERKSt5tupleIJhiEE
FN:334,_ZNK7testing8internal10OnCallSpecIFviiEE7MatchesERKSt5tupleIJiiEE
FN:334,_ZNK7testing8internal10OnCallSpecIFmhhmEE7MatchesERKSt5tupleIJhhmEE
FN:334,_ZNK7testing8internal10OnCallSpecIFviEE7MatchesERKSt5tupleIJiEE
FN:334,_ZNK7testing8internal10OnCallSpecIFvhEE7MatchesERKSt5tupleIJhEE
FN:334,_ZNK7testing8internal10OnCallSpecIFvhhEE7MatchesERKSt5tupleIJhhEE
FN:334,_ZNK7testing8internal10OnCallSpecIFlvEE7MatchesERKSt5tupleIJEE
FN:334,_ZNK7testing8internal10OnCallSpecIFhhhEE7MatchesERKSt5tupleIJhhEE
FN:334,_ZNK7testing8internal10OnCallSpecIFmhEE7MatchesERKSt5tupleIJhEE
FN:334,_ZNK7testing8internal10OnCallSpecIFjvEE7MatchesERKSt5tupleIJEE
FN:334,_ZNK7testing8internal10OnCallSpecIFvjEE7MatchesERKSt5tupleIJjEE
FN:339,_ZNK7testing8internal10OnCallSpecIFvhiiEE9GetActionEv
FN:339,_ZNK7testing8internal10OnCallSpecIFvhPFvvEiEE9GetActionEv
FN:339,_ZNK7testing8internal10OnCallSpecIFmhhmEE9GetActionEv
FN:339,_ZNK7testing8internal10OnCallSpecIFihEE9GetActionEv
FN:339,_ZNK7testing8internal10OnCallSpecIFvhEE9GetActionEv
FN:339,_ZNK7testing8internal10OnCallSpecIFvhhEE9GetActionEv
FN:339,_ZNK7testing8internal10OnCallSpecIFahEE9GetActionEv
FN:339,_ZNK7testing8internal10OnCallSpecIFviEE9GetActionEv
FN:339,_ZNK7testing8internal10OnCallSpecIFvjEE9GetActionEv
FN:339,_ZNK7testing8internal10OnCallSpecIFhhhEE9GetActionEv
FN:339,_ZNK7testing8internal10OnCallSpecIFmvEE9GetActionEv
FN:339,_ZNK7testing8internal10OnCallSpecIFvmEE9GetActionEv
FN:339,_ZNK7testing8internal10OnCallSpecIFlvEE9GetActionEv
FN:339,_ZNK7testing8internal10OnCallSpecIFvhiEE9GetActionEv
FN:339,_ZNK7testing8internal10OnCallSpecIFviiEE9GetActionEv
FN:339,_ZNK7testing8internal10OnCallSpecIFmhEE9GetActionEv
FN:339,_ZNK7testing8internal10OnCallSpecIFivEE9GetActionEv
FN:339,_ZNK7testing8internal10OnCallSpecIFhvEE9GetActionEv
FN:339,_ZNK7testing8internal10OnCallSpecIFvvEE9GetActionEv
FN:339,_ZNK7testing8internal10OnCallSpecIFbvEE9GetActionEv
FN:339,_ZNK7testing8internal10OnCallSpecIFfvEE9GetActionEv
FN:339,_ZNK7testing8internal10OnCallSpecIFjvEE9GetActionEv
FN:496,_ZN7testing11ExpectationaSERKS0_
FN:496,_ZN7testing11ExpectationC2ERKS0_
FN:518,_ZNK7testing11ExpectationeqERKS0_
FN:522,_ZNK7testing11ExpectationneERKS0_
FN:539,_ZNK7testing11Expectation4LessclERKS0_S3_
FN:550,_ZNK7testing11Expectation16expectation_baseEv
FN:571,_ZN7testing14ExpectationSetD2Ev
FN:580,_ZN7testing14ExpectationSetC2Ev
FN:609,_ZN7testing14ExpectationSetpLERKNS_11ExpectationE
FN:616,_ZNK7testing14ExpectationSet5beginEv
FN:617,_ZNK7testing14ExpectationSet3endEv
FN:627,_ZN7testing8SequenceD2Ev
FN:630,_ZN7testing8SequenceC2Ev
FN:703,_ZNK7testing8internal15ExpectationBase4fileEv
FN:704,_ZNK7testing8internal15ExpectationBase4lineEv
FN:705,_ZNK7testing8internal15ExpectationBase11source_textEv
FN:707,_ZNK7testing8internal15ExpectationBase11cardinalityEv
FN:710,_ZNK7testing8internal15ExpectationBase18DescribeLocationToEPSo
FN:752,_ZNK7testing8internal15ExpectationBase18ExpectSpecPropertyEbRKSs
FN:763,_ZNK7testing8internal15ExpectationBase21cardinality_specifiedEv
FN:766,_ZN7testing8internal15ExpectationBase15set_cardinalityERKNS_11CardinalityE
FN:779,_ZNK7testing8internal15ExpectationBase10is_retiredEv
FN:786,_ZN7testing8internal15ExpectationBase6RetireEv
FN:793,_ZNK7testing8internal15ExpectationBase11IsSatisfiedEv
FN:800,_ZNK7testing8internal15ExpectationBase11IsSaturatedEv
FN:807,_ZNK7testing8internal15ExpectationBase15IsOverSaturatedEv
FN:822,_ZNK7testing8internal15ExpectationBase10call_countEv
FN:829,_ZN7testing8internal15ExpectationBase18IncrementCallCountEv
FN:890,_ZN7testing8internal16TypedExpectationIFhhhEEC2EPNS0_14FunctionMockerIS2_EEPKciRKSsRKSt5tupleIJNS_7MatcherIhEESD_EE
FN:890,_ZN7testing8internal16TypedExpectationIFhvEEC2EPNS0_14FunctionMockerIS2_EEPKciRKSsRKSt5tupleIJEE
FN:890,_ZN7testing8internal16TypedExpectationIFvhhEEC2EPNS0_14FunctionMockerIS2_EEPKciRKSsRKSt5tupleIJNS_7MatcherIhEESD_EE
FN:890,_ZN7testing8internal16TypedExpectationIFviEEC2EPNS0_14FunctionMockerIS2_EEPKciRKSsRKSt5tupleIJNS_7MatcherIiEEEE
FN:890,_ZN7testing8internal16TypedExpectationIFahEEC2EPNS0_14FunctionMockerIS2_EEPKciRKSsRKSt5tupleIJNS_7MatcherIhEEEE
FN:890,_ZN7testing8internal16TypedExpectationIFmhhmEEC2EPNS0_14FunctionMockerIS2_EEPKciRKSsRKSt5tupleIJNS_7MatcherIhEESD_NSC_ImEEEE
FN:890,_ZN7testing8internal16TypedExpectationIFvhiiEEC2EPNS0_14FunctionMockerIS2_EEPKciRKSsRKSt5tupleIJNS_7MatcherIhEENSC_IiEESE_EE
FN:890,_ZN7testing8internal16TypedExpectationIFjvEEC2EPNS0_14FunctionMockerIS2_EEPKciRKSsRKSt5tupleIJEE
FN:890,_ZN7testing8internal16TypedExpectationIFvjEEC2EPNS0_14FunctionMockerIS2_EEPKciRKSsRKSt5tupleIJNS_7MatcherIjEEEE
FN:890,_ZN7testing8internal16TypedExpectationIFvhPFvvEiEEC2EPNS0_14FunctionMockerIS4_EEPKciRKSsRKSt5tupleIJNS_7MatcherIhEENSE_IS3_EENSE_IiEEEE
FN:890,_ZN7testing8internal16TypedExpectationIFivEEC2EPNS0_14FunctionMockerIS2_EEPKciRKSsRKSt5tupleIJEE
FN:890,_ZN7testing8internal16TypedExpectationIFviiEEC2EPNS0_14FunctionMockerIS2_EEPKciRKSsRKSt5tupleIJNS_7MatcherIiEESD_EE
FN:890,_ZN7testing8internal16TypedExpectationIFmvEEC2EPNS0_14FunctionMockerIS2_EEPKciRKSsRKSt5tupleIJEE
FN:890,_ZN7testing8internal16TypedExpectationIFfvEEC2EPNS0_14FunctionMockerIS2_EEPKciRKSsRKSt5tupleIJEE
FN:890,_ZN7testing8internal16TypedExpectationIFmhEEC2EPNS0_14FunctionMockerIS2_EEPKciRKSsRKSt5tupleIJNS_7MatcherIhEEEE
FN:890,_ZN7testing8internal16TypedExpectationIFbvEEC2EPNS0_14FunctionMockerIS2_EEPKciRKSsRKSt5tupleIJEE
FN:890,_ZN7testing8internal16TypedExpectationIFlvEEC2EPNS0_14FunctionMockerIS2_EEPKciRKSsRKSt5tupleIJEE
FN:890,_ZN7testing8internal16TypedExpectationIFvmEEC2EPNS0_14FunctionMockerIS2_EEPKciRKSsRKSt5tupleIJNS_7MatcherImEEEE
FN:890,_ZN7testing8internal16TypedExpectationIFvvEEC2EPNS0_14FunctionMockerIS2_EEPKciRKSsRKSt5tupleIJEE
FN:890,_ZN7testing8internal16TypedExpectationIFihEEC2EPNS0_14FunctionMockerIS2_EEPKciRKSsRKSt5tupleIJNS_7MatcherIhEEEE
FN:890,_ZN7testing8internal16TypedExpectationIFvhEEC2EPNS0_14FunctionMockerIS2_EEPKciRKSsRKSt5tupleIJNS_7MatcherIhEEEE
FN:890,_ZN7testing8internal16TypedExpectationIFvhiEEC2EPNS0_14FunctionMockerIS2_EEPKciRKSsRKSt5tupleIJNS_7MatcherIhEENSC_IiEEEE
FN:902,_ZN7testing8internal16TypedExpectationIFvhEED2Ev
FN:902,_ZN7testing8internal16TypedExpectationIFbvEED0Ev
FN:902,_ZN7testing8internal16TypedExpectationIFmvEED0Ev
FN:902,_ZN7testing8internal16TypedExpectationIFihEED0Ev
FN:902,_ZN7testing8internal16TypedExpectationIFviEED0Ev
FN:902,_ZN7testing8internal16TypedExpectationIFmhhmEED0Ev
FN:902,_ZN7testing8internal16TypedExpectationIFviiEED0Ev
FN:902,_ZN7testing8internal16TypedExpectationIFvhiiEED2Ev
FN:902,_ZN7testing8internal16TypedExpectationIFvvEED2Ev
FN:902,_ZN7testing8internal16TypedExpectationIFvjEED2Ev
FN:902,_ZN7testing8internal16TypedExpectationIFviEED2Ev
FN:902,_ZN7testing8internal16TypedExpectationIFmhEED2Ev
FN:902,_ZN7testing8internal16TypedExpectationIFhvEED0Ev
FN:902,_ZN7testing8internal16TypedExpectationIFvvEED0Ev
FN:902,_ZN7testing8internal16TypedExpectationIFvhEED0Ev
FN:902,_ZN7testing8internal16TypedExpectationIFlvEED0Ev
FN:902,_ZN7testing8internal16TypedExpectationIFjvEED0Ev
FN:902,_ZN7testing8internal16TypedExpectationIFhvEED2Ev
FN:902,_ZN7testing8internal16TypedExpectationIFvhhEED0Ev
FN:902,_ZN7testing8internal16TypedExpectationIFvmEED2Ev
FN:902,_ZN7testing8internal16TypedExpectationIFvhPFvvEiEED0Ev
FN:902,_ZN7testing8internal16TypedExpectationIFhhhEED0Ev
FN:902,_ZN7testing8internal16TypedExpectationIFvhPFvvEiEED2Ev
FN:902,_ZN7testing8internal16TypedExpectationIFahEED0Ev
FN:902,_ZN7testing8internal16TypedExpectationIFvhhEED2Ev
FN:902,_ZN7testing8internal16TypedExpectationIFahEED2Ev
FN:902,_ZN7testing8internal16TypedExpectationIFmvEED2Ev
FN:902,_ZN7testing8internal16TypedExpectationIFmhhmEED2Ev
FN:902,_ZN7testing8internal16TypedExpectationIFviiEED2Ev
FN:902,_ZN7testing8internal16TypedExpectationIFbvEED2Ev
FN:902,_ZN7testing8internal16TypedExpectationIFivEED0Ev
FN:902,_ZN7testing8internal16TypedExpectationIFvhiiEED0Ev
FN:902,_ZN7testing8internal16TypedExpectationIFihEED2Ev
FN:902,_ZN7testing8internal16TypedExpectationIFlvEED2Ev
FN:902,_ZN7testing8internal16TypedExpectationIFfvEED2Ev
FN:902,_ZN7testing8internal16TypedExpectationIFivEED2Ev
FN:902,_ZN7testing8internal16TypedExpectationIFvmEED0Ev
FN:902,_ZN7testing8internal16TypedExpectationIFfvEED0Ev
FN:902,_ZN7testing8internal16TypedExpectationIFjvEED2Ev
FN:902,_ZN7testing8internal16TypedExpectationIFvhiEED2Ev
FN:902,_ZN7testing8internal16TypedExpectationIFvhiEED0Ev
FN:902,_ZN7testing8internal16TypedExpectationIFmhEED0Ev
FN:902,_ZN7testing8internal16TypedExpectationIFhhhEED2Ev
FN:902,_ZN7testing8internal16TypedExpectationIFvjEED0Ev
FN:931,_ZN7testing8internal16TypedExpectationIFhhhEE5TimesERKNS_11CardinalityE
FN:931,_ZN7testing8internal16TypedExpectationIFvmEE5TimesERKNS_11CardinalityE
FN:931,_ZN7testing8internal16TypedExpectationIFmhhmEE5TimesERKNS_11CardinalityE
FN:931,_ZN7testing8internal16TypedExpectationIFvhhEE5TimesERKNS_11CardinalityE
FN:931,_ZN7testing8internal16TypedExpectationIFvhEE5TimesERKNS_11CardinalityE
FN:931,_ZN7testing8internal16TypedExpectationIFmvEE5TimesERKNS_11CardinalityE
FN:931,_ZN7testing8internal16TypedExpectationIFviiEE5TimesERKNS_11CardinalityE
FN:931,_ZN7testing8internal16TypedExpectationIFmhEE5TimesERKNS_11CardinalityE
FN:931,_ZN7testing8internal16TypedExpectationIFvvEE5TimesERKNS_11CardinalityE
FN:931,_ZN7testing8internal16TypedExpectationIFfvEE5TimesERKNS_11CardinalityE
FN:931,_ZN7testing8internal16TypedExpectationIFivEE5TimesERKNS_11CardinalityE
FN:931,_ZN7testing8internal16TypedExpectationIFihEE5TimesERKNS_11CardinalityE
FN:931,_ZN7testing8internal16TypedExpectationIFbvEE5TimesERKNS_11CardinalityE
FN:931,_ZN7testing8internal16TypedExpectationIFjvEE5TimesERKNS_11CardinalityE
FN:931,_ZN7testing8internal16TypedExpectationIFvhPFvvEiEE5TimesERKNS_11CardinalityE
FN:931,_ZN7testing8internal16TypedExpectationIFlvEE5TimesERKNS_11CardinalityE
FN:931,_ZN7testing8internal16TypedExpectationIFhvEE5TimesERKNS_11CardinalityE
FN:931,_ZN7testing8internal16TypedExpectationIFviEE5TimesERKNS_11CardinalityE
FN:937,_ZN7testing8internal16TypedExpectationIFmhEE5TimesEi
FN:937,_ZN7testing8internal16TypedExpectationIFviEE5TimesEi
FN:937,_ZN7testing8internal16TypedExpectationIFlvEE5TimesEi
FN:937,_ZN7testing8internal16TypedExpectationIFhvEE5TimesEi
FN:937,_ZN7testing8internal16TypedExpectationIFvhhEE5TimesEi
FN:937,_ZN7testing8internal16TypedExpectationIFmhhmEE5TimesEi
FN:937,_ZN7testing8internal16TypedExpectationIFvhPFvvEiEE5TimesEi
FN:937,_ZN7testing8internal16TypedExpectationIFvvEE5TimesEi
FN:937,_ZN7testing8internal16TypedExpectationIFviiEE5TimesEi
FN:937,_ZN7testing8internal16TypedExpectationIFmvEE5TimesEi
FN:937,_ZN7testing8internal16TypedExpectationIFivEE5TimesEi
FN:937,_ZN7testing8internal16TypedExpectationIFjvEE5TimesEi
FN:937,_ZN7testing8internal16TypedExpectationIFvmEE5TimesEi
FN:937,_ZN7testing8internal16TypedExpectationIFvhEE5TimesEi
FN:937,_ZN7testing8internal16TypedExpectationIFbvEE5TimesEi
FN:937,_ZN7testing8internal16TypedExpectationIFhhhEE5TimesEi
FN:937,_ZN7testing8internal16TypedExpectationIFfvEE5TimesEi
FN:937,_ZN7testing8internal16TypedExpectationIFihEE5TimesEi
FN:942,_ZN7testing8internal16TypedExpectationIFmhEE10InSequenceERKNS_8SequenceE
FN:942,_ZN7testing8internal16TypedExpectationIFivEE10InSequenceERKNS_8SequenceE
FN:1000,_ZN7testing8internal16TypedExpectationIFmvEE8WillOnceERKNS_6ActionIS2_EE
FN:1000,_ZN7testing8internal16TypedExpectationIFlvEE8WillOnceERKNS_6ActionIS2_EE
FN:1000,_ZN7testing8internal16TypedExpectationIFjvEE8WillOnceERKNS_6ActionIS2_EE
FN:1000,_ZN7testing8internal16TypedExpectationIFmhhmEE8WillOnceERKNS_6ActionIS2_EE
FN:1000,_ZN7testing8internal16TypedExpectationIFahEE8WillOnceERKNS_6ActionIS2_EE
FN:1000,_ZN7testing8internal16TypedExpectationIFfvEE8WillOnceERKNS_6ActionIS2_EE
FN:1000,_ZN7testing8internal16TypedExpectationIFviEE8WillOnceERKNS_6ActionIS2_EE
FN:1000,_ZN7testing8internal16TypedExpectationIFvhPFvvEiEE8WillOnceERKNS_6ActionIS4_EE
FN:1000,_ZN7testing8internal16TypedExpectationIFivEE8WillOnceERKNS_6ActionIS2_EE
FN:1000,_ZN7testing8internal16TypedExpectationIFihEE8WillOnceERKNS_6ActionIS2_EE
FN:1000,_ZN7testing8internal16TypedExpectationIFbvEE8WillOnceERKNS_6ActionIS2_EE
FN:1014,_ZN7testing8internal16TypedExpectationIFivEE14WillRepeatedlyERKNS_6ActionIS2_EE
FN:1014,_ZN7testing8internal16TypedExpectationIFmvEE14WillRepeatedlyERKNS_6ActionIS2_EE
FN:1014,_ZN7testing8internal16TypedExpectationIFbvEE14WillRepeatedlyERKNS_6ActionIS2_EE
FN:1014,_ZN7testing8internal16TypedExpectationIFihEE14WillRepeatedlyERKNS_6ActionIS2_EE
FN:1014,_ZN7testing8internal16TypedExpectationIFlvEE14WillRepeatedlyERKNS_6ActionIS2_EE
FN:1014,_ZN7testing8internal16TypedExpectationIFfvEE14WillRepeatedlyERKNS_6ActionIS2_EE
FN:1064,_ZNK7testing8internal16TypedExpectationIFvhEE15repeated_actionEv
FN:1064,_ZNK7testing8internal16TypedExpectationIFivEE15repeated_actionEv
FN:1064,_ZNK7testing8internal16TypedExpectationIFvhPFvvEiEE15repeated_actionEv
FN:1064,_ZNK7testing8internal16TypedExpectationIFviiEE15repeated_actionEv
FN:1064,_ZNK7testing8internal16TypedExpectationIFihEE15repeated_actionEv
FN:1064,_ZNK7testing8internal16TypedExpectationIFjvEE15repeated_actionEv
FN:1064,_ZNK7testing8internal16TypedExpectationIFvmEE15repeated_actionEv
FN:1064,_ZNK7testing8internal16TypedExpectationIFvhhEE15repeated_actionEv
FN:1064,_ZNK7testing8internal16TypedExpectationIFvhiEE15repeated_actionEv
FN:1064,_ZNK7testing8internal16TypedExpectationIFvhiiEE15repeated_actionEv
FN:1064,_ZNK7testing8internal16TypedExpectationIFviEE15repeated_actionEv
FN:1064,_ZNK7testing8internal16TypedExpectationIFvvEE15repeated_actionEv
FN:1064,_ZNK7testing8internal16TypedExpectationIFlvEE15repeated_actionEv
FN:1064,_ZNK7testing8internal16TypedExpectationIFmhEE15repeated_actionEv
FN:1064,_ZNK7testing8internal16TypedExpectationIFbvEE15repeated_actionEv
FN:1064,_ZNK7testing8internal16TypedExpectationIFmhhmEE15repeated_actionEv
FN:1064,_ZNK7testing8internal16TypedExpectationIFmvEE15repeated_actionEv
FN:1064,_ZNK7testing8internal16TypedExpectationIFfvEE15repeated_actionEv
FN:1064,_ZNK7testing8internal16TypedExpectationIFahEE15repeated_actionEv
FN:1064,_ZNK7testing8internal16TypedExpectationIFvjEE15repeated_actionEv
FN:1064,_ZNK7testing8internal16TypedExpectationIFhvEE15repeated_actionEv
FN:1064,_ZNK7testing8internal16TypedExpectationIFhhhEE15repeated_actionEv
FN:1068,_ZN7testing8internal16TypedExpectationIFvhhEE27MaybeDescribeExtraMatcherToEPSo
FN:1068,_ZN7testing8internal16TypedExpectationIFvjEE27MaybeDescribeExtraMatcherToEPSo
FN:1068,_ZN7testing8internal16TypedExpectationIFviiEE27MaybeDescribeExtraMatcherToEPSo
FN:1068,_ZN7testing8internal16TypedExpectationIFvmEE27MaybeDescribeExtraMatcherToEPSo
FN:1068,_ZN7testing8internal16TypedExpectationIFlvEE27MaybeDescribeExtraMatcherToEPSo
FN:1068,_ZN7testing8internal16TypedExpectationIFhvEE27MaybeDescribeExtraMatcherToEPSo
FN:1068,_ZN7testing8internal16TypedExpectationIFmhEE27MaybeDescribeExtraMatcherToEPSo
FN:1068,_ZN7testing8internal16TypedExpectationIFvhiEE27MaybeDescribeExtraMatcherToEPSo
FN:1068,_ZN7testing8internal16TypedExpectationIFbvEE27MaybeDescribeExtraMatcherToEPSo
FN:1068,_ZN7testing8internal16TypedExpectationIFhhhEE27MaybeDescribeExtraMatcherToEPSo
FN:1068,_ZN7testing8internal16TypedExpectationIFfvEE27MaybeDescribeExtraMatcherToEPSo
FN:1068,_ZN7testing8internal16TypedExpectationIFahEE27MaybeDescribeExtraMatcherToEPSo
FN:1068,_ZN7testing8internal16TypedExpectationIFivEE27MaybeDescribeExtraMatcherToEPSo
FN:1068,_ZN7testing8internal16TypedExpectationIFmvEE27MaybeDescribeExtraMatcherToEPSo
FN:1068,_ZN7testing8internal16TypedExpectationIFviEE27MaybeDescribeExtraMatcherToEPSo
FN:1068,_ZN7testing8internal16TypedExpectationIFvhiiEE27MaybeDescribeExtraMatcherToEPSo
FN:1068,_ZN7testing8internal16TypedExpectationIFihEE27MaybeDescribeExtraMatcherToEPSo
FN:1068,_ZN7testing8internal16TypedExpectationIFvhPFvvEiEE27MaybeDescribeExtraMatcherToEPSo
FN:1068,_ZN7testing8internal16TypedExpectationIFjvEE27MaybeDescribeExtraMatcherToEPSo
FN:1068,_ZN7testing8internal16TypedExpectationIFvvEE27MaybeDescribeExtraMatcherToEPSo
FN:1068,_ZN7testing8internal16TypedExpectationIFvhEE27MaybeDescribeExtraMatcherToEPSo
FN:1068,_ZN7testing8internal16TypedExpectationIFmhhmEE27MaybeDescribeExtraMatcherToEPSo
FN:1082,_ZN7testing8internal16TypedExpectationIFivEE9GetHandleEv
FN:1082,_ZN7testing8internal16TypedExpectationIFahEE9GetHandleEv
FN:1082,_ZN7testing8internal16TypedExpectationIFbvEE9GetHandleEv
FN:1082,_ZN7testing8internal16TypedExpectationIFvvEE9GetHandleEv
FN:1082,_ZN7testing8internal16TypedExpectationIFihEE9GetHandleEv
FN:1082,_ZN7testing8internal16TypedExpectationIFhhhEE9GetHandleEv
FN:1082,_ZN7testing8internal16TypedExpectationIFvhPFvvEiEE9GetHandleEv
FN:1082,_ZN7testing8internal16TypedExpectationIFhvEE9GetHandleEv
FN:1082,_ZN7testing8internal16TypedExpectationIFvhiiEE9GetHandleEv
FN:1082,_ZN7testing8internal16TypedExpectationIFviEE9GetHandleEv
FN:1082,_ZN7testing8internal16TypedExpectationIFvhiEE9GetHandleEv
FN:1082,_ZN7testing8internal16TypedExpectationIFfvEE9GetHandleEv
FN:1082,_ZN7testing8internal16TypedExpectationIFvhhEE9GetHandleEv
FN:1082,_ZN7testing8internal16TypedExpectationIFlvEE9GetHandleEv
FN:1082,_ZN7testing8internal16TypedExpectationIFjvEE9GetHandleEv
FN:1082,_ZN7testing8internal16TypedExpectationIFmvEE9GetHandleEv
FN:1082,_ZN7testing8internal16TypedExpectationIFmhEE9GetHandleEv
FN:1082,_ZN7testing8internal16TypedExpectationIFviiEE9GetHandleEv
FN:1082,_ZN7testing8internal16TypedExpectationIFvjEE9GetHandleEv
FN:1082,_ZN7testing8internal16TypedExpectationIFvmEE9GetHandleEv
FN:1082,_ZN7testing8internal16TypedExpectationIFmhhmEE9GetHandleEv
FN:1082,_ZN7testing8internal16TypedExpectationIFvhEE9GetHandleEv
FN:1089,_ZNK7testing8internal16TypedExpectationIFbvEE7MatchesERKSt5tupleIJEE
FN:1089,_ZNK7testing8internal16TypedExpectationIFviiEE7MatchesERKSt5tupleIJiiEE
FN:1089,_ZNK7testing8internal16TypedExpectationIFvvEE7MatchesERKSt5tupleIJEE
FN:1089,_ZNK7testing8internal16TypedExpectationIFviEE7MatchesERKSt5tupleIJiEE
FN:1089,_ZNK7testing8internal16TypedExpectationIFhhhEE7MatchesERKSt5tupleIJhhEE
FN:1089,_ZNK7testing8internal16TypedExpectationIFmvEE7MatchesERKSt5tupleIJEE
FN:1089,_ZNK7testing8internal16TypedExpectationIFmhEE7MatchesERKSt5tupleIJhEE
FN:1089,_ZNK7testing8internal16TypedExpectationIFvhiiEE7MatchesERKSt5tupleIJhiiEE
FN:1089,_ZNK7testing8internal16TypedExpectationIFmhhmEE7MatchesERKSt5tupleIJhhmEE
FN:1089,_ZNK7testing8internal16TypedExpectationIFivEE7MatchesERKSt5tupleIJEE
FN:1089,_ZNK7testing8internal16TypedExpectationIFvhhEE7MatchesERKSt5tupleIJhhEE
FN:1089,_ZNK7testing8internal16TypedExpectationIFihEE7MatchesERKSt5tupleIJhEE
FN:1089,_ZNK7testing8internal16TypedExpectationIFjvEE7MatchesERKSt5tupleIJEE
FN:1089,_ZNK7testing8internal16TypedExpectationIFvjEE7MatchesERKSt5tupleIJjEE
FN:1089,_ZNK7testing8internal16TypedExpectationIFhvEE7MatchesERKSt5tupleIJEE
FN:1089,_ZNK7testing8internal16TypedExpectationIFvmEE7MatchesERKSt5tupleIJmEE
FN:1089,_ZNK7testing8internal16TypedExpectationIFfvEE7MatchesERKSt5tupleIJEE
FN:1089,_ZNK7testing8internal16TypedExpectationIFlvEE7MatchesERKSt5tupleIJEE
FN:1089,_ZNK7testing8internal16TypedExpectationIFahEE7MatchesERKSt5tupleIJhEE
FN:1089,_ZNK7testing8internal16TypedExpectationIFvhEE7MatchesERKSt5tupleIJhEE
FN:1089,_ZNK7testing8internal16TypedExpectationIFvhPFvvEiEE7MatchesERKSt5tupleIJhS3_iEE
FN:1089,_ZNK7testing8internal16TypedExpectationIFvhiEE7MatchesERKSt5tupleIJhiEE
FN:1096,_ZNK7testing8internal16TypedExpectationIFvhPFvvEiEE21ShouldHandleArgumentsERKSt5tupleIJhS3_iEE
FN:1096,_ZNK7testing8internal16TypedExpectationIFvhhEE21ShouldHandleArgumentsERKSt5tupleIJhhEE
FN:1096,_ZNK7testing8internal16TypedExpectationIFmvEE21ShouldHandleArgumentsERKSt5tupleIJEE
FN:1096,_ZNK7testing8internal16TypedExpectationIFivEE21ShouldHandleArgumentsERKSt5tupleIJEE
FN:1096,_ZNK7testing8internal16TypedExpectationIFhhhEE21ShouldHandleArgumentsERKSt5tupleIJhhEE
FN:1096,_ZNK7testing8internal16TypedExpectationIFvmEE21ShouldHandleArgumentsERKSt5tupleIJmEE
FN:1096,_ZNK7testing8internal16TypedExpectationIFvjEE21ShouldHandleArgumentsERKSt5tupleIJjEE
FN:1096,_ZNK7testing8internal16TypedExpectationIFvhiiEE21ShouldHandleArgumentsERKSt5tupleIJhiiEE
FN:1096,_ZNK7testing8internal16TypedExpectationIFfvEE21ShouldHandleArgumentsERKSt5tupleIJEE
FN:1096,_ZNK7testing8internal16TypedExpectationIFbvEE21ShouldHandleArgumentsERKSt5tupleIJEE
FN:1096,_ZNK7testing8internal16TypedExpectationIFjvEE21ShouldHandleArgumentsERKSt5tupleIJEE
FN:1096,_ZNK7testing8internal16TypedExpectationIFvhEE21ShouldHandleArgumentsERKSt5tupleIJhEE
FN:1096,_ZNK7testing8internal16TypedExpectationIFviEE21ShouldHandleArgumentsERKSt5tupleIJiEE
FN:1096,_ZNK7testing8internal16TypedExpectationIFhvEE21ShouldHandleArgumentsERKSt5tupleIJEE
FN:1096,_ZNK7testing8internal16TypedExpectationIFmhEE21ShouldHandleArgumentsERKSt5tupleIJhEE
FN:1096,_ZNK7testing8internal16TypedExpectationIFmhhmEE21ShouldHandleArgumentsERKSt5tupleIJhhmEE
FN:1096,_ZNK7testing8internal16TypedExpectationIFlvEE21ShouldHandleArgumentsERKSt5tupleIJEE
FN:1096,_ZNK7testing8internal16TypedExpectationIFvhiEE21ShouldHandleArgumentsERKSt5tupleIJhiEE
FN:1096,_ZNK7testing8internal16TypedExpectationIFvvEE21ShouldHandleArgumentsERKSt5tupleIJEE
FN:1096,_ZNK7testing8internal16TypedExpectationIFahEE21ShouldHandleArgumentsERKSt5tupleIJhEE
FN:1096,_ZNK7testing8internal16TypedExpectationIFviiEE21ShouldHandleArgumentsERKSt5tupleIJiiEE
FN:1096,_ZNK7testing8internal16TypedExpectationIFihEE21ShouldHandleArgumentsERKSt5tupleIJhEE
FN:1110,_ZNK7testing8internal16TypedExpectationIFihEE20ExplainMatchResultToERKSt5tupleIJhEEPSo
FN:1110,_ZNK7testing8internal16TypedExpectationIFahEE20ExplainMatchResultToERKSt5tupleIJhEEPSo
FN:1110,_ZNK7testing8internal16TypedExpectationIFmvEE20ExplainMatchResultToERKSt5tupleIJEEPSo
FN:1110,_ZNK7testing8internal16TypedExpectationIFfvEE20ExplainMatchResultToERKSt5tupleIJEEPSo
FN:1110,_ZNK7testing8internal16TypedExpectationIFvvEE20ExplainMatchResultToERKSt5tupleIJEEPSo
FN:1110,_ZNK7testing8internal16TypedExpectationIFvmEE20ExplainMatchResultToERKSt5tupleIJmEEPSo
FN:1110,_ZNK7testing8internal16TypedExpectationIFvhPFvvEiEE20ExplainMatchResultToERKSt5tupleIJhS3_iEEPSo
FN:1110,_ZNK7testing8internal16TypedExpectationIFlvEE20ExplainMatchResultToERKSt5tupleIJEEPSo
FN:1110,_ZNK7testing8internal16TypedExpectationIFivEE20ExplainMatchResultToERKSt5tupleIJEEPSo
FN:1110,_ZNK7testing8internal16TypedExpectationIFvhiEE20ExplainMatchResultToERKSt5tupleIJhiEEPSo
FN:1110,_ZNK7testing8internal16TypedExpectationIFjvEE20ExplainMatchResultToERKSt5tupleIJEEPSo
FN:1110,_ZNK7testing8internal16TypedExpectationIFhvEE20ExplainMatchResultToERKSt5tupleIJEEPSo
FN:1110,_ZNK7testing8internal16TypedExpectationIFvhhEE20ExplainMatchResultToERKSt5tupleIJhhEEPSo
FN:1110,_ZNK7testing8internal16TypedExpectationIFmhhmEE20ExplainMatchResultToERKSt5tupleIJhhmEEPSo
FN:1110,_ZNK7testing8internal16TypedExpectationIFhhhEE20ExplainMatchResultToERKSt5tupleIJhhEEPSo
FN:1110,_ZNK7testing8internal16TypedExpectationIFmhEE20ExplainMatchResultToERKSt5tupleIJhEEPSo
FN:1110,_ZNK7testing8internal16TypedExpectationIFvjEE20ExplainMatchResultToERKSt5tupleIJjEEPSo
FN:1110,_ZNK7testing8internal16TypedExpectationIFvhEE20ExplainMatchResultToERKSt5tupleIJhEEPSo
FN:1110,_ZNK7testing8internal16TypedExpectationIFbvEE20ExplainMatchResultToERKSt5tupleIJEEPSo
FN:1110,_ZNK7testing8internal16TypedExpectationIFviiEE20ExplainMatchResultToERKSt5tupleIJiiEEPSo
FN:1110,_ZNK7testing8internal16TypedExpectationIFviEE20ExplainMatchResultToERKSt5tupleIJiEEPSo
FN:1110,_ZNK7testing8internal16TypedExpectationIFvhiiEE20ExplainMatchResultToERKSt5tupleIJhiiEEPSo
FN:1155,_ZNK7testing8internal16TypedExpectationIFvvEE16GetCurrentActionEPKNS0_14FunctionMockerIS2_EERKSt5tupleIJEE
FN:1155,_ZNK7testing8internal16TypedExpectationIFfvEE16GetCurrentActionEPKNS0_14FunctionMockerIS2_EERKSt5tupleIJEE
FN:1155,_ZNK7testing8internal16TypedExpectationIFlvEE16GetCurrentActionEPKNS0_14FunctionMockerIS2_EERKSt5tupleIJEE
FN:1155,_ZNK7testing8internal16TypedExpectationIFmhhmEE16GetCurrentActionEPKNS0_14FunctionMockerIS2_EERKSt5tupleIJhhmEE
FN:1155,_ZNK7testing8internal16TypedExpectationIFvjEE16GetCurrentActionEPKNS0_14FunctionMockerIS2_EERKSt5tupleIJjEE
FN:1155,_ZNK7testing8internal16TypedExpectationIFvhPFvvEiEE16GetCurrentActionEPKNS0_14FunctionMockerIS4_EERKSt5tupleIJhS3_iEE
FN:1155,_ZNK7testing8internal16TypedExpectationIFjvEE16GetCurrentActionEPKNS0_14FunctionMockerIS2_EERKSt5tupleIJEE
FN:1155,_ZNK7testing8internal16TypedExpectationIFbvEE16GetCurrentActionEPKNS0_14FunctionMockerIS2_EERKSt5tupleIJEE
FN:1155,_ZNK7testing8internal16TypedExpectationIFmhEE16GetCurrentActionEPKNS0_14FunctionMockerIS2_EERKSt5tupleIJhEE
FN:1155,_ZNK7testing8internal16TypedExpectationIFviEE16GetCurrentActionEPKNS0_14FunctionMockerIS2_EERKSt5tupleIJiEE
FN:1155,_ZNK7testing8internal16TypedExpectationIFivEE16GetCurrentActionEPKNS0_14FunctionMockerIS2_EERKSt5tupleIJEE
FN:1155,_ZNK7testing8internal16TypedExpectationIFvhEE16GetCurrentActionEPKNS0_14FunctionMockerIS2_EERKSt5tupleIJhEE
FN:1155,_ZNK7testing8internal16TypedExpectationIFvhiiEE16GetCurrentActionEPKNS0_14FunctionMockerIS2_EERKSt5tupleIJhiiEE
FN:1155,_ZNK7testing8internal16TypedExpectationIFvhiEE16GetCurrentActionEPKNS0_14FunctionMockerIS2_EERKSt5tupleIJhiEE
FN:1155,_ZNK7testing8internal16TypedExpectationIFihEE16GetCurrentActionEPKNS0_14FunctionMockerIS2_EERKSt5tupleIJhEE
FN:1155,_ZNK7testing8internal16TypedExpectationIFviiEE16GetCurrentActionEPKNS0_14FunctionMockerIS2_EERKSt5tupleIJiiEE
FN:1155,_ZNK7testing8internal16TypedExpectationIFhhhEE16GetCurrentActionEPKNS0_14FunctionMockerIS2_EERKSt5tupleIJhhEE
FN:1155,_ZNK7testing8internal16TypedExpectationIFvmEE16GetCurrentActionEPKNS0_14FunctionMockerIS2_EERKSt5tupleIJmEE
FN:1155,_ZNK7testing8internal16TypedExpectationIFvhhEE16GetCurrentActionEPKNS0_14FunctionMockerIS2_EERKSt5tupleIJhhEE
FN:1155,_ZNK7testing8internal16TypedExpectationIFmvEE16GetCurrentActionEPKNS0_14FunctionMockerIS2_EERKSt5tupleIJEE
FN:1155,_ZNK7testing8internal16TypedExpectationIFhvEE16GetCurrentActionEPKNS0_14FunctionMockerIS2_EERKSt5tupleIJEE
FN:1155,_ZNK7testing8internal16TypedExpectationIFahEE16GetCurrentActionEPKNS0_14FunctionMockerIS2_EERKSt5tupleIJhEE
FN:1192,_ZN7testing8internal16TypedExpectationIFvhhEE21GetActionForArgumentsEPKNS0_14FunctionMockerIS2_EERKSt5tupleIJhhEEPSoSC_
FN:1192,_ZN7testing8internal16TypedExpectationIFvhiEE21GetActionForArgumentsEPKNS0_14FunctionMockerIS2_EERKSt5tupleIJhiEEPSoSC_
FN:1192,_ZN7testing8internal16TypedExpectationIFmhhmEE21GetActionForArgumentsEPKNS0_14FunctionMockerIS2_EERKSt5tupleIJhhmEEPSoSC_
FN:1192,_ZN7testing8internal16TypedExpectationIFvjEE21GetActionForArgumentsEPKNS0_14FunctionMockerIS2_EERKSt5tupleIJjEEPSoSC_
FN:1192,_ZN7testing8internal16TypedExpectationIFihEE21GetActionForArgumentsEPKNS0_14FunctionMockerIS2_EERKSt5tupleIJhEEPSoSC_
FN:1192,_ZN7testing8internal16TypedExpectationIFvhiiEE21GetActionForArgumentsEPKNS0_14FunctionMockerIS2_EERKSt5tupleIJhiiEEPSoSC_
FN:1192,_ZN7testing8internal16TypedExpectationIFvmEE21GetActionForArgumentsEPKNS0_14FunctionMockerIS2_EERKSt5tupleIJmEEPSoSC_
FN:1192,_ZN7testing8internal16TypedExpectationIFmhEE21GetActionForArgumentsEPKNS0_14FunctionMockerIS2_EERKSt5tupleIJhEEPSoSC_
FN:1192,_ZN7testing8internal16TypedExpectationIFmvEE21GetActionForArgumentsEPKNS0_14FunctionMockerIS2_EERKSt5tupleIJEEPSoSC_
FN:1192,_ZN7testing8internal16TypedExpectationIFjvEE21GetActionForArgumentsEPKNS0_14FunctionMockerIS2_EERKSt5tupleIJEEPSoSC_
FN:1192,_ZN7testing8internal16TypedExpectationIFvhEE21GetActionForArgumentsEPKNS0_14FunctionMockerIS2_EERKSt5tupleIJhEEPSoSC_
FN:1192,_ZN7testing8internal16TypedExpectationIFlvEE21GetActionForArgumentsEPKNS0_14FunctionMockerIS2_EERKSt5tupleIJEEPSoSC_
FN:1192,_ZN7testing8internal16TypedExpectationIFhvEE21GetActionForArgumentsEPKNS0_14FunctionMockerIS2_EERKSt5tupleIJEEPSoSC_
FN:1192,_ZN7testing8internal16TypedExpectationIFahEE21GetActionForArgumentsEPKNS0_14FunctionMockerIS2_EERKSt5tupleIJhEEPSoSC_
FN:1192,_ZN7testing8internal16TypedExpectationIFvhPFvvEiEE21GetActionForArgumentsEPKNS0_14FunctionMockerIS4_EERKSt5tupleIJhS3_iEEPSoSE_
FN:1192,_ZN7testing8internal16TypedExpectationIFhhhEE21GetActionForArgumentsEPKNS0_14FunctionMockerIS2_EERKSt5tupleIJhhEEPSoSC_
FN:1192,_ZN7testing8internal16TypedExpectationIFivEE21GetActionForArgumentsEPKNS0_14FunctionMockerIS2_EERKSt5tupleIJEEPSoSC_
FN:1192,_ZN7testing8internal16TypedExpectationIFviiEE21GetActionForArgumentsEPKNS0_14FunctionMockerIS2_EERKSt5tupleIJiiEEPSoSC_
FN:1192,_ZN7testing8internal16TypedExpectationIFvvEE21GetActionForArgumentsEPKNS0_14FunctionMockerIS2_EERKSt5tupleIJEEPSoSC_
FN:1192,_ZN7testing8internal16TypedExpectationIFfvEE21GetActionForArgumentsEPKNS0_14FunctionMockerIS2_EERKSt5tupleIJEEPSoSC_
FN:1192,_ZN7testing8internal16TypedExpectationIFviEE21GetActionForArgumentsEPKNS0_14FunctionMockerIS2_EERKSt5tupleIJiEEPSoSC_
FN:1192,_ZN7testing8internal16TypedExpectationIFbvEE21GetActionForArgumentsEPKNS0_14FunctionMockerIS2_EERKSt5tupleIJEEPSoSC_
FN:1246,_ZN7testing8internal8MockSpecIFhhhEED2Ev
FN:1246,_ZN7testing8internal8MockSpecIFvmEED2Ev
FN:1246,_ZN7testing8internal8MockSpecIFvhPFvvEiEED2Ev
FN:1246,_ZN7testing8internal8MockSpecIFvjEED2Ev
FN:1246,_ZN7testing8internal8MockSpecIFviiEED2Ev
FN:1246,_ZN7testing8internal8MockSpecIFvhEED2Ev
FN:1246,_ZN7testing8internal8MockSpecIFihEED2Ev
FN:1246,_ZN7testing8internal8MockSpecIFmhEED2Ev
FN:1246,_ZN7testing8internal8MockSpecIFviEED2Ev
FN:1246,_ZN7testing8internal8MockSpecIFvhhEED2Ev
FN:1246,_ZN7testing8internal8MockSpecIFvhiiEED2Ev
FN:1246,_ZN7testing8internal8MockSpecIFahEED2Ev
FN:1246,_ZN7testing8internal8MockSpecIFvhiEED2Ev
FN:1246,_ZN7testing8internal8MockSpecIFmhhmEED2Ev
FN:1254,_ZN7testing8internal8MockSpecIFlvEEC2EPNS0_14FunctionMockerIS2_EERKSt5tupleIJEE
FN:1254,_ZN7testing8internal8MockSpecIFvmEEC2EPNS0_14FunctionMockerIS2_EERKSt5tupleIJNS_7MatcherImEEEE
FN:1254,_ZN7testing8internal8MockSpecIFivEEC2EPNS0_14FunctionMockerIS2_EERKSt5tupleIJEE
FN:1254,_ZN7testing8internal8MockSpecIFfvEEC2EPNS0_14FunctionMockerIS2_EERKSt5tupleIJEE
FN:1254,_ZN7testing8internal8MockSpecIFvjEEC2EPNS0_14FunctionMockerIS2_EERKSt5tupleIJNS_7MatcherIjEEEE
FN:1254,_ZN7testing8internal8MockSpecIFmvEEC2EPNS0_14FunctionMockerIS2_EERKSt5tupleIJEE
FN:1254,_ZN7testing8internal8MockSpecIFvhEEC2EPNS0_14FunctionMockerIS2_EERKSt5tupleIJNS_7MatcherIhEEEE
FN:1254,_ZN7testing8internal8MockSpecIFhvEEC2EPNS0_14FunctionMockerIS2_EERKSt5tupleIJEE
FN:1254,_ZN7testing8internal8MockSpecIFviEEC2EPNS0_14FunctionMockerIS2_EERKSt5tupleIJNS_7MatcherIiEEEE
FN:1254,_ZN7testing8internal8MockSpecIFbvEEC2EPNS0_14FunctionMockerIS2_EERKSt5tupleIJEE
FN:1254,_ZN7testing8internal8MockSpecIFvhiEEC2EPNS0_14FunctionMockerIS2_EERKSt5tupleIJNS_7MatcherIhEENS8_IiEEEE
FN:1254,_ZN7testing8internal8MockSpecIFvhPFvvEiEEC2EPNS0_14FunctionMockerIS4_EERKSt5tupleIJNS_7MatcherIhEENSA_IS3_EENSA_IiEEEE
FN:1254,_ZN7testing8internal8MockSpecIFmhhmEEC2EPNS0_14FunctionMockerIS2_EERKSt5tupleIJNS_7MatcherIhEES9_NS8_ImEEEE
FN:1254,_ZN7testing8internal8MockSpecIFvhhEEC2EPNS0_14FunctionMockerIS2_EERKSt5tupleIJNS_7MatcherIhEES9_EE
FN:1254,_ZN7testing8internal8MockSpecIFhhhEEC2EPNS0_14FunctionMockerIS2_EERKSt5tupleIJNS_7MatcherIhEES9_EE
FN:1254,_ZN7testing8internal8MockSpecIFmhEEC2EPNS0_14FunctionMockerIS2_EERKSt5tupleIJNS_7MatcherIhEEEE
FN:1254,_ZN7testing8internal8MockSpecIFahEEC2EPNS0_14FunctionMockerIS2_EERKSt5tupleIJNS_7MatcherIhEEEE
FN:1254,_ZN7testing8internal8MockSpecIFvhiiEEC2EPNS0_14FunctionMockerIS2_EERKSt5tupleIJNS_7MatcherIhEENS8_IiEESA_EE
FN:1254,_ZN7testing8internal8MockSpecIFviiEEC2EPNS0_14FunctionMockerIS2_EERKSt5tupleIJNS_7MatcherIiEES9_EE
FN:1254,_ZN7testing8internal8MockSpecIFvvEEC2EPNS0_14FunctionMockerIS2_EERKSt5tupleIJEE
FN:1254,_ZN7testing8internal8MockSpecIFihEEC2EPNS0_14FunctionMockerIS2_EERKSt5tupleIJNS_7MatcherIhEEEE
FN:1254,_ZN7testing8internal8MockSpecIFjvEEC2EPNS0_14FunctionMockerIS2_EERKSt5tupleIJEE
FN:1260,_ZN7testing8internal8MockSpecIFahEE26InternalDefaultActionSetAtEPKciS5_S5_
FN:1260,_ZN7testing8internal8MockSpecIFfvEE26InternalDefaultActionSetAtEPKciS5_S5_
FN:1260,_ZN7testing8internal8MockSpecIFivEE26InternalDefaultActionSetAtEPKciS5_S5_
FN:1260,_ZN7testing8internal8MockSpecIFbvEE26InternalDefaultActionSetAtEPKciS5_S5_
FN:1260,_ZN7testing8internal8MockSpecIFmvEE26InternalDefaultActionSetAtEPKciS5_S5_
FN:1269,_ZN7testing8internal8MockSpecIFvjEE18InternalExpectedAtEPKciS5_S5_
FN:1269,_ZN7testing8internal8MockSpecIFbvEE18InternalExpectedAtEPKciS5_S5_
FN:1269,_ZN7testing8internal8MockSpecIFmhhmEE18InternalExpectedAtEPKciS5_S5_
FN:1269,_ZN7testing8internal8MockSpecIFlvEE18InternalExpectedAtEPKciS5_S5_
FN:1269,_ZN7testing8internal8MockSpecIFmvEE18InternalExpectedAtEPKciS5_S5_
FN:1269,_ZN7testing8internal8MockSpecIFviEE18InternalExpectedAtEPKciS5_S5_
FN:1269,_ZN7testing8internal8MockSpecIFjvEE18InternalExpectedAtEPKciS5_S5_
FN:1269,_ZN7testing8internal8MockSpecIFvmEE18InternalExpectedAtEPKciS5_S5_
FN:1269,_ZN7testing8internal8MockSpecIFhhhEE18InternalExpectedAtEPKciS5_S5_
FN:1269,_ZN7testing8internal8MockSpecIFviiEE18InternalExpectedAtEPKciS5_S5_
FN:1269,_ZN7testing8internal8MockSpecIFvhPFvvEiEE18InternalExpectedAtEPKciS7_S7_
FN:1269,_ZN7testing8internal8MockSpecIFhvEE18InternalExpectedAtEPKciS5_S5_
FN:1269,_ZN7testing8internal8MockSpecIFahEE18InternalExpectedAtEPKciS5_S5_
FN:1269,_ZN7testing8internal8MockSpecIFvvEE18InternalExpectedAtEPKciS5_S5_
FN:1269,_ZN7testing8internal8MockSpecIFivEE18InternalExpectedAtEPKciS5_S5_
FN:1269,_ZN7testing8internal8MockSpecIFvhEE18InternalExpectedAtEPKciS5_S5_
FN:1269,_ZN7testing8internal8MockSpecIFihEE18InternalExpectedAtEPKciS5_S5_
FN:1269,_ZN7testing8internal8MockSpecIFmhEE18InternalExpectedAtEPKciS5_S5_
FN:1269,_ZN7testing8internal8MockSpecIFvhiiEE18InternalExpectedAtEPKciS5_S5_
FN:1269,_ZN7testing8internal8MockSpecIFvhhEE18InternalExpectedAtEPKciS5_S5_
FN:1269,_ZN7testing8internal8MockSpecIFfvEE18InternalExpectedAtEPKciS5_S5_
FN:1269,_ZN7testing8internal8MockSpecIFvhiEE18InternalExpectedAtEPKciS5_S5_
FN:1281,_ZN7testing8internal8MockSpecIFlvEEclERKNS0_15WithoutMatchersEPv
FN:1281,_ZN7testing8internal8MockSpecIFfvEEclERKNS0_15WithoutMatchersEPv
FN:1281,_ZN7testing8internal8MockSpecIFviiEEclERKNS0_15WithoutMatchersEPv
FN:1281,_ZN7testing8internal8MockSpecIFvmEEclERKNS0_15WithoutMatchersEPv
FN:1281,_ZN7testing8internal8MockSpecIFvjEEclERKNS0_15WithoutMatchersEPv
FN:1281,_ZN7testing8internal8MockSpecIFhvEEclERKNS0_15WithoutMatchersEPv
FN:1281,_ZN7testing8internal8MockSpecIFvhiiEEclERKNS0_15WithoutMatchersEPv
FN:1281,_ZN7testing8internal8MockSpecIFmhhmEEclERKNS0_15WithoutMatchersEPv
FN:1281,_ZN7testing8internal8MockSpecIFvvEEclERKNS0_15WithoutMatchersEPv
FN:1281,_ZN7testing8internal8MockSpecIFivEEclERKNS0_15WithoutMatchersEPv
FN:1281,_ZN7testing8internal8MockSpecIFahEEclERKNS0_15WithoutMatchersEPv
FN:1281,_ZN7testing8internal8MockSpecIFviEEclERKNS0_15WithoutMatchersEPv
FN:1281,_ZN7testing8internal8MockSpecIFmvEEclERKNS0_15WithoutMatchersEPv
FN:1281,_ZN7testing8internal8MockSpecIFvhiEEclERKNS0_15WithoutMatchersEPv
FN:1281,_ZN7testing8internal8MockSpecIFbvEEclERKNS0_15WithoutMatchersEPv
FN:1281,_ZN7testing8internal8MockSpecIFjvEEclERKNS0_15WithoutMatchersEPv
FN:1281,_ZN7testing8internal8MockSpecIFvhEEclERKNS0_15WithoutMatchersEPv
FN:1281,_ZN7testing8internal8MockSpecIFvhhEEclERKNS0_15WithoutMatchersEPv
FN:1281,_ZN7testing8internal8MockSpecIFihEEclERKNS0_15WithoutMatchersEPv
FN:1281,_ZN7testing8internal8MockSpecIFvhPFvvEiEEclERKNS0_15WithoutMatchersEPv
FN:1281,_ZN7testing8internal8MockSpecIFhhhEEclERKNS0_15WithoutMatchersEPv
FN:1281,_ZN7testing8internal8MockSpecIFmhEEclERKNS0_15WithoutMatchersEPv
FN:1310,_ZN7testing8internal23ReferenceOrValueWrapperIjEC2Ej
FN:1310,_ZN7testing8internal23ReferenceOrValueWrapperIbEC2Eb
FN:1310,_ZN7testing8internal23ReferenceOrValueWrapperImEC2Em
FN:1310,_ZN7testing8internal23ReferenceOrValueWrapperIaEC2Ea
FN:1310,_ZN7testing8internal23ReferenceOrValueWrapperIiEC2Ei
FN:1310,_ZN7testing8internal23ReferenceOrValueWrapperIfEC2Ef
FN:1310,_ZN7testing8internal23ReferenceOrValueWrapperIhEC2Eh
FN:1310,_ZN7testing8internal23ReferenceOrValueWrapperIlEC2El
FN:1317,_ZN7testing8internal23ReferenceOrValueWrapperIaE6UnwrapEv
FN:1317,_ZN7testing8internal23ReferenceOrValueWrapperIiE6UnwrapEv
FN:1317,_ZN7testing8internal23ReferenceOrValueWrapperIhE6UnwrapEv
FN:1317,_ZN7testing8internal23ReferenceOrValueWrapperIlE6UnwrapEv
FN:1317,_ZN7testing8internal23ReferenceOrValueWrapperIfE6UnwrapEv
FN:1317,_ZN7testing8internal23ReferenceOrValueWrapperIjE6UnwrapEv
FN:1317,_ZN7testing8internal23ReferenceOrValueWrapperIbE6UnwrapEv
FN:1317,_ZN7testing8internal23ReferenceOrValueWrapperImE6UnwrapEv
FN:1323,_ZNK7testing8internal23ReferenceOrValueWrapperIaE4PeekEv
FN:1323,_ZNK7testing8internal23ReferenceOrValueWrapperIhE4PeekEv
FN:1323,_ZNK7testing8internal23ReferenceOrValueWrapperIiE4PeekEv
FN:1323,_ZNK7testing8internal23ReferenceOrValueWrapperIfE4PeekEv
FN:1323,_ZNK7testing8internal23ReferenceOrValueWrapperIbE4PeekEv
FN:1323,_ZNK7testing8internal23ReferenceOrValueWrapperImE4PeekEv
FN:1323,_ZNK7testing8internal23ReferenceOrValueWrapperIjE4PeekEv
FN:1323,_ZNK7testing8internal23ReferenceOrValueWrapperIlE4PeekEv
FN:1363,_ZN7testing8internal29UntypedActionResultHolderBaseC2Ev
FN:1365,_ZN7testing8internal29UntypedActionResultHolderBaseD2Ev
FN:1365,_ZN7testing8internal29UntypedActionResultHolderBaseD0Ev
FN:1373,_ZN7testing8internal18ActionResultHolderImED2Ev
FN:1373,_ZN7testing8internal18ActionResultHolderIbED0Ev
FN:1373,_ZN7testing8internal18ActionResultHolderImED0Ev
FN:1373,_ZN7testing8internal18ActionResultHolderIjED2Ev
FN:1373,_ZN7testing8internal18ActionResultHolderIfED0Ev
FN:1373,_ZN7testing8internal18ActionResultHolderIiED2Ev
FN:1373,_ZN7testing8internal18ActionResultHolderIfED2Ev
FN:1373,_ZN7testing8internal18ActionResultHolderIiED0Ev
FN:1373,_ZN7testing8internal18ActionResultHolderIhED0Ev
FN:1373,_ZN7testing8internal18ActionResultHolderIlED0Ev
FN:1373,_ZN7testing8internal18ActionResultHolderIbED2Ev
FN:1373,_ZN7testing8internal18ActionResultHolderIjED0Ev
FN:1373,_ZN7testing8internal18ActionResultHolderIaED2Ev
FN:1373,_ZN7testing8internal18ActionResultHolderIaED0Ev
FN:1373,_ZN7testing8internal18ActionResultHolderIhED2Ev
FN:1373,_ZN7testing8internal18ActionResultHolderIlED2Ev
FN:1376,_ZN7testing8internal18ActionResultHolderIiE6UnwrapEv
FN:1376,_ZN7testing8internal18ActionResultHolderIhE6UnwrapEv
FN:1376,_ZN7testing8internal18ActionResultHolderIlE6UnwrapEv
FN:1376,_ZN7testing8internal18ActionResultHolderIbE6UnwrapEv
FN:1376,_ZN7testing8internal18ActionResultHolderIaE6UnwrapEv
FN:1376,_ZN7testing8internal18ActionResultHolderIfE6UnwrapEv
FN:1376,_ZN7testing8internal18ActionResultHolderImE6UnwrapEv
FN:1376,_ZN7testing8internal18ActionResultHolderIjE6UnwrapEv
FN:1381,_ZNK7testing8internal18ActionResultHolderIaE19PrintAsActionResultEPSo
FN:1381,_ZNK7testing8internal18ActionResultHolderIlE19PrintAsActionResultEPSo
FN:1381,_ZNK7testing8internal18ActionResultHolderIiE19PrintAsActionResultEPSo
FN:1381,_ZNK7testing8internal18ActionResultHolderIjE19PrintAsActionResultEPSo
FN:1381,_ZNK7testing8internal18ActionResultHolderIbE19PrintAsActionResultEPSo
FN:1381,_ZNK7testing8internal18ActionResultHolderImE19PrintAsActionResultEPSo
FN:1381,_ZNK7testing8internal18ActionResultHolderIhE19PrintAsActionResultEPSo
FN:1381,_ZNK7testing8internal18ActionResultHolderIfE19PrintAsActionResultEPSo
FN:1390,_ZN7testing8internal18ActionResultHolderIiE20PerformDefaultActionIFihEEEPS2_PKNS0_14FunctionMockerIT_EEONS0_8FunctionIS7_E13ArgumentTupleERKSs
FN:1390,_ZN7testing8internal18ActionResultHolderIhE20PerformDefaultActionIFhvEEEPS2_PKNS0_14FunctionMockerIT_EEONS0_8FunctionIS7_E13ArgumentTupleERKSs
FN:1390,_ZN7testing8internal18ActionResultHolderImE20PerformDefaultActionIFmvEEEPS2_PKNS0_14FunctionMockerIT_EEONS0_8FunctionIS7_E13ArgumentTupleERKSs
FN:1390,_ZN7testing8internal18ActionResultHolderIhE20PerformDefaultActionIFhhhEEEPS2_PKNS0_14FunctionMockerIT_EEONS0_8FunctionIS7_E13ArgumentTupleERKSs
FN:1390,_ZN7testing8internal18ActionResultHolderImE20PerformDefaultActionIFmhEEEPS2_PKNS0_14FunctionMockerIT_EEONS0_8FunctionIS7_E13ArgumentTupleERKSs
FN:1390,_ZN7testing8internal18ActionResultHolderImE20PerformDefaultActionIFmhhmEEEPS2_PKNS0_14FunctionMockerIT_EEONS0_8FunctionIS7_E13ArgumentTupleERKSs
FN:1390,_ZN7testing8internal18ActionResultHolderIfE20PerformDefaultActionIFfvEEEPS2_PKNS0_14FunctionMockerIT_EEONS0_8FunctionIS7_E13ArgumentTupleERKSs
FN:1390,_ZN7testing8internal18ActionResultHolderIlE20PerformDefaultActionIFlvEEEPS2_PKNS0_14FunctionMockerIT_EEONS0_8FunctionIS7_E13ArgumentTupleERKSs
FN:1390,_ZN7testing8internal18ActionResultHolderIjE20PerformDefaultActionIFjvEEEPS2_PKNS0_14FunctionMockerIT_EEONS0_8FunctionIS7_E13ArgumentTupleERKSs
FN:1390,_ZN7testing8internal18ActionResultHolderIaE20PerformDefaultActionIFahEEEPS2_PKNS0_14FunctionMockerIT_EEONS0_8FunctionIS7_E13ArgumentTupleERKSs
FN:1390,_ZN7testing8internal18ActionResultHolderIiE20PerformDefaultActionIFivEEEPS2_PKNS0_14FunctionMockerIT_EEONS0_8FunctionIS7_E13ArgumentTupleERKSs
FN:1390,_ZN7testing8internal18ActionResultHolderIbE20PerformDefaultActionIFbvEEEPS2_PKNS0_14FunctionMockerIT_EEONS0_8FunctionIS7_E13ArgumentTupleERKSs
FN:1401,_ZN7testing8internal18ActionResultHolderIjE13PerformActionIFjvEEEPS2_RKNS_6ActionIT_EEONS0_8FunctionIS7_E13ArgumentTupleE
FN:1401,_ZN7testing8internal18ActionResultHolderImE13PerformActionIFmvEEEPS2_RKNS_6ActionIT_EEONS0_8FunctionIS7_E13ArgumentTupleE
FN:1401,_ZN7testing8internal18ActionResultHolderImE13PerformActionIFmhhmEEEPS2_RKNS_6ActionIT_EEONS0_8FunctionIS7_E13ArgumentTupleE
FN:1401,_ZN7testing8internal18ActionResultHolderIbE13PerformActionIFbvEEEPS2_RKNS_6ActionIT_EEONS0_8FunctionIS7_E13ArgumentTupleE
FN:1401,_ZN7testing8internal18ActionResultHolderIfE13PerformActionIFfvEEEPS2_RKNS_6ActionIT_EEONS0_8FunctionIS7_E13ArgumentTupleE
FN:1401,_ZN7testing8internal18ActionResultHolderImE13PerformActionIFmhEEEPS2_RKNS_6ActionIT_EEONS0_8FunctionIS7_E13ArgumentTupleE
FN:1401,_ZN7testing8internal18ActionResultHolderIhE13PerformActionIFhhhEEEPS2_RKNS_6ActionIT_EEONS0_8FunctionIS7_E13ArgumentTupleE
FN:1401,_ZN7testing8internal18ActionResultHolderIlE13PerformActionIFlvEEEPS2_RKNS_6ActionIT_EEONS0_8FunctionIS7_E13ArgumentTupleE
FN:1401,_ZN7testing8internal18ActionResultHolderIiE13PerformActionIFivEEEPS2_RKNS_6ActionIT_EEONS0_8FunctionIS7_E13ArgumentTupleE
FN:1401,_ZN7testing8internal18ActionResultHolderIhE13PerformActionIFhvEEEPS2_RKNS_6ActionIT_EEONS0_8FunctionIS7_E13ArgumentTupleE
FN:1401,_ZN7testing8internal18ActionResultHolderIiE13PerformActionIFihEEEPS2_RKNS_6ActionIT_EEONS0_8FunctionIS7_E13ArgumentTupleE
FN:1401,_ZN7testing8internal18ActionResultHolderIaE13PerformActionIFahEEEPS2_RKNS_6ActionIT_EEONS0_8FunctionIS7_E13ArgumentTupleE
FN:1410,_ZN7testing8internal18ActionResultHolderIiEC2ENS0_23ReferenceOrValueWrapperIiEE
FN:1410,_ZN7testing8internal18ActionResultHolderIbEC2ENS0_23ReferenceOrValueWrapperIbEE
FN:1410,_ZN7testing8internal18ActionResultHolderIjEC2ENS0_23ReferenceOrValueWrapperIjEE
FN:1410,_ZN7testing8internal18ActionResultHolderIhEC2ENS0_23ReferenceOrValueWrapperIhEE
FN:1410,_ZN7testing8internal18ActionResultHolderIlEC2ENS0_23ReferenceOrValueWrapperIlEE
FN:1410,_ZN7testing8internal18ActionResultHolderIfEC2ENS0_23ReferenceOrValueWrapperIfEE
FN:1410,_ZN7testing8internal18ActionResultHolderIaEC2ENS0_23ReferenceOrValueWrapperIaEE
FN:1410,_ZN7testing8internal18ActionResultHolderImEC2ENS0_23ReferenceOrValueWrapperImEE
FN:1421,_ZN7testing8internal18ActionResultHolderIvED2Ev
FN:1421,_ZN7testing8internal18ActionResultHolderIvED0Ev
FN:1423,_ZN7testing8internal18ActionResultHolderIvE6UnwrapEv
FN:1425,_ZNK7testing8internal18ActionResultHolderIvE19PrintAsActionResultEPSo
FN:1430,_ZN7testing8internal18ActionResultHolderIvE20PerformDefaultActionIFvhiEEEPS2_PKNS0_14FunctionMockerIT_EEONS0_8FunctionIS7_E13ArgumentTupleERKSs
FN:1430,_ZN7testing8internal18ActionResultHolderIvE20PerformDefaultActionIFvmEEEPS2_PKNS0_14FunctionMockerIT_EEONS0_8FunctionIS7_E13ArgumentTupleERKSs
FN:1430,_ZN7testing8internal18ActionResultHolderIvE20PerformDefaultActionIFvhhEEEPS2_PKNS0_14FunctionMockerIT_EEONS0_8FunctionIS7_E13ArgumentTupleERKSs
FN:1430,_ZN7testing8internal18ActionResultHolderIvE20PerformDefaultActionIFvhiiEEEPS2_PKNS0_14FunctionMockerIT_EEONS0_8FunctionIS7_E13ArgumentTupleERKSs
FN:1430,_ZN7testing8internal18ActionResultHolderIvE20PerformDefaultActionIFvvEEEPS2_PKNS0_14FunctionMockerIT_EEONS0_8FunctionIS7_E13ArgumentTupleERKSs
FN:1430,_ZN7testing8internal18ActionResultHolderIvE20PerformDefaultActionIFviEEEPS2_PKNS0_14FunctionMockerIT_EEONS0_8FunctionIS7_E13ArgumentTupleERKSs
FN:1430,_ZN7testing8internal18ActionResultHolderIvE20PerformDefaultActionIFvhEEEPS2_PKNS0_14FunctionMockerIT_EEONS0_8FunctionIS7_E13ArgumentTupleERKSs
FN:1430,_ZN7testing8internal18ActionResultHolderIvE20PerformDefaultActionIFviiEEEPS2_PKNS0_14FunctionMockerIT_EEONS0_8FunctionIS7_E13ArgumentTupleERKSs
FN:1430,_ZN7testing8internal18ActionResultHolderIvE20PerformDefaultActionIFvjEEEPS2_PKNS0_14FunctionMockerIT_EEONS0_8FunctionIS7_E13ArgumentTupleERKSs
FN:1430,_ZN7testing8internal18ActionResultHolderIvE20PerformDefaultActionIFvhPFvvEiEEEPS2_PKNS0_14FunctionMockerIT_EEONS0_8FunctionIS9_E13ArgumentTupleERKSs
FN:1441,_ZN7testing8internal18ActionResultHolderIvE13PerformActionIFvhiiEEEPS2_RKNS_6ActionIT_EEONS0_8FunctionIS7_E13ArgumentTupleE
FN:1441,_ZN7testing8internal18ActionResultHolderIvE13PerformActionIFvhEEEPS2_RKNS_6ActionIT_EEONS0_8FunctionIS7_E13ArgumentTupleE
FN:1441,_ZN7testing8internal18ActionResultHolderIvE13PerformActionIFviiEEEPS2_RKNS_6ActionIT_EEONS0_8FunctionIS7_E13ArgumentTupleE
FN:1441,_ZN7testing8internal18ActionResultHolderIvE13PerformActionIFvjEEEPS2_RKNS_6ActionIT_EEONS0_8FunctionIS7_E13ArgumentTupleE
FN:1441,_ZN7testing8internal18ActionResultHolderIvE13PerformActionIFvhiEEEPS2_RKNS_6ActionIT_EEONS0_8FunctionIS7_E13ArgumentTupleE
FN:1441,_ZN7testing8internal18ActionResultHolderIvE13PerformActionIFvvEEEPS2_RKNS_6ActionIT_EEONS0_8FunctionIS7_E13ArgumentTupleE
FN:1441,_ZN7testing8internal18ActionResultHolderIvE13PerformActionIFviEEEPS2_RKNS_6ActionIT_EEONS0_8FunctionIS7_E13ArgumentTupleE
FN:1441,_ZN7testing8internal18ActionResultHolderIvE13PerformActionIFvhPFvvEiEEEPS2_RKNS_6ActionIT_EEONS0_8FunctionIS9_E13ArgumentTupleE
FN:1441,_ZN7testing8internal18ActionResultHolderIvE13PerformActionIFvmEEEPS2_RKNS_6ActionIT_EEONS0_8FunctionIS7_E13ArgumentTupleE
FN:1441,_ZN7testing8internal18ActionResultHolderIvE13PerformActionIFvhhEEEPS2_RKNS_6ActionIT_EEONS0_8FunctionIS7_E13ArgumentTupleE
FN:1448,_ZN7testing8internal18ActionResultHolderIvEC2Ev
FN:1464,_ZN7testing8internal14FunctionMockerIFbvEEC2Ev
FN:1464,_ZN7testing8internal14FunctionMockerIFivEEC2Ev
FN:1464,_ZN7testing8internal14FunctionMockerIFihEEC2Ev
FN:1464,_ZN7testing8internal14FunctionMockerIFviiEEC2Ev
FN:1464,_ZN7testing8internal14FunctionMockerIFvhEEC2Ev
FN:1464,_ZN7testing8internal14FunctionMockerIFvhPFvvEiEEC2Ev
FN:1464,_ZN7testing8internal14FunctionMockerIFvhhEEC2Ev
FN:1464,_ZN7testing8internal14FunctionMockerIFhvEEC2Ev
FN:1464,_ZN7testing8internal14FunctionMockerIFmhEEC2Ev
FN:1464,_ZN7testing8internal14FunctionMockerIFvvEEC2Ev
FN:1464,_ZN7testing8internal14FunctionMockerIFmhhmEEC2Ev
FN:1464,_ZN7testing8internal14FunctionMockerIFviEEC2Ev
FN:1464,_ZN7testing8internal14FunctionMockerIFvjEEC2Ev
FN:1464,_ZN7testing8internal14FunctionMockerIFjvEEC2Ev
FN:1464,_ZN7testing8internal14FunctionMockerIFvmEEC2Ev
FN:1464,_ZN7testing8internal14FunctionMockerIFhhhEEC2Ev
FN:1464,_ZN7testing8internal14FunctionMockerIFvhiiEEC2Ev
FN:1464,_ZN7testing8internal14FunctionMockerIFlvEEC2Ev
FN:1464,_ZN7testing8internal14FunctionMockerIFfvEEC2Ev
FN:1464,_ZN7testing8internal14FunctionMockerIFahEEC2Ev
FN:1464,_ZN7testing8internal14FunctionMockerIFvhiEEC2Ev
FN:1464,_ZN7testing8internal14FunctionMockerIFmvEEC2Ev
FN:1484,_ZN7testing8internal14FunctionMockerIFlvEED2Ev
FN:1484,_ZN7testing8internal14FunctionMockerIFahEED2Ev
FN:1484,_ZN7testing8internal14FunctionMockerIFviiEED0Ev
FN:1484,_ZN7testing8internal14FunctionMockerIFvvEED0Ev
FN:1484,_ZN7testing8internal14FunctionMockerIFfvEED2Ev
FN:1484,_ZN7testing8internal14FunctionMockerIFjvEED2Ev
FN:1484,_ZN7testing8internal14FunctionMockerIFvhiiEED0Ev
FN:1484,_ZN7testing8internal14FunctionMockerIFvmEED2Ev
FN:1484,_ZN7testing8internal14FunctionMockerIFviEED0Ev
FN:1484,_ZN7testing8internal14FunctionMockerIFmvEED0Ev
FN:1484,_ZN7testing8internal14FunctionMockerIFmhhmEED0Ev
FN:1484,_ZN7testing8internal14FunctionMockerIFvhhEED0Ev
FN:1484,_ZN7testing8internal14FunctionMockerIFvhiEED0Ev
FN:1484,_ZN7testing8internal14FunctionMockerIFvhEED2Ev
FN:1484,_ZN7testing8internal14FunctionMockerIFmhhmEED2Ev
FN:1484,_ZN7testing8internal14FunctionMockerIFvhPFvvEiEED0Ev
FN:1484,_ZN7testing8internal14FunctionMockerIFvhiEED2Ev
FN:1484,_ZN7testing8internal14FunctionMockerIFvmEED0Ev
FN:1484,_ZN7testing8internal14FunctionMockerIFvhEED0Ev
FN:1484,_ZN7testing8internal14FunctionMockerIFviiEED2Ev
FN:1484,_ZN7testing8internal14FunctionMockerIFahEED0Ev
FN:1484,_ZN7testing8internal14FunctionMockerIFvhhEED2Ev
FN:1484,_ZN7testing8internal14FunctionMockerIFhvEED2Ev
FN:1484,_ZN7testing8internal14FunctionMockerIFmhEED2Ev
FN:1484,_ZN7testing8internal14FunctionMockerIFvhiiEED2Ev
FN:1484,_ZN7testing8internal14FunctionMockerIFhhhEED2Ev
FN:1484,_ZN7testing8internal14FunctionMockerIFmhEED0Ev
FN:1484,_ZN7testing8internal14FunctionMockerIFfvEED0Ev
FN:1484,_ZN7testing8internal14FunctionMockerIFihEED2Ev
FN:1484,_ZN7testing8internal14FunctionMockerIFbvEED0Ev
FN:1484,_ZN7testing8internal14FunctionMockerIFhhhEED0Ev
FN:1484,_ZN7testing8internal14FunctionMockerIFjvEED0Ev
FN:1484,_ZN7testing8internal14FunctionMockerIFbvEED2Ev
FN:1484,_ZN7testing8internal14FunctionMockerIFvjEED2Ev
FN:1484,_ZN7testing8internal14FunctionMockerIFhvEED0Ev
FN:1484,_ZN7testing8internal14FunctionMockerIFmvEED2Ev
FN:1484,_ZN7testing8internal14FunctionMockerIFlvEED0Ev
FN:1484,_ZN7testing8internal14FunctionMockerIFvhPFvvEiEED2Ev
FN:1484,_ZN7testing8internal14FunctionMockerIFihEED0Ev
FN:1484,_ZN7testing8internal14FunctionMockerIFivEED0Ev
FN:1484,_ZN7testing8internal14FunctionMockerIFivEED2Ev
FN:1484,_ZN7testing8internal14FunctionMockerIFvvEED2Ev
FN:1484,_ZN7testing8internal14FunctionMockerIFviEED2Ev
FN:1484,_ZN7testing8internal14FunctionMockerIFvjEED0Ev
FN:1494,_ZNK7testing8internal14FunctionMockerIFahEE14FindOnCallSpecERKSt5tupleIJhEE
FN:1494,_ZNK7testing8internal14FunctionMockerIFivEE14FindOnCallSpecERKSt5tupleIJEE
FN:1494,_ZNK7testing8internal14FunctionMockerIFvmEE14FindOnCallSpecERKSt5tupleIJmEE
FN:1494,_ZNK7testing8internal14FunctionMockerIFhvEE14FindOnCallSpecERKSt5tupleIJEE
FN:1494,_ZNK7testing8internal14FunctionMockerIFvhPFvvEiEE14FindOnCallSpecERKSt5tupleIJhS3_iEE
FN:1494,_ZNK7testing8internal14FunctionMockerIFvhEE14FindOnCallSpecERKSt5tupleIJhEE
FN:1494,_ZNK7testing8internal14FunctionMockerIFvhiEE14FindOnCallSpecERKSt5tupleIJhiEE
FN:1494,_ZNK7testing8internal14FunctionMockerIFjvEE14FindOnCallSpecERKSt5tupleIJEE
FN:1494,_ZNK7testing8internal14FunctionMockerIFlvEE14FindOnCallSpecERKSt5tupleIJEE
FN:1494,_ZNK7testing8internal14FunctionMockerIFihEE14FindOnCallSpecERKSt5tupleIJhEE
FN:1494,_ZNK7testing8internal14FunctionMockerIFvvEE14FindOnCallSpecERKSt5tupleIJEE
FN:1494,_ZNK7testing8internal14FunctionMockerIFmhhmEE14FindOnCallSpecERKSt5tupleIJhhmEE
FN:1494,_ZNK7testing8internal14FunctionMockerIFhhhEE14FindOnCallSpecERKSt5tupleIJhhEE
FN:1494,_ZNK7testing8internal14FunctionMockerIFmvEE14FindOnCallSpecERKSt5tupleIJEE
FN:1494,_ZNK7testing8internal14FunctionMockerIFviiEE14FindOnCallSpecERKSt5tupleIJiiEE
FN:1494,_ZNK7testing8internal14FunctionMockerIFvhhEE14FindOnCallSpecERKSt5tupleIJhhEE
FN:1494,_ZNK7testing8internal14FunctionMockerIFmhEE14FindOnCallSpecERKSt5tupleIJhEE
FN:1494,_ZNK7testing8internal14FunctionMockerIFvhiiEE14FindOnCallSpecERKSt5tupleIJhiiEE
FN:1494,_ZNK7testing8internal14FunctionMockerIFvjEE14FindOnCallSpecERKSt5tupleIJjEE
FN:1494,_ZNK7testing8internal14FunctionMockerIFviEE14FindOnCallSpecERKSt5tupleIJiEE
FN:1494,_ZNK7testing8internal14FunctionMockerIFbvEE14FindOnCallSpecERKSt5tupleIJEE
FN:1494,_ZNK7testing8internal14FunctionMockerIFfvEE14FindOnCallSpecERKSt5tupleIJEE
FN:1514,_ZNK7testing8internal14FunctionMockerIFmhhmEE20PerformDefaultActionEOSt5tupleIJhhmEERKSs
FN:1514,_ZNK7testing8internal14FunctionMockerIFviiEE20PerformDefaultActionEOSt5tupleIJiiEERKSs
FN:1514,_ZNK7testing8internal14FunctionMockerIFmvEE20PerformDefaultActionEOSt5tupleIJEERKSs
FN:1514,_ZNK7testing8internal14FunctionMockerIFfvEE20PerformDefaultActionEOSt5tupleIJEERKSs
FN:1514,_ZNK7testing8internal14FunctionMockerIFvhhEE20PerformDefaultActionEOSt5tupleIJhhEERKSs
FN:1514,_ZNK7testing8internal14FunctionMockerIFjvEE20PerformDefaultActionEOSt5tupleIJEERKSs
FN:1514,_ZNK7testing8internal14FunctionMockerIFihEE20PerformDefaultActionEOSt5tupleIJhEERKSs
FN:1514,_ZNK7testing8internal14FunctionMockerIFvmEE20PerformDefaultActionEOSt5tupleIJmEERKSs
FN:1514,_ZNK7testing8internal14FunctionMockerIFviEE20PerformDefaultActionEOSt5tupleIJiEERKSs
FN:1514,_ZNK7testing8internal14FunctionMockerIFbvEE20PerformDefaultActionEOSt5tupleIJEERKSs
FN:1514,_ZNK7testing8internal14FunctionMockerIFvvEE20PerformDefaultActionEOSt5tupleIJEERKSs
FN:1514,_ZNK7testing8internal14FunctionMockerIFahEE20PerformDefaultActionEOSt5tupleIJhEERKSs
FN:1514,_ZNK7testing8internal14FunctionMockerIFivEE20PerformDefaultActionEOSt5tupleIJEERKSs
FN:1514,_ZNK7testing8internal14FunctionMockerIFvhPFvvEiEE20PerformDefaultActionEOSt5tupleIJhS3_iEERKSs
FN:1514,_ZNK7testing8internal14FunctionMockerIFvhiEE20PerformDefaultActionEOSt5tupleIJhiEERKSs
FN:1514,_ZNK7testing8internal14FunctionMockerIFhvEE20PerformDefaultActionEOSt5tupleIJEERKSs
FN:1514,_ZNK7testing8internal14FunctionMockerIFmhEE20PerformDefaultActionEOSt5tupleIJhEERKSs
FN:1514,_ZNK7testing8internal14FunctionMockerIFvjEE20PerformDefaultActionEOSt5tupleIJjEERKSs
FN:1514,_ZNK7testing8internal14FunctionMockerIFlvEE20PerformDefaultActionEOSt5tupleIJEERKSs
FN:1514,_ZNK7testing8internal14FunctionMockerIFvhiiEE20PerformDefaultActionEOSt5tupleIJhiiEERKSs
FN:1514,_ZNK7testing8internal14FunctionMockerIFhhhEE20PerformDefaultActionEOSt5tupleIJhhEERKSs
FN:1514,_ZNK7testing8internal14FunctionMockerIFvhEE20PerformDefaultActionEOSt5tupleIJhEERKSs
FN:1540,_ZNK7testing8internal14FunctionMockerIFahEE27UntypedPerformDefaultActionEPvRKSs
FN:1540,_ZNK7testing8internal14FunctionMockerIFviEE27UntypedPerformDefaultActionEPvRKSs
FN:1540,_ZNK7testing8internal14FunctionMockerIFfvEE27UntypedPerformDefaultActionEPvRKSs
FN:1540,_ZNK7testing8internal14FunctionMockerIFvhiiEE27UntypedPerformDefaultActionEPvRKSs
FN:1540,_ZNK7testing8internal14FunctionMockerIFivEE27UntypedPerformDefaultActionEPvRKSs
FN:1540,_ZNK7testing8internal14FunctionMockerIFvjEE27UntypedPerformDefaultActionEPvRKSs
FN:1540,_ZNK7testing8internal14FunctionMockerIFviiEE27UntypedPerformDefaultActionEPvRKSs
FN:1540,_ZNK7testing8internal14FunctionMockerIFvhEE27UntypedPerformDefaultActionEPvRKSs
FN:1540,_ZNK7testing8internal14FunctionMockerIFvvEE27UntypedPerformDefaultActionEPvRKSs
FN:1540,_ZNK7testing8internal14FunctionMockerIFvhhEE27UntypedPerformDefaultActionEPvRKSs
FN:1540,_ZNK7testing8internal14FunctionMockerIFmvEE27UntypedPerformDefaultActionEPvRKSs
FN:1540,_ZNK7testing8internal14FunctionMockerIFihEE27UntypedPerformDefaultActionEPvRKSs
FN:1540,_ZNK7testing8internal14FunctionMockerIFvmEE27UntypedPerformDefaultActionEPvRKSs
FN:1540,_ZNK7testing8internal14FunctionMockerIFvhPFvvEiEE27UntypedPerformDefaultActionEPvRKSs
FN:1540,_ZNK7testing8internal14FunctionMockerIFmhEE27UntypedPerformDefaultActionEPvRKSs
FN:1540,_ZNK7testing8internal14FunctionMockerIFvhiEE27UntypedPerformDefaultActionEPvRKSs
FN:1540,_ZNK7testing8internal14FunctionMockerIFmhhmEE27UntypedPerformDefaultActionEPvRKSs
FN:1540,_ZNK7testing8internal14FunctionMockerIFhhhEE27UntypedPerformDefaultActionEPvRKSs
FN:1540,_ZNK7testing8internal14FunctionMockerIFbvEE27UntypedPerformDefaultActionEPvRKSs
FN:1540,_ZNK7testing8internal14FunctionMockerIFlvEE27UntypedPerformDefaultActionEPvRKSs
FN:1540,_ZNK7testing8internal14FunctionMockerIFjvEE27UntypedPerformDefaultActionEPvRKSs
FN:1540,_ZNK7testing8internal14FunctionMockerIFhvEE27UntypedPerformDefaultActionEPvRKSs
FN:1552,_ZNK7testing8internal14FunctionMockerIFvhiiEE20UntypedPerformActionEPKvPv
FN:1552,_ZNK7testing8internal14FunctionMockerIFvvEE20UntypedPerformActionEPKvPv
FN:1552,_ZNK7testing8internal14FunctionMockerIFihEE20UntypedPerformActionEPKvPv
FN:1552,_ZNK7testing8internal14FunctionMockerIFhvEE20UntypedPerformActionEPKvPv
FN:1552,_ZNK7testing8internal14FunctionMockerIFfvEE20UntypedPerformActionEPKvPv
FN:1552,_ZNK7testing8internal14FunctionMockerIFhhhEE20UntypedPerformActionEPKvPv
FN:1552,_ZNK7testing8internal14FunctionMockerIFviiEE20UntypedPerformActionEPKvPv
FN:1552,_ZNK7testing8internal14FunctionMockerIFivEE20UntypedPerformActionEPKvPv
FN:1552,_ZNK7testing8internal14FunctionMockerIFbvEE20UntypedPerformActionEPKvPv
FN:1552,_ZNK7testing8internal14FunctionMockerIFvhPFvvEiEE20UntypedPerformActionEPKvPv
FN:1552,_ZNK7testing8internal14FunctionMockerIFvmEE20UntypedPerformActionEPKvPv
FN:1552,_ZNK7testing8internal14FunctionMockerIFlvEE20UntypedPerformActionEPKvPv
FN:1552,_ZNK7testing8internal14FunctionMockerIFmhhmEE20UntypedPerformActionEPKvPv
FN:1552,_ZNK7testing8internal14FunctionMockerIFviEE20UntypedPerformActionEPKvPv
FN:1552,_ZNK7testing8internal14FunctionMockerIFjvEE20UntypedPerformActionEPKvPv
FN:1552,_ZNK7testing8internal14FunctionMockerIFahEE20UntypedPerformActionEPKvPv
FN:1552,_ZNK7testing8internal14FunctionMockerIFvhEE20UntypedPerformActionEPKvPv
FN:1552,_ZNK7testing8internal14FunctionMockerIFvjEE20UntypedPerformActionEPKvPv
FN:1552,_ZNK7testing8internal14FunctionMockerIFmvEE20UntypedPerformActionEPKvPv
FN:1552,_ZNK7testing8internal14FunctionMockerIFmhEE20UntypedPerformActionEPKvPv
FN:1552,_ZNK7testing8internal14FunctionMockerIFvhiEE20UntypedPerformActionEPKvPv
FN:1552,_ZNK7testing8internal14FunctionMockerIFvhhEE20UntypedPerformActionEPKvPv
FN:1563,_ZN7testing8internal14FunctionMockerIFviEE25ClearDefaultActionsLockedEv
FN:1563,_ZN7testing8internal14FunctionMockerIFahEE25ClearDefaultActionsLockedEv
FN:1563,_ZN7testing8internal14FunctionMockerIFfvEE25ClearDefaultActionsLockedEv
FN:1563,_ZN7testing8internal14FunctionMockerIFvjEE25ClearDefaultActionsLockedEv
FN:1563,_ZN7testing8internal14FunctionMockerIFvhEE25ClearDefaultActionsLockedEv
FN:1563,_ZN7testing8internal14FunctionMockerIFvhiiEE25ClearDefaultActionsLockedEv
FN:1563,_ZN7testing8internal14FunctionMockerIFviiEE25ClearDefaultActionsLockedEv
FN:1563,_ZN7testing8internal14FunctionMockerIFvhiEE25ClearDefaultActionsLockedEv
FN:1563,_ZN7testing8internal14FunctionMockerIFvhPFvvEiEE25ClearDefaultActionsLockedEv
FN:1563,_ZN7testing8internal14FunctionMockerIFjvEE25ClearDefaultActionsLockedEv
FN:1563,_ZN7testing8internal14FunctionMockerIFhvEE25ClearDefaultActionsLockedEv
FN:1563,_ZN7testing8internal14FunctionMockerIFmhEE25ClearDefaultActionsLockedEv
FN:1563,_ZN7testing8internal14FunctionMockerIFbvEE25ClearDefaultActionsLockedEv
FN:1563,_ZN7testing8internal14FunctionMockerIFvmEE25ClearDefaultActionsLockedEv
FN:1563,_ZN7testing8internal14FunctionMockerIFvvEE25ClearDefaultActionsLockedEv
FN:1563,_ZN7testing8internal14FunctionMockerIFvhhEE25ClearDefaultActionsLockedEv
FN:1563,_ZN7testing8internal14FunctionMockerIFivEE25ClearDefaultActionsLockedEv
FN:1563,_ZN7testing8internal14FunctionMockerIFlvEE25ClearDefaultActionsLockedEv
FN:1563,_ZN7testing8internal14FunctionMockerIFmhhmEE25ClearDefaultActionsLockedEv
FN:1563,_ZN7testing8internal14FunctionMockerIFihEE25ClearDefaultActionsLockedEv
FN:1563,_ZN7testing8internal14FunctionMockerIFmvEE25ClearDefaultActionsLockedEv
FN:1563,_ZN7testing8internal14FunctionMockerIFhhhEE25ClearDefaultActionsLockedEv
FN:1592,_ZN7testing8internal14FunctionMockerIFvhiiEE6InvokeEhii
FN:1592,_ZN7testing8internal14FunctionMockerIFmvEE6InvokeEv
FN:1592,_ZN7testing8internal14FunctionMockerIFjvEE6InvokeEv
FN:1592,_ZN7testing8internal14FunctionMockerIFbvEE6InvokeEv
FN:1592,_ZN7testing8internal14FunctionMockerIFfvEE6InvokeEv
FN:1592,_ZN7testing8internal14FunctionMockerIFvmEE6InvokeEm
FN:1592,_ZN7testing8internal14FunctionMockerIFvhiEE6InvokeEhi
FN:1592,_ZN7testing8internal14FunctionMockerIFlvEE6InvokeEv
FN:1592,_ZN7testing8internal14FunctionMockerIFhvEE6InvokeEv
FN:1592,_ZN7testing8internal14FunctionMockerIFihEE6InvokeEh
FN:1592,_ZN7testing8internal14FunctionMockerIFviiEE6InvokeEii
FN:1592,_ZN7testing8internal14FunctionMockerIFvvEE6InvokeEv
FN:1592,_ZN7testing8internal14FunctionMockerIFvjEE6InvokeEj
FN:1592,_ZN7testing8internal14FunctionMockerIFvhEE6InvokeEh
FN:1592,_ZN7testing8internal14FunctionMockerIFmhhmEE6InvokeEhhm
FN:1592,_ZN7testing8internal14FunctionMockerIFviEE6InvokeEi
FN:1592,_ZN7testing8internal14FunctionMockerIFhhhEE6InvokeEhh
FN:1592,_ZN7testing8internal14FunctionMockerIFvhhEE6InvokeEhh
FN:1592,_ZN7testing8internal14FunctionMockerIFahEE6InvokeEh
FN:1592,_ZN7testing8internal14FunctionMockerIFvhPFvvEiEE6InvokeEhS3_i
FN:1592,_ZN7testing8internal14FunctionMockerIFivEE6InvokeEv
FN:1592,_ZN7testing8internal14FunctionMockerIFmhEE6InvokeEh
FN:1599,_ZN7testing8internal14FunctionMockerIFlvEE4WithEv
FN:1599,_ZN7testing8internal14FunctionMockerIFvmEE4WithENS_7MatcherImEE
FN:1599,_ZN7testing8internal14FunctionMockerIFmhhmEE4WithENS_7MatcherIhEES5_NS4_ImEE
FN:1599,_ZN7testing8internal14FunctionMockerIFbvEE4WithEv
FN:1599,_ZN7testing8internal14FunctionMockerIFvhiiEE4WithENS_7MatcherIhEENS4_IiEES6_
FN:1599,_ZN7testing8internal14FunctionMockerIFhhhEE4WithENS_7MatcherIhEES5_
FN:1599,_ZN7testing8internal14FunctionMockerIFfvEE4WithEv
FN:1599,_ZN7testing8internal14FunctionMockerIFmhEE4WithENS_7MatcherIhEE
FN:1599,_ZN7testing8internal14FunctionMockerIFmvEE4WithEv
FN:1599,_ZN7testing8internal14FunctionMockerIFjvEE4WithEv
FN:1599,_ZN7testing8internal14FunctionMockerIFvvEE4WithEv
FN:1599,_ZN7testing8internal14FunctionMockerIFivEE4WithEv
FN:1599,_ZN7testing8internal14FunctionMockerIFhvEE4WithEv
FN:1599,_ZN7testing8internal14FunctionMockerIFvhPFvvEiEE4WithENS_7MatcherIhEENS6_IS3_EENS6_IiEE
FN:1599,_ZN7testing8internal14FunctionMockerIFihEE4WithENS_7MatcherIhEE
FN:1599,_ZN7testing8internal14FunctionMockerIFvhhEE4WithENS_7MatcherIhEES5_
FN:1599,_ZN7testing8internal14FunctionMockerIFviEE4WithENS_7MatcherIiEE
FN:1599,_ZN7testing8internal14FunctionMockerIFvhiEE4WithENS_7MatcherIhEENS4_IiEE
FN:1599,_ZN7testing8internal14FunctionMockerIFahEE4WithENS_7MatcherIhEE
FN:1599,_ZN7testing8internal14FunctionMockerIFviiEE4WithENS_7MatcherIiEES5_
FN:1599,_ZN7testing8internal14FunctionMockerIFvjEE4WithENS_7MatcherIjEE
FN:1599,_ZN7testing8internal14FunctionMockerIFvhEE4WithENS_7MatcherIhEE
FN:1610,_ZN7testing8internal14FunctionMockerIFbvEE16AddNewOnCallSpecEPKciRKSt5tupleIJEE
FN:1610,_ZN7testing8internal14FunctionMockerIFfvEE16AddNewOnCallSpecEPKciRKSt5tupleIJEE
FN:1610,_ZN7testing8internal14FunctionMockerIFahEE16AddNewOnCallSpecEPKciRKSt5tupleIJNS_7MatcherIhEEEE
FN:1610,_ZN7testing8internal14FunctionMockerIFivEE16AddNewOnCallSpecEPKciRKSt5tupleIJEE
FN:1610,_ZN7testing8internal14FunctionMockerIFmvEE16AddNewOnCallSpecEPKciRKSt5tupleIJEE
FN:1621,_ZN7testing8internal14FunctionMockerIFahEE17AddNewExpectationEPKciRKSsRKSt5tupleIJNS_7MatcherIhEEEE
FN:1621,_ZN7testing8internal14FunctionMockerIFmvEE17AddNewExpectationEPKciRKSsRKSt5tupleIJEE
FN:1621,_ZN7testing8internal14FunctionMockerIFviiEE17AddNewExpectationEPKciRKSsRKSt5tupleIJNS_7MatcherIiEESA_EE
FN:1621,_ZN7testing8internal14FunctionMockerIFmhhmEE17AddNewExpectationEPKciRKSsRKSt5tupleIJNS_7MatcherIhEESA_NS9_ImEEEE
FN:1621,_ZN7testing8internal14FunctionMockerIFhvEE17AddNewExpectationEPKciRKSsRKSt5tupleIJEE
FN:1621,_ZN7testing8internal14FunctionMockerIFvhiEE17AddNewExpectationEPKciRKSsRKSt5tupleIJNS_7MatcherIhEENS9_IiEEEE
FN:1621,_ZN7testing8internal14FunctionMockerIFvhPFvvEiEE17AddNewExpectationEPKciRKSsRKSt5tupleIJNS_7MatcherIhEENSB_IS3_EENSB_IiEEEE
FN:1621,_ZN7testing8internal14FunctionMockerIFvjEE17AddNewExpectationEPKciRKSsRKSt5tupleIJNS_7MatcherIjEEEE
FN:1621,_ZN7testing8internal14FunctionMockerIFihEE17AddNewExpectationEPKciRKSsRKSt5tupleIJNS_7MatcherIhEEEE
FN:1621,_ZN7testing8internal14FunctionMockerIFvhiiEE17AddNewExpectationEPKciRKSsRKSt5tupleIJNS_7MatcherIhEENS9_IiEESB_EE
FN:1621,_ZN7testing8internal14FunctionMockerIFmhEE17AddNewExpectationEPKciRKSsRKSt5tupleIJNS_7MatcherIhEEEE
FN:1621,_ZN7testing8internal14FunctionMockerIFbvEE17AddNewExpectationEPKciRKSsRKSt5tupleIJEE
FN:1621,_ZN7testing8internal14FunctionMockerIFjvEE17AddNewExpectationEPKciRKSsRKSt5tupleIJEE
FN:1621,_ZN7testing8internal14FunctionMockerIFviEE17AddNewExpectationEPKciRKSsRKSt5tupleIJNS_7MatcherIiEEEE
FN:1621,_ZN7testing8internal14FunctionMockerIFvhEE17AddNewExpectationEPKciRKSsRKSt5tupleIJNS_7MatcherIhEEEE
FN:1621,_ZN7testing8internal14FunctionMockerIFvvEE17AddNewExpectationEPKciRKSsRKSt5tupleIJEE
FN:1621,_ZN7testing8internal14FunctionMockerIFvmEE17AddNewExpectationEPKciRKSsRKSt5tupleIJNS_7MatcherImEEEE
FN:1621,_ZN7testing8internal14FunctionMockerIFfvEE17AddNewExpectationEPKciRKSsRKSt5tupleIJEE
FN:1621,_ZN7testing8internal14FunctionMockerIFhhhEE17AddNewExpectationEPKciRKSsRKSt5tupleIJNS_7MatcherIhEESA_EE
FN:1621,_ZN7testing8internal14FunctionMockerIFlvEE17AddNewExpectationEPKciRKSsRKSt5tupleIJEE
FN:1621,_ZN7testing8internal14FunctionMockerIFivEE17AddNewExpectationEPKciRKSsRKSt5tupleIJEE
FN:1621,_ZN7testing8internal14FunctionMockerIFvhhEE17AddNewExpectationEPKciRKSsRKSt5tupleIJNS_7MatcherIhEESA_EE
FN:1650,_ZNK7testing8internal14FunctionMockerIFhvEE23DescribeDefaultActionToERKSt5tupleIJEEPSo
FN:1650,_ZNK7testing8internal14FunctionMockerIFivEE23DescribeDefaultActionToERKSt5tupleIJEEPSo
FN:1650,_ZNK7testing8internal14FunctionMockerIFvvEE23DescribeDefaultActionToERKSt5tupleIJEEPSo
FN:1650,_ZNK7testing8internal14FunctionMockerIFmvEE23DescribeDefaultActionToERKSt5tupleIJEEPSo
FN:1650,_ZNK7testing8internal14FunctionMockerIFvhiiEE23DescribeDefaultActionToERKSt5tupleIJhiiEEPSo
FN:1650,_ZNK7testing8internal14FunctionMockerIFvhPFvvEiEE23DescribeDefaultActionToERKSt5tupleIJhS3_iEEPSo
FN:1650,_ZNK7testing8internal14FunctionMockerIFvmEE23DescribeDefaultActionToERKSt5tupleIJmEEPSo
FN:1650,_ZNK7testing8internal14FunctionMockerIFmhhmEE23DescribeDefaultActionToERKSt5tupleIJhhmEEPSo
FN:1650,_ZNK7testing8internal14FunctionMockerIFmhEE23DescribeDefaultActionToERKSt5tupleIJhEEPSo
FN:1650,_ZNK7testing8internal14FunctionMockerIFlvEE23DescribeDefaultActionToERKSt5tupleIJEEPSo
FN:1650,_ZNK7testing8internal14FunctionMockerIFviEE23DescribeDefaultActionToERKSt5tupleIJiEEPSo
FN:1650,_ZNK7testing8internal14FunctionMockerIFvjEE23DescribeDefaultActionToERKSt5tupleIJjEEPSo
FN:1650,_ZNK7testing8internal14FunctionMockerIFvhEE23DescribeDefaultActionToERKSt5tupleIJhEEPSo
FN:1650,_ZNK7testing8internal14FunctionMockerIFahEE23DescribeDefaultActionToERKSt5tupleIJhEEPSo
FN:1650,_ZNK7testing8internal14FunctionMockerIFvhhEE23DescribeDefaultActionToERKSt5tupleIJhhEEPSo
FN:1650,_ZNK7testing8internal14FunctionMockerIFvhiEE23DescribeDefaultActionToERKSt5tupleIJhiEEPSo
FN:1650,_ZNK7testing8internal14FunctionMockerIFjvEE23DescribeDefaultActionToERKSt5tupleIJEEPSo
FN:1650,_ZNK7testing8internal14FunctionMockerIFhhhEE23DescribeDefaultActionToERKSt5tupleIJhhEEPSo
FN:1650,_ZNK7testing8internal14FunctionMockerIFihEE23DescribeDefaultActionToERKSt5tupleIJhEEPSo
FN:1650,_ZNK7testing8internal14FunctionMockerIFviiEE23DescribeDefaultActionToERKSt5tupleIJiiEEPSo
FN:1650,_ZNK7testing8internal14FunctionMockerIFbvEE23DescribeDefaultActionToERKSt5tupleIJEEPSo
FN:1650,_ZNK7testing8internal14FunctionMockerIFfvEE23DescribeDefaultActionToERKSt5tupleIJEEPSo
FN:1667,_ZNK7testing8internal14FunctionMockerIFmvEE32UntypedDescribeUninterestingCallEPKvPSo
FN:1667,_ZNK7testing8internal14FunctionMockerIFvvEE32UntypedDescribeUninterestingCallEPKvPSo
FN:1667,_ZNK7testing8internal14FunctionMockerIFvjEE32UntypedDescribeUninterestingCallEPKvPSo
FN:1667,_ZNK7testing8internal14FunctionMockerIFmhhmEE32UntypedDescribeUninterestingCallEPKvPSo
FN:1667,_ZNK7testing8internal14FunctionMockerIFviEE32UntypedDescribeUninterestingCallEPKvPSo
FN:1667,_ZNK7testing8internal14FunctionMockerIFhhhEE32UntypedDescribeUninterestingCallEPKvPSo
FN:1667,_ZNK7testing8internal14FunctionMockerIFvhhEE32UntypedDescribeUninterestingCallEPKvPSo
FN:1667,_ZNK7testing8internal14FunctionMockerIFfvEE32UntypedDescribeUninterestingCallEPKvPSo
FN:1667,_ZNK7testing8internal14FunctionMockerIFjvEE32UntypedDescribeUninterestingCallEPKvPSo
FN:1667,_ZNK7testing8internal14FunctionMockerIFvhiEE32UntypedDescribeUninterestingCallEPKvPSo
FN:1667,_ZNK7testing8internal14FunctionMockerIFviiEE32UntypedDescribeUninterestingCallEPKvPSo
FN:1667,_ZNK7testing8internal14FunctionMockerIFihEE32UntypedDescribeUninterestingCallEPKvPSo
FN:1667,_ZNK7testing8internal14FunctionMockerIFahEE32UntypedDescribeUninterestingCallEPKvPSo
FN:1667,_ZNK7testing8internal14FunctionMockerIFvhEE32UntypedDescribeUninterestingCallEPKvPSo
FN:1667,_ZNK7testing8internal14FunctionMockerIFvhPFvvEiEE32UntypedDescribeUninterestingCallEPKvPSo
FN:1667,_ZNK7testing8internal14FunctionMockerIFvhiiEE32UntypedDescribeUninterestingCallEPKvPSo
FN:1667,_ZNK7testing8internal14FunctionMockerIFhvEE32UntypedDescribeUninterestingCallEPKvPSo
FN:1667,_ZNK7testing8internal14FunctionMockerIFivEE32UntypedDescribeUninterestingCallEPKvPSo
FN:1667,_ZNK7testing8internal14FunctionMockerIFvmEE32UntypedDescribeUninterestingCallEPKvPSo
FN:1667,_ZNK7testing8internal14FunctionMockerIFlvEE32UntypedDescribeUninterestingCallEPKvPSo
FN:1667,_ZNK7testing8internal14FunctionMockerIFbvEE32UntypedDescribeUninterestingCallEPKvPSo
FN:1667,_ZNK7testing8internal14FunctionMockerIFmhEE32UntypedDescribeUninterestingCallEPKvPSo
FN:1694,_ZN7testing8internal14FunctionMockerIFihEE30UntypedFindMatchingExpectationEPKvPS5_PbPSoS8_
FN:1694,_ZN7testing8internal14FunctionMockerIFvhiEE30UntypedFindMatchingExpectationEPKvPS5_PbPSoS8_
FN:1694,_ZN7testing8internal14FunctionMockerIFviEE30UntypedFindMatchingExpectationEPKvPS5_PbPSoS8_
FN:1694,_ZN7testing8internal14FunctionMockerIFvmEE30UntypedFindMatchingExpectationEPKvPS5_PbPSoS8_
FN:1694,_ZN7testing8internal14FunctionMockerIFhhhEE30UntypedFindMatchingExpectationEPKvPS5_PbPSoS8_
FN:1694,_ZN7testing8internal14FunctionMockerIFvjEE30UntypedFindMatchingExpectationEPKvPS5_PbPSoS8_
FN:1694,_ZN7testing8internal14FunctionMockerIFvhPFvvEiEE30UntypedFindMatchingExpectationEPKvPS7_PbPSoSA_
FN:1694,_ZN7testing8internal14FunctionMockerIFmhEE30UntypedFindMatchingExpectationEPKvPS5_PbPSoS8_
FN:1694,_ZN7testing8internal14FunctionMockerIFvhEE30UntypedFindMatchingExpectationEPKvPS5_PbPSoS8_
FN:1694,_ZN7testing8internal14FunctionMockerIFjvEE30UntypedFindMatchingExpectationEPKvPS5_PbPSoS8_
FN:1694,_ZN7testing8internal14FunctionMockerIFvhhEE30UntypedFindMatchingExpectationEPKvPS5_PbPSoS8_
FN:1694,_ZN7testing8internal14FunctionMockerIFahEE30UntypedFindMatchingExpectationEPKvPS5_PbPSoS8_
FN:1694,_ZN7testing8internal14FunctionMockerIFfvEE30UntypedFindMatchingExpectationEPKvPS5_PbPSoS8_
FN:1694,_ZN7testing8internal14FunctionMockerIFbvEE30UntypedFindMatchingExpectationEPKvPS5_PbPSoS8_
FN:1694,_ZN7testing8internal14FunctionMockerIFviiEE30UntypedFindMatchingExpectationEPKvPS5_PbPSoS8_
FN:1694,_ZN7testing8internal14FunctionMockerIFvvEE30UntypedFindMatchingExpectationEPKvPS5_PbPSoS8_
FN:1694,_ZN7testing8internal14FunctionMockerIFvhiiEE30UntypedFindMatchingExpectationEPKvPS5_PbPSoS8_
FN:1694,_ZN7testing8internal14FunctionMockerIFhvEE30UntypedFindMatchingExpectationEPKvPS5_PbPSoS8_
FN:1694,_ZN7testing8internal14FunctionMockerIFmhhmEE30UntypedFindMatchingExpectationEPKvPS5_PbPSoS8_
FN:1694,_ZN7testing8internal14FunctionMockerIFmvEE30UntypedFindMatchingExpectationEPKvPS5_PbPSoS8_
FN:1694,_ZN7testing8internal14FunctionMockerIFlvEE30UntypedFindMatchingExpectationEPKvPS5_PbPSoS8_
FN:1694,_ZN7testing8internal14FunctionMockerIFivEE30UntypedFindMatchingExpectationEPKvPS5_PbPSoS8_
FN:1719,_ZNK7testing8internal14FunctionMockerIFivEE16UntypedPrintArgsEPKvPSo
FN:1719,_ZNK7testing8internal14FunctionMockerIFviEE16UntypedPrintArgsEPKvPSo
FN:1719,_ZNK7testing8internal14FunctionMockerIFmhEE16UntypedPrintArgsEPKvPSo
FN:1719,_ZNK7testing8internal14FunctionMockerIFmhhmEE16UntypedPrintArgsEPKvPSo
FN:1719,_ZNK7testing8internal14FunctionMockerIFlvEE16UntypedPrintArgsEPKvPSo
FN:1719,_ZNK7testing8internal14FunctionMockerIFbvEE16UntypedPrintArgsEPKvPSo
FN:1719,_ZNK7testing8internal14FunctionMockerIFvvEE16UntypedPrintArgsEPKvPSo
FN:1719,_ZNK7testing8internal14FunctionMockerIFvhiiEE16UntypedPrintArgsEPKvPSo
FN:1719,_ZNK7testing8internal14FunctionMockerIFvhiEE16UntypedPrintArgsEPKvPSo
FN:1719,_ZNK7testing8internal14FunctionMockerIFhvEE16UntypedPrintArgsEPKvPSo
FN:1719,_ZNK7testing8internal14FunctionMockerIFahEE16UntypedPrintArgsEPKvPSo
FN:1719,_ZNK7testing8internal14FunctionMockerIFjvEE16UntypedPrintArgsEPKvPSo
FN:1719,_ZNK7testing8internal14FunctionMockerIFvjEE16UntypedPrintArgsEPKvPSo
FN:1719,_ZNK7testing8internal14FunctionMockerIFihEE16UntypedPrintArgsEPKvPSo
FN:1719,_ZNK7testing8internal14FunctionMockerIFhhhEE16UntypedPrintArgsEPKvPSo
FN:1719,_ZNK7testing8internal14FunctionMockerIFviiEE16UntypedPrintArgsEPKvPSo
FN:1719,_ZNK7testing8internal14FunctionMockerIFvhEE16UntypedPrintArgsEPKvPSo
FN:1719,_ZNK7testing8internal14FunctionMockerIFvhhEE16UntypedPrintArgsEPKvPSo
FN:1719,_ZNK7testing8internal14FunctionMockerIFvhPFvvEiEE16UntypedPrintArgsEPKvPSo
FN:1719,_ZNK7testing8internal14FunctionMockerIFvmEE16UntypedPrintArgsEPKvPSo
FN:1719,_ZNK7testing8internal14FunctionMockerIFmvEE16UntypedPrintArgsEPKvPSo
FN:1719,_ZNK7testing8internal14FunctionMockerIFfvEE16UntypedPrintArgsEPKvPSo
FN:1728,_ZNK7testing8internal14FunctionMockerIFvhEE29FindMatchingExpectationLockedERKSt5tupleIJhEE
FN:1728,_ZNK7testing8internal14FunctionMockerIFfvEE29FindMatchingExpectationLockedERKSt5tupleIJEE
FN:1728,_ZNK7testing8internal14FunctionMockerIFvhiEE29FindMatchingExpectationLockedERKSt5tupleIJhiEE
FN:1728,_ZNK7testing8internal14FunctionMockerIFviiEE29FindMatchingExpectationLockedERKSt5tupleIJiiEE
FN:1728,_ZNK7testing8internal14FunctionMockerIFmhEE29FindMatchingExpectationLockedERKSt5tupleIJhEE
FN:1728,_ZNK7testing8internal14FunctionMockerIFviEE29FindMatchingExpectationLockedERKSt5tupleIJiEE
FN:1728,_ZNK7testing8internal14FunctionMockerIFvhhEE29FindMatchingExpectationLockedERKSt5tupleIJhhEE
FN:1728,_ZNK7testing8internal14FunctionMockerIFvhiiEE29FindMatchingExpectationLockedERKSt5tupleIJhiiEE
FN:1728,_ZNK7testing8internal14FunctionMockerIFahEE29FindMatchingExpectationLockedERKSt5tupleIJhEE
FN:1728,_ZNK7testing8internal14FunctionMockerIFhhhEE29FindMatchingExpectationLockedERKSt5tupleIJhhEE
FN:1728,_ZNK7testing8internal14FunctionMockerIFvhPFvvEiEE29FindMatchingExpectationLockedERKSt5tupleIJhS3_iEE
FN:1728,_ZNK7testing8internal14FunctionMockerIFmhhmEE29FindMatchingExpectationLockedERKSt5tupleIJhhmEE
FN:1728,_ZNK7testing8internal14FunctionMockerIFhvEE29FindMatchingExpectationLockedERKSt5tupleIJEE
FN:1728,_ZNK7testing8internal14FunctionMockerIFbvEE29FindMatchingExpectationLockedERKSt5tupleIJEE
FN:1728,_ZNK7testing8internal14FunctionMockerIFvvEE29FindMatchingExpectationLockedERKSt5tupleIJEE
FN:1728,_ZNK7testing8internal14FunctionMockerIFlvEE29FindMatchingExpectationLockedERKSt5tupleIJEE
FN:1728,_ZNK7testing8internal14FunctionMockerIFivEE29FindMatchingExpectationLockedERKSt5tupleIJEE
FN:1728,_ZNK7testing8internal14FunctionMockerIFihEE29FindMatchingExpectationLockedERKSt5tupleIJhEE
FN:1728,_ZNK7testing8internal14FunctionMockerIFvjEE29FindMatchingExpectationLockedERKSt5tupleIJjEE
FN:1728,_ZNK7testing8internal14FunctionMockerIFmvEE29FindMatchingExpectationLockedERKSt5tupleIJEE
FN:1728,_ZNK7testing8internal14FunctionMockerIFvmEE29FindMatchingExpectationLockedERKSt5tupleIJmEE
FN:1728,_ZNK7testing8internal14FunctionMockerIFjvEE29FindMatchingExpectationLockedERKSt5tupleIJEE
FN:1747,_ZNK7testing8internal14FunctionMockerIFahEE33FormatUnexpectedCallMessageLockedERKSt5tupleIJhEEPSoS8_
FN:1747,_ZNK7testing8internal14FunctionMockerIFvhhEE33FormatUnexpectedCallMessageLockedERKSt5tupleIJhhEEPSoS8_
FN:1747,_ZNK7testing8internal14FunctionMockerIFvjEE33FormatUnexpectedCallMessageLockedERKSt5tupleIJjEEPSoS8_
FN:1747,_ZNK7testing8internal14FunctionMockerIFhvEE33FormatUnexpectedCallMessageLockedERKSt5tupleIJEEPSoS8_
FN:1747,_ZNK7testing8internal14FunctionMockerIFvvEE33FormatUnexpectedCallMessageLockedERKSt5tupleIJEEPSoS8_
FN:1747,_ZNK7testing8internal14FunctionMockerIFviEE33FormatUnexpectedCallMessageLockedERKSt5tupleIJiEEPSoS8_
FN:1747,_ZNK7testing8internal14FunctionMockerIFvhiEE33FormatUnexpectedCallMessageLockedERKSt5tupleIJhiEEPSoS8_
FN:1747,_ZNK7testing8internal14FunctionMockerIFvhEE33FormatUnexpectedCallMessageLockedERKSt5tupleIJhEEPSoS8_
FN:1747,_ZNK7testing8internal14FunctionMockerIFmhhmEE33FormatUnexpectedCallMessageLockedERKSt5tupleIJhhmEEPSoS8_
FN:1747,_ZNK7testing8internal14FunctionMockerIFfvEE33FormatUnexpectedCallMessageLockedERKSt5tupleIJEEPSoS8_
FN:1747,_ZNK7testing8internal14FunctionMockerIFviiEE33FormatUnexpectedCallMessageLockedERKSt5tupleIJiiEEPSoS8_
FN:1747,_ZNK7testing8internal14FunctionMockerIFvhPFvvEiEE33FormatUnexpectedCallMessageLockedERKSt5tupleIJhS3_iEEPSoSA_
FN:1747,_ZNK7testing8internal14FunctionMockerIFjvEE33FormatUnexpectedCallMessageLockedERKSt5tupleIJEEPSoS8_
FN:1747,_ZNK7testing8internal14FunctionMockerIFmhEE33FormatUnexpectedCallMessageLockedERKSt5tupleIJhEEPSoS8_
FN:1747,_ZNK7testing8internal14FunctionMockerIFvmEE33FormatUnexpectedCallMessageLockedERKSt5tupleIJmEEPSoS8_
FN:1747,_ZNK7testing8internal14FunctionMockerIFihEE33FormatUnexpectedCallMessageLockedERKSt5tupleIJhEEPSoS8_
FN:1747,_ZNK7testing8internal14FunctionMockerIFvhiiEE33FormatUnexpectedCallMessageLockedERKSt5tupleIJhiiEEPSoS8_
FN:1747,_ZNK7testing8internal14FunctionMockerIFhhhEE33FormatUnexpectedCallMessageLockedERKSt5tupleIJhhEEPSoS8_
FN:1747,_ZNK7testing8internal14FunctionMockerIFlvEE33FormatUnexpectedCallMessageLockedERKSt5tupleIJEEPSoS8_
FN:1747,_ZNK7testing8internal14FunctionMockerIFbvEE33FormatUnexpectedCallMessageLockedERKSt5tupleIJEEPSoS8_
FN:1747,_ZNK7testing8internal14FunctionMockerIFmvEE33FormatUnexpectedCallMessageLockedERKSt5tupleIJEEPSoS8_
FN:1747,_ZNK7testing8internal14FunctionMockerIFivEE33FormatUnexpectedCallMessageLockedERKSt5tupleIJEEPSoS8_
FN:1760,_ZNK7testing8internal14FunctionMockerIFhvEE28PrintTriedExpectationsLockedERKSt5tupleIJEEPSo
FN:1760,_ZNK7testing8internal14FunctionMockerIFbvEE28PrintTriedExpectationsLockedERKSt5tupleIJEEPSo
FN:1760,_ZNK7testing8internal14FunctionMockerIFviEE28PrintTriedExpectationsLockedERKSt5tupleIJiEEPSo
FN:1760,_ZNK7testing8internal14FunctionMockerIFvhPFvvEiEE28PrintTriedExpectationsLockedERKSt5tupleIJhS3_iEEPSo
FN:1760,_ZNK7testing8internal14FunctionMockerIFihEE28PrintTriedExpectationsLockedERKSt5tupleIJhEEPSo
FN:1760,_ZNK7testing8internal14FunctionMockerIFvjEE28PrintTriedExpectationsLockedERKSt5tupleIJjEEPSo
FN:1760,_ZNK7testing8internal14FunctionMockerIFfvEE28PrintTriedExpectationsLockedERKSt5tupleIJEEPSo
FN:1760,_ZNK7testing8internal14FunctionMockerIFmvEE28PrintTriedExpectationsLockedERKSt5tupleIJEEPSo
FN:1760,_ZNK7testing8internal14FunctionMockerIFvvEE28PrintTriedExpectationsLockedERKSt5tupleIJEEPSo
FN:1760,_ZNK7testing8internal14FunctionMockerIFivEE28PrintTriedExpectationsLockedERKSt5tupleIJEEPSo
FN:1760,_ZNK7testing8internal14FunctionMockerIFhhhEE28PrintTriedExpectationsLockedERKSt5tupleIJhhEEPSo
FN:1760,_ZNK7testing8internal14FunctionMockerIFvhhEE28PrintTriedExpectationsLockedERKSt5tupleIJhhEEPSo
FN:1760,_ZNK7testing8internal14FunctionMockerIFvhiiEE28PrintTriedExpectationsLockedERKSt5tupleIJhiiEEPSo
FN:1760,_ZNK7testing8internal14FunctionMockerIFmhhmEE28PrintTriedExpectationsLockedERKSt5tupleIJhhmEEPSo
FN:1760,_ZNK7testing8internal14FunctionMockerIFjvEE28PrintTriedExpectationsLockedERKSt5tupleIJEEPSo
FN:1760,_ZNK7testing8internal14FunctionMockerIFviiEE28PrintTriedExpectationsLockedERKSt5tupleIJiiEEPSo
FN:1760,_ZNK7testing8internal14FunctionMockerIFvhEE28PrintTriedExpectationsLockedERKSt5tupleIJhEEPSo
FN:1760,_ZNK7testing8internal14FunctionMockerIFlvEE28PrintTriedExpectationsLockedERKSt5tupleIJEEPSo
FN:1760,_ZNK7testing8internal14FunctionMockerIFvmEE28PrintTriedExpectationsLockedERKSt5tupleIJmEEPSo
FN:1760,_ZNK7testing8internal14FunctionMockerIFahEE28PrintTriedExpectationsLockedERKSt5tupleIJhEEPSo
FN:1760,_ZNK7testing8internal14FunctionMockerIFvhiEE28PrintTriedExpectationsLockedERKSt5tupleIJhiEEPSo
FN:1760,_ZNK7testing8internal14FunctionMockerIFmhEE28PrintTriedExpectationsLockedERKSt5tupleIJhEEPSo
FNDA:50,_ZNK7testing8internal16TypedExpectationIFvmEE16GetCurrentActionEPKNS0_14FunctionMockerIS2_EERKSt5tupleIJmEE
FNDA:70,_ZN7testing8internal14FunctionMockerIFmhhmEE30UntypedFindMatchingExpectationEPKvPS5_PbPSoS8_
FNDA:105,_ZN7testing8internal14FunctionMockerIFahEE4WithENS_7MatcherIhEE
FNDA:70,_ZN7testing8internal10OnCallSpecIFmvEE13WillByDefaultERKNS_6ActionIS2_EE
FNDA:7015,_ZN7testing8internal23ReferenceOrValueWrapperIhEC2Eh
FNDA:70,_ZN7testing8internal8MockSpecIFmvEE26InternalDefaultActionSetAtEPKciS5_S5_
FNDA:1930,_ZN7testing8internal18ActionResultHolderIbED2Ev
FNDA:25,_ZN7testing8internal16TypedExpectationIFbvEE5TimesEi
FNDA:0,_ZN7testing8internal14FunctionMockerIFjvEED0Ev
FNDA:20,_ZNK7testing8internal16TypedExpectationIFahEE21ShouldHandleArgumentsERKSt5tupleIJhEE
FNDA:45,_ZNK7testing8internal16TypedExpectationIFvvEE21ShouldHandleArgumentsERKSt5tupleIJEE
FNDA:0,_ZN7testing8internal16TypedExpectationIFjvEE9GetHandleEv
FNDA:520,_ZN7testing8internal14FunctionMockerIFbvEED2Ev
FNDA:55,_ZNK7testing8internal16TypedExpectationIFhvEE7MatchesERKSt5tupleIJEE
FNDA:55,_ZNK7testing8internal14FunctionMockerIFvhiiEE14FindOnCallSpecERKSt5tupleIJhiiEE
FNDA:30,_ZN7testing8internal18ActionResultHolderIjE20PerformDefaultActionIFjvEEEPS2_PKNS0_14FunctionMockerIT_EEONS0_8FunctionIS7_E13ArgumentTupleERKSs
FNDA:0,_ZN7testing8internal14FunctionMockerIFhhhEED0Ev
FNDA:420,_ZN7testing8internal23ReferenceOrValueWrapperIfEC2Ef
FNDA:70,_ZN7testing8internal18ActionResultHolderIlED0Ev
FNDA:0,_ZNK7testing8internal14FunctionMockerIFvhEE16UntypedPrintArgsEPKvPSo
FNDA:5,_ZNK7testing8internal14FunctionMockerIFjvEE20UntypedPerformActionEPKvPv
FNDA:0,_ZN7testing8internal18ActionResultHolderIvE13PerformActionIFvmEEEPS2_RKNS_6ActionIT_EEONS0_8FunctionIS7_E13ArgumentTupleE
FNDA:0,_ZNK7testing8internal14FunctionMockerIFvhhEE16UntypedPrintArgsEPKvPSo
FNDA:0,_ZNK7testing8internal14FunctionMockerIFvhEE28PrintTriedExpectationsLockedERKSt5tupleIJhEEPSo
FNDA:3735,_ZN7testing8internal18ActionResultHolderIvE20PerformDefaultActionIFvhEEEPS2_PKNS0_14FunctionMockerIT_EEONS0_8FunctionIS7_E13ArgumentTupleERKSs
FNDA:30,_ZNK7testing8internal18ActionResultHolderIvE19PrintAsActionResultEPSo
FNDA:260,_ZN7testing8internal14FunctionMockerIFlvEE25ClearDefaultActionsLockedEv
FNDA:30,_ZN7testing8internal14FunctionMockerIFvhiiEEC2Ev
FNDA:4190,_ZNK7testing8internal14FunctionMockerIFmhEE20PerformDefaultActionEOSt5tupleIJhEERKSs
FNDA:30,_ZNK7testing8internal16TypedExpectationIFvjEE7MatchesERKSt5tupleIJjEE
FNDA:0,_ZNK7testing8internal14FunctionMockerIFvhPFvvEiEE32UntypedDescribeUninterestingCallEPKvPSo
FNDA:75,_ZN7testing8internal8MockSpecIFihEEclERKNS0_15WithoutMatchersEPv
FNDA:25,_ZN7testing8internal14FunctionMockerIFfvEE17AddNewExpectationEPKciRKSsRKSt5tupleIJEE
FNDA:30,_ZN7testing8internal10OnCallSpecIFivEEC2EPKciRKSt5tupleIJEE
FNDA:40,_ZN7testing8internal16TypedExpectationIFlvEE5TimesERKNS_11CardinalityE
FNDA:0,_ZN7testing8internal14FunctionMockerIFhvEED0Ev
FNDA:25,_ZNK7testing8internal14FunctionMockerIFvhiiEE32UntypedDescribeUninterestingCallEPKvPSo
FNDA:10,_ZN7testing8internal8MockSpecIFvhPFvvEiEEclERKNS0_15WithoutMatchersEPv
FNDA:200,_ZN7testing8internal16TypedExpectationIFviEE8WillOnceERKNS_6ActionIS2_EE
FNDA:0,_ZNK7testing8internal10OnCallSpecIFhvEE9GetActionEv
FNDA:20,_ZNK7testing8internal14FunctionMockerIFahEE20UntypedPerformActionEPKvPv
FNDA:575,_ZN7testing8internal14FunctionMockerIFmhhmEE25ClearDefaultActionsLockedEv
FNDA:1150,_ZN7testing8internal14FunctionMockerIFmvEED2Ev
FNDA:5,_ZN7testing8internal8MockSpecIFvhiiEEC2EPNS0_14FunctionMockerIS2_EERKSt5tupleIJNS_7MatcherIhEENS8_IiEESA_EE
FNDA:160,_ZNK7testing8internal14FunctionMockerIFvjEE20PerformDefaultActionEOSt5tupleIJjEERKSs
FNDA:0,_ZNK7testing8internal14FunctionMockerIFviiEE23DescribeDefaultActionToERKSt5tupleIJiiEEPSo
FNDA:1930,_ZN7testing8internal23ReferenceOrValueWrapperIbE6UnwrapEv
FNDA:0,_ZN7testing8internal18ActionResultHolderIvE13PerformActionIFvhhEEEPS2_RKNS_6ActionIT_EEONS0_8FunctionIS7_E13ArgumentTupleE
FNDA:0,_ZNK7testing8internal14FunctionMockerIFlvEE28PrintTriedExpectationsLockedERKSt5tupleIJEEPSo
FNDA:70,_ZN7testing8internal23ReferenceOrValueWrapperIlEC2El
FNDA:0,_ZNK7testing8internal14FunctionMockerIFvhiiEE33FormatUnexpectedCallMessageLockedERKSt5tupleIJhiiEEPSoS8_
FNDA:0,_ZN7testing8internal10OnCallSpecIFhhhEED2Ev
FNDA:5,_ZN7testing8internal8MockSpecIFvhiiEE18InternalExpectedAtEPKciS5_S5_
FNDA:575,_ZN7testing8internal14FunctionMockerIFvjEED2Ev
FNDA:5,_ZN7testing8internal16TypedExpectationIFvmEED0Ev
FNDA:9070,_ZNK7testing8internal14FunctionMockerIFihEE29FindMatchingExpectationLockedERKSt5tupleIJhEE
FNDA:530,_ZN7testing8internal14FunctionMockerIFviEE6InvokeEi
FNDA:25,_ZN7testing8internal16TypedExpectationIFfvEED0Ev
FNDA:0,_ZNK7testing8internal16TypedExpectationIFbvEE20ExplainMatchResultToERKSt5tupleIJEEPSo
FNDA:260,_ZN7testing8internal14FunctionMockerIFlvEEC2Ev
FNDA:1750,_ZNK7testing11ExpectationeqERKS0_
FNDA:3280,_ZN7testing8internal14FunctionMockerIFhhhEE6InvokeEhh
FNDA:0,_ZNK7testing8internal16TypedExpectationIFvhEE20ExplainMatchResultToERKSt5tupleIJhEEPSo
FNDA:85,_ZN7testing8internal18ActionResultHolderIaE20PerformDefaultActionIFahEEEPS2_PKNS0_14FunctionMockerIT_EEONS0_8FunctionIS7_E13ArgumentTupleERKSs
FNDA:20,_ZNK7testing8internal16TypedExpectationIFfvEE7MatchesERKSt5tupleIJEE
FNDA:1150,_ZN7testing8internal14FunctionMockerIFihEE25ClearDefaultActionsLockedEv
FNDA:485,_ZN7testing8internal8MockSpecIFviEED2Ev
FNDA:160,_ZN7testing8internal18ActionResultHolderIvE20PerformDefaultActionIFvjEEEPS2_PKNS0_14FunctionMockerIT_EEONS0_8FunctionIS7_E13ArgumentTupleERKSs
FNDA:0,_ZN7testing8internal16TypedExpectationIFvhPFvvEiEE27MaybeDescribeExtraMatcherToEPSo
FNDA:35,_ZN7testing8internal8MockSpecIFviiEEC2EPNS0_14FunctionMockerIS2_EERKSt5tupleIJNS_7MatcherIiEES9_EE
FNDA:0,_ZNK7testing8internal14FunctionMockerIFhvEE32UntypedDescribeUninterestingCallEPKvPSo
FNDA:25,_ZN7testing8internal8MockSpecIFfvEE18InternalExpectedAtEPKciS5_S5_
FNDA:5,_ZN7testing8internal16TypedExpectationIFvmEEC2EPNS0_14FunctionMockerIS2_EEPKciRKSsRKSt5tupleIJNS_7MatcherImEEEE
FNDA:580,_ZN7testing8internal14FunctionMockerIFvhhEE6InvokeEhh
FNDA:160,_ZNK7testing8internal14FunctionMockerIFvjEE14FindOnCallSpecERKSt5tupleIJjEE
FNDA:0,_ZNK7testing8internal14FunctionMockerIFhhhEE33FormatUnexpectedCallMessageLockedERKSt5tupleIJhhEEPSoS8_
FNDA:0,_ZNK7testing8internal14FunctionMockerIFivEE32UntypedDescribeUninterestingCallEPKvPSo
FNDA:130,_ZN7testing8internal8MockSpecIFvhhEED2Ev
FNDA:2995,_ZN7testing14ExpectationSetD2Ev
FNDA:35,_ZNK7testing8internal14FunctionMockerIFvhiEE27UntypedPerformDefaultActionEPvRKSs
FNDA:1150,_ZN7testing8internal14FunctionMockerIFmvEE25ClearDefaultActionsLockedEv
FNDA:50,_ZN7testing8internal14FunctionMockerIFlvEE17AddNewExpectationEPKciRKSsRKSt5tupleIJEE
FNDA:0,_ZN7testing8internal16TypedExpectationIFviiEE9GetHandleEv
FNDA:0,_ZN7testing8internal14FunctionMockerIFlvEED0Ev
FNDA:60,_ZNK7testing8internal14FunctionMockerIFmhhmEE27UntypedPerformDefaultActionEPvRKSs
FNDA:0,_ZNK7testing8internal14FunctionMockerIFvhEE20UntypedPerformActionEPKvPv
FNDA:35,_ZN7testing8internal14FunctionMockerIFviiEE4WithENS_7MatcherIiEES5_
FNDA:0,_ZNK7testing8internal14FunctionMockerIFvhPFvvEiEE16UntypedPrintArgsEPKvPSo
FNDA:50,_ZNK7testing8internal16TypedExpectationIFvmEE7MatchesERKSt5tupleIJmEE
FNDA:0,_ZNK7testing8internal14FunctionMockerIFvmEE28PrintTriedExpectationsLockedERKSt5tupleIJmEEPSo
FNDA:0,_ZNK7testing8internal16TypedExpectationIFviiEE20ExplainMatchResultToERKSt5tupleIJiiEEPSo
FNDA:10,_ZN7testing8internal16TypedExpectationIFhhhEE5TimesEi
FNDA:260,_ZN7testing8internal14FunctionMockerIFfvEEC2Ev
FNDA:0,_ZN7testing8internal16TypedExpectationIFmvEE9GetHandleEv
FNDA:130,_ZN7testing8internal8MockSpecIFvhhEE18InternalExpectedAtEPKciS5_S5_
FNDA:15,_ZN7testing8internal8MockSpecIFhhhEEclERKNS0_15WithoutMatchersEPv
FNDA:5,_ZN7testing8internal16TypedExpectationIFvhPFvvEiEE21GetActionForArgumentsEPKNS0_14FunctionMockerIS4_EERKSt5tupleIJhS3_iEEPSoSE_
FNDA:140,_ZN7testing8internal8MockSpecIFmhEED2Ev
FNDA:15,_ZN7testing8internal16TypedExpectationIFmhEE9GetHandleEv
FNDA:0,_ZNK7testing8internal14FunctionMockerIFahEE28PrintTriedExpectationsLockedERKSt5tupleIJhEEPSo
FNDA:20,_ZN7testing8internal18ActionResultHolderIvE20PerformDefaultActionIFviiEEEPS2_PKNS0_14FunctionMockerIT_EEONS0_8FunctionIS7_E13ArgumentTupleERKSs
FNDA:15,_ZN7testing8internal16TypedExpectationIFjvEED2Ev
FNDA:15,_ZN7testing8internal14FunctionMockerIFhhhEE17AddNewExpectationEPKciRKSsRKSt5tupleIJNS_7MatcherIhEESA_EE
FNDA:35,_ZN7testing8internal18ActionResultHolderIjED0Ev
FNDA:25,_ZN7testing8internal16TypedExpectationIFhhhEE21GetActionForArgumentsEPKNS0_14FunctionMockerIS2_EERKSt5tupleIJhhEEPSoSC_
FNDA:2085,_ZN7testing8internal16TypedExpectationIFivEE8WillOnceERKNS_6ActionIS2_EE
FNDA:125,_ZNK7testing8internal16TypedExpectationIFvhhEE16GetCurrentActionEPKNS0_14FunctionMockerIS2_EERKSt5tupleIJhhEE
FNDA:0,_ZNK7testing8internal18ActionResultHolderIbE19PrintAsActionResultEPSo
FNDA:5,_ZN7testing8internal16TypedExpectationIFvhPFvvEiEE8WillOnceERKNS_6ActionIS4_EE
FNDA:1880,_ZNK7testing8internal14FunctionMockerIFbvEE27UntypedPerformDefaultActionEPvRKSs
FNDA:1260,_ZN7testing11ExpectationC2ERKS0_
FNDA:3300,_ZN7testing8internal18ActionResultHolderIiE20PerformDefaultActionIFivEEEPS2_PKNS0_14FunctionMockerIT_EEONS0_8FunctionIS7_E13ArgumentTupleERKSs
FNDA:20,_ZNK7testing8internal16TypedExpectationIFahEE7MatchesERKSt5tupleIJhEE
FNDA:605,_ZNK7testing8internal14FunctionMockerIFmvEE20UntypedPerformActionEPKvPv
FNDA:40,_ZNK7testing8internal14FunctionMockerIFlvEE27UntypedPerformDefaultActionEPvRKSs
FNDA:30,_ZNK7testing8internal14FunctionMockerIFvhiiEE20PerformDefaultActionEOSt5tupleIJhiiEERKSs
FNDA:15,_ZN7testing8internal16TypedExpectationIFfvEE5TimesEi
FNDA:0,_ZNK7testing8internal14FunctionMockerIFvmEE32UntypedDescribeUninterestingCallEPKvPSo
FNDA:55,_ZN7testing8internal16TypedExpectationIFihEE8WillOnceERKNS_6ActionIS2_EE
FNDA:575,_ZN7testing8internal14FunctionMockerIFvhPFvvEiEED2Ev
FNDA:3280,_ZNK7testing8internal14FunctionMockerIFhhhEE20PerformDefaultActionEOSt5tupleIJhhEERKSs
FNDA:4190,_ZN7testing8internal14FunctionMockerIFmhEE6InvokeEh
FNDA:105,_ZN7testing8internal8MockSpecIFahEED2Ev
FNDA:55,_ZNK7testing8internal16TypedExpectationIFvhEE7MatchesERKSt5tupleIJhEE
FNDA:1880,_ZNK7testing8internal14FunctionMockerIFbvEE14FindOnCallSpecERKSt5tupleIJEE
FNDA:5,_ZN7testing8internal8MockSpecIFvhiiEED2Ev
FNDA:40,_ZNK7testing8internal14FunctionMockerIFlvEE20PerformDefaultActionEOSt5tupleIJEERKSs
FNDA:45,_ZN7testing8internal8MockSpecIFvvEEC2EPNS0_14FunctionMockerIS2_EERKSt5tupleIJEE
FNDA:15105,_ZN7testing8internal23ReferenceOrValueWrapperImE6UnwrapEv
FNDA:0,_ZNK7testing8internal14FunctionMockerIFvhiEE28PrintTriedExpectationsLockedERKSt5tupleIJhiEEPSo
FNDA:0,_ZNK7testing8internal14FunctionMockerIFvmEE16UntypedPrintArgsEPKvPSo
FNDA:15,_ZN7testing8internal16TypedExpectationIFhvEE5TimesERKNS_11CardinalityE
FNDA:50,_ZNK7testing8internal16TypedExpectationIFlvEE7MatchesERKSt5tupleIJEE
FNDA:0,_ZN7testing8internal16TypedExpectationIFvjEE9GetHandleEv
FNDA:0,_ZNK7testing8internal14FunctionMockerIFvjEE20UntypedPerformActionEPKvPv
FNDA:85,_ZN7testing8internal10OnCallSpecIFahEEC2EPKciRKSt5tupleIJNS_7MatcherIhEEEE
FNDA:105,_ZN7testing8internal14FunctionMockerIFahEE6InvokeEh
FNDA:3280,_ZNK7testing8internal14FunctionMockerIFhhhEE27UntypedPerformDefaultActionEPvRKSs
FNDA:20,_ZN7testing8internal16TypedExpectationIFvhiEED2Ev
FNDA:20,_ZN7testing8internal16TypedExpectationIFviEE5TimesERKNS_11CardinalityE
FNDA:30,_ZNK7testing8internal14FunctionMockerIFvjEE29FindMatchingExpectationLockedERKSt5tupleIJjEE
FNDA:335,_ZNK7testing8internal14FunctionMockerIFviEE14FindOnCallSpecERKSt5tupleIJiEE
FNDA:6455,_ZN7testing8internal14FunctionMockerIFivEE6InvokeEv
FNDA:1105,_ZN7testing8internal14FunctionMockerIFivEE17AddNewExpectationEPKciRKSsRKSt5tupleIJEE
FNDA:75,_ZN7testing8internal14FunctionMockerIFvhPFvvEiEE6InvokeEhS3_i
FNDA:85,_ZN7testing8internal10OnCallSpecIFahEE13WillByDefaultERKNS_6ActionIS2_EE
FNDA:3735,_ZNK7testing8internal14FunctionMockerIFvhEE20PerformDefaultActionEOSt5tupleIJhEERKSs
FNDA:575,_ZN7testing8internal14FunctionMockerIFhhhEE25ClearDefaultActionsLockedEv
FNDA:0,_ZNK7testing8internal14FunctionMockerIFvhiEE20UntypedPerformActionEPKvPv
FNDA:0,_ZNK7testing8internal18ActionResultHolderIhE19PrintAsActionResultEPSo
FNDA:20,_ZN7testing8internal16TypedExpectationIFvhiEED0Ev
FNDA:0,_ZNK7testing8internal23ReferenceOrValueWrapperIjE4PeekEv
FNDA:605,_ZN7testing8internal14FunctionMockerIFmvEE30UntypedFindMatchingExpectationEPKvPS5_PbPSoS8_
FNDA:5,_ZNK7testing8internal16TypedExpectationIFvhPFvvEiEE7MatchesERKSt5tupleIJhS3_iEE
FNDA:0,_ZN7testing8internal16TypedExpectationIFvvEE27MaybeDescribeExtraMatcherToEPSo
FNDA:605,_ZNK7testing8internal14FunctionMockerIFmvEE29FindMatchingExpectationLockedERKSt5tupleIJEE
FNDA:0,_ZNK7testing8internal10OnCallSpecIFvvEE9GetActionEv
FNDA:20,_ZNK7testing8internal16TypedExpectationIFvhiEE7MatchesERKSt5tupleIJhiEE
FNDA:1880,_ZN7testing8internal18ActionResultHolderIbE20PerformDefaultActionIFbvEEEPS2_PKNS0_14FunctionMockerIT_EEONS0_8FunctionIS7_E13ArgumentTupleERKSs
FNDA:50,_ZNK7testing8internal14FunctionMockerIFvmEE29FindMatchingExpectationLockedERKSt5tupleIJmEE
FNDA:0,_ZN7testing8internal16TypedExpectationIFjvEE27MaybeDescribeExtraMatcherToEPSo
FNDA:400,_ZNK7testing8internal14FunctionMockerIFfvEE14FindOnCallSpecERKSt5tupleIJEE
FNDA:0,_ZNK7testing8internal14FunctionMockerIFlvEE33FormatUnexpectedCallMessageLockedERKSt5tupleIJEEPSoS8_
FNDA:3265,_ZN7testing8internal16TypedExpectationIFivEE21GetActionForArgumentsEPKNS0_14FunctionMockerIS2_EERKSt5tupleIJEEPSoSC_
FNDA:575,_ZN7testing8internal14FunctionMockerIFahEEC2Ev
FNDA:0,_ZNK7testing8internal14FunctionMockerIFmhEE20UntypedPerformActionEPKvPv
FNDA:0,_ZNK7testing8internal18ActionResultHolderImE19PrintAsActionResultEPSo
FNDA:0,_ZNK7testing8internal23ReferenceOrValueWrapperImE4PeekEv
FNDA:30,_ZNK7testing8internal14FunctionMockerIFjvEE27UntypedPerformDefaultActionEPvRKSs
FNDA:14270,_ZNK7testing8internal15ExpectationBase10call_countEv
FNDA:20,_ZN7testing8internal8MockSpecIFvhiEED2Ev
FNDA:0,_ZN7testing8internal16TypedExpectationIFvmEE9GetHandleEv
FNDA:75,_ZN7testing8internal16TypedExpectationIFihEEC2EPNS0_14FunctionMockerIS2_EEPKciRKSsRKSt5tupleIJNS_7MatcherIhEEEE
FNDA:3155,_ZN7testing8internal18ActionResultHolderIiE13PerformActionIFivEEEPS2_RKNS_6ActionIT_EEONS0_8FunctionIS7_E13ArgumentTupleE
FNDA:0,_ZNK7testing8internal14FunctionMockerIFfvEE23DescribeDefaultActionToERKSt5tupleIJEEPSo
FNDA:45,_ZN7testing8internal16TypedExpectationIFvvEE21GetActionForArgumentsEPKNS0_14FunctionMockerIS2_EERKSt5tupleIJEEPSoSC_
FNDA:0,_ZNK7testing8internal14FunctionMockerIFlvEE32UntypedDescribeUninterestingCallEPKvPSo
FNDA:50,_ZN7testing8internal16TypedExpectationIFbvEE21GetActionForArgumentsEPKNS0_14FunctionMockerIS2_EERKSt5tupleIJEEPSoSC_
FNDA:20,_ZN7testing8internal16TypedExpectationIFfvEE21GetActionForArgumentsEPKNS0_14FunctionMockerIS2_EERKSt5tupleIJEEPSoSC_
FNDA:480,_ZN7testing8internal16TypedExpectationIFviEE21GetActionForArgumentsEPKNS0_14FunctionMockerIS2_EERKSt5tupleIJiEEPSoSC_
FNDA:30,_ZN7testing8internal14FunctionMockerIFvjEE4WithENS_7MatcherIjEE
FNDA:0,_ZN7testing8internal14FunctionMockerIFihEED0Ev
FNDA:30,_ZNK7testing8internal16TypedExpectationIFvjEE15repeated_actionEv
FNDA:0,_ZN7testing8internal18ActionResultHolderIhE13PerformActionIFhvEEEPS2_RKNS_6ActionIT_EEONS0_8FunctionIS7_E13ArgumentTupleE
FNDA:60,_ZN7testing8internal16TypedExpectationIFbvEE8WillOnceERKNS_6ActionIS2_EE
FNDA:30,_ZN7testing8internal8MockSpecIFmhhmEED2Ev
FNDA:0,_ZNK7testing8internal23ReferenceOrValueWrapperIlE4PeekEv
FNDA:20,_ZNK7testing8internal16TypedExpectationIFviiEE21ShouldHandleArgumentsERKSt5tupleIJiiEE
FNDA:1370,_ZNK7testing8internal10OnCallSpecIFbvEE9GetActionEv
FNDA:0,_ZNK7testing8internal14FunctionMockerIFbvEE23DescribeDefaultActionToERKSt5tupleIJEEPSo
FNDA:0,_ZNK7testing8internal14FunctionMockerIFbvEE33FormatUnexpectedCallMessageLockedERKSt5tupleIJEEPSoS8_
FNDA:0,_ZN7testing8internal10OnCallSpecIFvmEED2Ev
FNDA:30485,_ZNK7testing14ExpectationSet3endEv
FNDA:75,_ZN7testing8internal8MockSpecIFihEEC2EPNS0_14FunctionMockerIS2_EERKSt5tupleIJNS_7MatcherIhEEEE
FNDA:0,_ZN7testing8internal16TypedExpectationIFvhEE27MaybeDescribeExtraMatcherToEPSo
FNDA:20,_ZN7testing8internal16TypedExpectationIFviiEE21GetActionForArgumentsEPKNS0_14FunctionMockerIS2_EERKSt5tupleIJiiEEPSoSC_
FNDA:105,_ZN7testing8internal18ActionResultHolderIaED2Ev
FNDA:2995,_ZN7testing14ExpectationSetC2Ev
FNDA:605,_ZNK7testing8internal16TypedExpectationIFmvEE16GetCurrentActionEPKNS0_14FunctionMockerIS2_EERKSt5tupleIJEE
FNDA:15105,_ZN7testing8internal18ActionResultHolderImE6UnwrapEv
FNDA:45,_ZN7testing8internal16TypedExpectationIFvvEEC2EPNS0_14FunctionMockerIS2_EEPKciRKSsRKSt5tupleIJEE
FNDA:50,_ZN7testing8internal14FunctionMockerIFlvEE30UntypedFindMatchingExpectationEPKvPS5_PbPSoS8_
FNDA:0,_ZNK7testing8internal16TypedExpectationIFviEE20ExplainMatchResultToERKSt5tupleIJiEEPSo
FNDA:5,_ZN7testing8internal16TypedExpectationIFfvEE14WillRepeatedlyERKNS_6ActionIS2_EE
FNDA:575,_ZN7testing8internal14FunctionMockerIFvhiEEC2Ev
FNDA:0,_ZNK7testing8internal14FunctionMockerIFfvEE16UntypedPrintArgsEPKvPSo
FNDA:400,_ZNK7testing8internal10OnCallSpecIFfvEE9GetActionEv
FNDA:1150,_ZN7testing8internal14FunctionMockerIFivEED2Ev
FNDA:3265,_ZN7testing8internal14FunctionMockerIFivEE30UntypedFindMatchingExpectationEPKvPS5_PbPSoS8_
FNDA:15,_ZN7testing8internal14FunctionMockerIFvhEE4WithENS_7MatcherIhEE
FNDA:0,_ZNK7testing8internal14FunctionMockerIFmvEE33FormatUnexpectedCallMessageLockedERKSt5tupleIJEEPSoS8_
FNDA:15,_ZN7testing8internal8MockSpecIFjvEEC2EPNS0_14FunctionMockerIS2_EERKSt5tupleIJEE
FNDA:15105,_ZN7testing8internal18ActionResultHolderImEC2ENS0_23ReferenceOrValueWrapperImEE
FNDA:40,_ZN7testing8internal10OnCallSpecIFfvEE13WillByDefaultERKNS_6ActionIS2_EE
FNDA:14270,_ZNK7testing8internal15ExpectationBase11source_textEv
FNDA:1150,_ZN7testing8internal14FunctionMockerIFmvEEC2Ev
FNDA:620,_ZN7testing8internal14FunctionMockerIFviEED2Ev
FNDA:70,_ZN7testing8internal18ActionResultHolderIvE20PerformDefaultActionIFvhPFvvEiEEEPS2_PKNS0_14FunctionMockerIT_EEONS0_8FunctionIS9_E13ArgumentTupleERKSs
FNDA:9070,_ZNK7testing8internal16TypedExpectationIFihEE21ShouldHandleArgumentsERKSt5tupleIJhEE
FNDA:595,_ZN7testing8internal14FunctionMockerIFvvEED2Ev
FNDA:35,_ZN7testing8internal18ActionResultHolderIjE6UnwrapEv
FNDA:0,_ZNK7testing8internal15ExpectationBase4lineEv
FNDA:0,_ZN7testing8internal16TypedExpectationIFmhhmEE9GetHandleEv
FNDA:55,_ZNK7testing8internal16TypedExpectationIFhvEE16GetCurrentActionEPKNS0_14FunctionMockerIS2_EERKSt5tupleIJEE
FNDA:105,_ZN7testing8internal18ActionResultHolderIaED0Ev
FNDA:0,_ZN7testing8internal10OnCallSpecIFvhhEED2Ev
FNDA:0,_ZNK7testing8internal14FunctionMockerIFmvEE16UntypedPrintArgsEPKvPSo
FNDA:7015,_ZN7testing8internal18ActionResultHolderIhED2Ev
FNDA:0,_ZN7testing8internal14FunctionMockerIFivEED0Ev
FNDA:0,_ZNK7testing8internal14FunctionMockerIFmhEE28PrintTriedExpectationsLockedERKSt5tupleIJhEEPSo
FNDA:140,_ZN7testing8internal8MockSpecIFmhEEclERKNS0_15WithoutMatchersEPv
FNDA:180,_ZN7testing8internal15ExpectationBase6RetireEv
FNDA:0,_ZNK7testing8internal10OnCallSpecIFvjEE7MatchesERKSt5tupleIJjEE
FNDA:9070,_ZN7testing8internal18ActionResultHolderIiE13PerformActionIFihEEEPS2_RKNS_6ActionIT_EEONS0_8FunctionIS7_E13ArgumentTupleE
FNDA:0,_ZNK7testing8internal14FunctionMockerIFvhhEE20UntypedPerformActionEPKvPv
FNDA:36070,_ZNK7testing8internal15ExpectationBase11cardinalityEv
FNDA:35,_ZNK7testing8internal14FunctionMockerIFjvEE29FindMatchingExpectationLockedERKSt5tupleIJEE
FNDA:0,_ZNK7testing8internal14FunctionMockerIFivEE33FormatUnexpectedCallMessageLockedERKSt5tupleIJEEPSoS8_
FNDA:0,_ZNK7testing8internal15ExpectationBase18DescribeLocationToEPSo
FNDA:55,_ZNK7testing8internal16TypedExpectationIFhvEE15repeated_actionEv
FNDA:20,_ZNK7testing8internal16TypedExpectationIFahEE16GetCurrentActionEPKNS0_14FunctionMockerIS2_EERKSt5tupleIJhEE
FNDA:25,_ZNK7testing8internal16TypedExpectationIFhhhEE15repeated_actionEv
FNDA:0,_ZNK7testing8internal14FunctionMockerIFbvEE32UntypedDescribeUninterestingCallEPKvPSo
FNDA:0,_ZNK7testing8internal10OnCallSpecIFjvEE9GetActionEv
FNDA:20,_ZN7testing8internal16TypedExpectationIFvhiEEC2EPNS0_14FunctionMockerIS2_EEPKciRKSsRKSt5tupleIJNS_7MatcherIhEENSC_IiEEEE
FNDA:0,_ZNK7testing8internal18ActionResultHolderIfE19PrintAsActionResultEPSo
FNDA:3735,_ZNK7testing8internal14FunctionMockerIFhvEE27UntypedPerformDefaultActionEPvRKSs
FNDA:20,_ZN7testing8internal16TypedExpectationIFihEE5TimesEi
FNDA:0,_ZNK7testing8internal14FunctionMockerIFmhEE32UntypedDescribeUninterestingCallEPKvPSo
FNDA:170,_ZN7testing8internal10OnCallSpecIFbvEED2Ev
FNDA:70,_ZN7testing8internal18ActionResultHolderIlED2Ev
FNDA:0,_ZN7testing8internal16TypedExpectationIFvhEE9GetHandleEv
FNDA:20,_ZN7testing8internal8MockSpecIFvhiEE18InternalExpectedAtEPKciS5_S5_
FNDA:140,_ZN7testing8internal16TypedExpectationIFmhEED0Ev
FNDA:15,_ZN7testing8internal16TypedExpectationIFhhhEED2Ev
FNDA:20,_ZN7testing8internal18ActionResultHolderIaE13PerformActionIFahEEEPS2_RKNS_6ActionIT_EEONS0_8FunctionIS7_E13ArgumentTupleE
FNDA:15,_ZN7testing8internal16TypedExpectationIFvhEEC2EPNS0_14FunctionMockerIS2_EEPKciRKSsRKSt5tupleIJNS_7MatcherIhEEEE
FNDA:130,_ZN7testing8internal14FunctionMockerIFvhhEE17AddNewExpectationEPKciRKSsRKSt5tupleIJNS_7MatcherIhEESA_EE
FNDA:0,_ZN7testing8internal14FunctionMockerIFvjEED0Ev
FNDA:0,_ZNK7testing8internal16TypedExpectationIFvhiiEE20ExplainMatchResultToERKSt5tupleIJhiiEEPSo
FNDA:0,_ZN7testing8internal16TypedExpectationIFmhhmEE27MaybeDescribeExtraMatcherToEPSo
FNDA:30,_ZN7testing8internal16TypedExpectationIFvjEED0Ev
FNDA:50,_ZN7testing8internal16TypedExpectationIFlvEE21GetActionForArgumentsEPKNS0_14FunctionMockerIS2_EERKSt5tupleIJEEPSoSC_
FNDA:0,_ZNK7testing8internal10OnCallSpecIFvhEE7MatchesERKSt5tupleIJhEE
FNDA:520,_ZN7testing8internal14FunctionMockerIFbvEE25ClearDefaultActionsLockedEv
FNDA:130,_ZNK7testing8internal14FunctionMockerIFvvEE27UntypedPerformDefaultActionEPvRKSs
FNDA:0,_ZNK7testing8internal16TypedExpectationIFvhhEE20ExplainMatchResultToERKSt5tupleIJhhEEPSo
FNDA:45,_ZN7testing8internal8MockSpecIFvvEE18InternalExpectedAtEPKciS5_S5_
FNDA:0,_ZN7testing8internal16TypedExpectationIFhhhEE27MaybeDescribeExtraMatcherToEPSo
FNDA:1105,_ZN7testing8internal8MockSpecIFivEE18InternalExpectedAtEPKciS5_S5_
FNDA:0,_ZNK7testing8internal14FunctionMockerIFjvEE32UntypedDescribeUninterestingCallEPKvPSo
FNDA:710,_ZN7testing8internal8MockSpecIFmvEEclERKNS0_15WithoutMatchersEPv
FNDA:0,_ZN7testing8internal16TypedExpectationIFfvEE27MaybeDescribeExtraMatcherToEPSo
FNDA:130,_ZNK7testing8internal14FunctionMockerIFvvEE14FindOnCallSpecERKSt5tupleIJEE
FNDA:0,_ZNK7testing8internal14FunctionMockerIFjvEE16UntypedPrintArgsEPKvPSo
FNDA:15,_ZN7testing8internal16TypedExpectationIFfvEE5TimesERKNS_11CardinalityE
FNDA:20,_ZN7testing8internal16TypedExpectationIFahEE8WillOnceERKNS_6ActionIS2_EE
FNDA:1880,_ZNK7testing8internal14FunctionMockerIFbvEE20PerformDefaultActionEOSt5tupleIJEERKSs
FNDA:5,_ZNK7testing8internal14FunctionMockerIFvhPFvvEiEE20UntypedPerformActionEPKvPv
FNDA:0,_ZN7testing8internal16TypedExpectationIFbvEE27MaybeDescribeExtraMatcherToEPSo
FNDA:0,_ZNK7testing8internal14FunctionMockerIFahEE16UntypedPrintArgsEPKvPSo
FNDA:330,_ZNK7testing8internal14FunctionMockerIFviEE20PerformDefaultActionEOSt5tupleIJiEERKSs
FNDA:50,_ZNK7testing8internal16TypedExpectationIFbvEE16GetCurrentActionEPKNS0_14FunctionMockerIS2_EERKSt5tupleIJEE
FNDA:55,_ZN7testing8internal16TypedExpectationIFvhEE21GetActionForArgumentsEPKNS0_14FunctionMockerIS2_EERKSt5tupleIJhEEPSoSC_
FNDA:20,_ZN7testing8internal8MockSpecIFvhiEEC2EPNS0_14FunctionMockerIS2_EERKSt5tupleIJNS_7MatcherIhEENS8_IiEEEE
FNDA:15,_ZN7testing8internal16TypedExpectationIFhhhEED0Ev
FNDA:0,_ZNK7testing11Expectation4LessclERKS0_S3_
FNDA:0,_ZNK7testing8internal10OnCallSpecIFviEE7MatchesERKSt5tupleIJiEE
FNDA:170,_ZNK7testing8internal16TypedExpectationIFmhEE16GetCurrentActionEPKNS0_14FunctionMockerIS2_EERKSt5tupleIJhEE
FNDA:485,_ZN7testing8internal8MockSpecIFviEEclERKNS0_15WithoutMatchersEPv
FNDA:575,_ZN7testing8internal14FunctionMockerIFhvEED2Ev
FNDA:55,_ZNK7testing8internal14FunctionMockerIFhvEE29FindMatchingExpectationLockedERKSt5tupleIJEE
FNDA:160,_ZN7testing8internal14FunctionMockerIFvjEE6InvokeEj
FNDA:0,_ZN7testing8internal10OnCallSpecIFmhhmEED2Ev
FNDA:85,_ZN7testing8internal14FunctionMockerIFbvEE17AddNewExpectationEPKciRKSsRKSt5tupleIJEE
FNDA:480,_ZNK7testing8internal16TypedExpectationIFviEE16GetCurrentActionEPKNS0_14FunctionMockerIS2_EERKSt5tupleIJiEE
FNDA:20,_ZN7testing8internal14FunctionMockerIFahEE30UntypedFindMatchingExpectationEPKvPS5_PbPSoS8_
FNDA:310,_ZN7testing8SequenceC2Ev
FNDA:15540,_ZN7testing8internal23ReferenceOrValueWrapperIiEC2Ei
FNDA:10,_ZN7testing8internal16TypedExpectationIFvhPFvvEiEED2Ev
FNDA:35,_ZN7testing8internal8MockSpecIFviiEED2Ev
FNDA:45,_ZNK7testing8internal16TypedExpectationIFvvEE15repeated_actionEv
FNDA:3735,_ZN7testing8internal14FunctionMockerIFvhEE6InvokeEh
FNDA:0,_ZNK7testing8internal16TypedExpectationIFmhhmEE20ExplainMatchResultToERKSt5tupleIJhhmEEPSo
FNDA:0,_ZN7testing8internal16TypedExpectationIFvhiEE9GetHandleEv
FNDA:5,_ZN7testing8internal16TypedExpectationIFvmEE5TimesEi
FNDA:10,_ZN7testing8internal8MockSpecIFvhPFvvEiEEC2EPNS0_14FunctionMockerIS4_EERKSt5tupleIJNS_7MatcherIhEENSA_IS3_EENSA_IiEEEE
FNDA:20,_ZN7testing8internal16TypedExpectationIFahEED0Ev
FNDA:0,_ZNK7testing8internal14FunctionMockerIFviiEE32UntypedDescribeUninterestingCallEPKvPSo
FNDA:0,_ZNK7testing8internal18ActionResultHolderIlE19PrintAsActionResultEPSo
FNDA:15,_ZN7testing8internal14FunctionMockerIFjvEE17AddNewExpectationEPKciRKSsRKSt5tupleIJEE
FNDA:10230,_ZNK7testing8internal14FunctionMockerIFmvEE14FindOnCallSpecERKSt5tupleIJEE
FNDA:580,_ZNK7testing8internal14FunctionMockerIFvhhEE27UntypedPerformDefaultActionEPvRKSs
FNDA:580,_ZN7testing8internal18ActionResultHolderIvE20PerformDefaultActionIFvhhEEEPS2_PKNS0_14FunctionMockerIT_EEONS0_8FunctionIS7_E13ArgumentTupleERKSs
FNDA:0,_ZNK7testing8internal18ActionResultHolderIaE19PrintAsActionResultEPSo
FNDA:0,_ZN7testing8internal16TypedExpectationIFahEE27MaybeDescribeExtraMatcherToEPSo
FNDA:0,_ZNK7testing8internal14FunctionMockerIFvhiEE32UntypedDescribeUninterestingCallEPKvPSo
FNDA:30,_ZN7testing8internal14FunctionMockerIFivEE16AddNewOnCallSpecEPKciRKSt5tupleIJEE
FNDA:575,_ZN7testing8internal14FunctionMockerIFmhEED2Ev
FNDA:0,_ZN7testing8internal16TypedExpectationIFvhiiEE9GetHandleEv
FNDA:60,_ZNK7testing8internal14FunctionMockerIFmhhmEE14FindOnCallSpecERKSt5tupleIJhhmEE
FNDA:30,_ZN7testing8internal14FunctionMockerIFvhiiEED2Ev
FNDA:1260,_ZN7testing14ExpectationSetpLERKNS_11ExpectationE
FNDA:3280,_ZNK7testing8internal14FunctionMockerIFhhhEE14FindOnCallSpecERKSt5tupleIJhhEE
FNDA:10,_ZN7testing8internal16TypedExpectationIFjvEE5TimesEi
FNDA:0,_ZN7testing8internal16TypedExpectationIFviEE9GetHandleEv
FNDA:70,_ZN7testing8internal14FunctionMockerIFmvEE16AddNewOnCallSpecEPKciRKSt5tupleIJEE
FNDA:0,_ZNK7testing8internal14FunctionMockerIFvjEE16UntypedPrintArgsEPKvPSo
FNDA:575,_ZN7testing8internal14FunctionMockerIFhhhEED2Ev
FNDA:20,_ZN7testing8internal16TypedExpectationIFihEE5TimesERKNS_11CardinalityE
FNDA:420,_ZN7testing8internal18ActionResultHolderIfEC2ENS0_23ReferenceOrValueWrapperIfEE
FNDA:20,_ZN7testing8internal16TypedExpectationIFihEE14WillRepeatedlyERKNS_6ActionIS2_EE
FNDA:170,_ZNK7testing8internal16TypedExpectationIFmhEE15repeated_actionEv
FNDA:0,_ZN7testing8internal14FunctionMockerIFmhEED0Ev
FNDA:0,_ZNK7testing8internal16TypedExpectationIFhhhEE20ExplainMatchResultToERKSt5tupleIJhhEEPSo
FNDA:0,_ZNK7testing8internal10OnCallSpecIFvhhEE7MatchesERKSt5tupleIJhhEE
FNDA:10230,_ZNK7testing8internal14FunctionMockerIFmvEE27UntypedPerformDefaultActionEPvRKSs
FNDA:2970,_ZN7testing8internal15ExpectationBase15set_cardinalityERKNS_11CardinalityE
FNDA:0,_ZNK7testing8internal16TypedExpectationIFmhEE20ExplainMatchResultToERKSt5tupleIJhEEPSo
FNDA:0,_ZNK7testing8internal14FunctionMockerIFvhiEE23DescribeDefaultActionToERKSt5tupleIJhiEEPSo
FNDA:45,_ZN7testing8internal14FunctionMockerIFvvEE4WithEv
FNDA:15,_ZN7testing8internal8MockSpecIFvhEED2Ev
FNDA:35,_ZN7testing8internal23ReferenceOrValueWrapperIjE6UnwrapEv
FNDA:20,_ZNK7testing8internal14FunctionMockerIFviiEE14FindOnCallSpecERKSt5tupleIJiiEE
FNDA:20,_ZN7testing8internal14FunctionMockerIFfvEE30UntypedFindMatchingExpectationEPKvPS5_PbPSoS8_
FNDA:20,_ZN7testing8internal8MockSpecIFvhiEEclERKNS0_15WithoutMatchersEPv
FNDA:70,_ZN7testing8internal10OnCallSpecIFmvEED2Ev
FNDA:60,_ZN7testing8internal18ActionResultHolderImE20PerformDefaultActionIFmhhmEEEPS2_PKNS0_14FunctionMockerIT_EEONS0_8FunctionIS7_E13ArgumentTupleERKSs
FNDA:105,_ZN7testing8internal18ActionResultHolderIaE6UnwrapEv
FNDA:130,_ZN7testing8internal16TypedExpectationIFvhhEED2Ev
FNDA:0,_ZN7testing8internal10OnCallSpecIFhvEED2Ev
FNDA:3265,_ZNK7testing8internal16TypedExpectationIFivEE16GetCurrentActionEPKNS0_14FunctionMockerIS2_EERKSt5tupleIJEE
FNDA:575,_ZN7testing8internal14FunctionMockerIFvmEE25ClearDefaultActionsLockedEv
FNDA:15,_ZN7testing8internal8MockSpecIFvhEE18InternalExpectedAtEPKciS5_S5_
FNDA:30,_ZN7testing8internal8MockSpecIFmhhmEEC2EPNS0_14FunctionMockerIS2_EERKSt5tupleIJNS_7MatcherIhEES9_NS8_ImEEEE
FNDA:575,_ZN7testing8internal14FunctionMockerIFvjEEC2Ev
FNDA:0,_ZNK7testing8internal14FunctionMockerIFvmEE20UntypedPerformActionEPKvPv
FNDA:55,_ZNK7testing8internal16TypedExpectationIFvhEE16GetCurrentActionEPKNS0_14FunctionMockerIS2_EERKSt5tupleIJhEE
FNDA:0,_ZN7testing8internal16TypedExpectationIFfvEE9GetHandleEv
FNDA:20,_ZN7testing8internal16TypedExpectationIFahEED2Ev
FNDA:400,_ZN7testing8internal18ActionResultHolderIfE20PerformDefaultActionIFfvEEEPS2_PKNS0_14FunctionMockerIT_EEONS0_8FunctionIS7_E13ArgumentTupleERKSs
FNDA:40,_ZNK7testing8internal16TypedExpectationIFlvEE15repeated_actionEv
FNDA:30,_ZN7testing8internal18ActionResultHolderIvE20PerformDefaultActionIFvhiiEEEPS2_PKNS0_14FunctionMockerIT_EEONS0_8FunctionIS7_E13ArgumentTupleERKSs
FNDA:65,_ZN7testing8internal16TypedExpectationIFivEE5TimesERKNS_11CardinalityE
FNDA:1750,_ZNK7testing11ExpectationneERKS0_
FNDA:15,_ZNK7testing8internal14FunctionMockerIFihEE27UntypedPerformDefaultActionEPvRKSs
FNDA:1135,_ZN7testing8internal14FunctionMockerIFivEE4WithEv
FNDA:1460,_ZNK7testing11Expectation16expectation_baseEv
FNDA:50,_ZNK7testing8internal16TypedExpectationIFmhhmEE15repeated_actionEv
FNDA:255,_ZN7testing8internal8MockSpecIFbvEEclERKNS0_15WithoutMatchersEPv
FNDA:3300,_ZNK7testing8internal14FunctionMockerIFivEE20PerformDefaultActionEOSt5tupleIJEERKSs
FNDA:55,_ZN7testing8internal16TypedExpectationIFhvEE21GetActionForArgumentsEPKNS0_14FunctionMockerIS2_EERKSt5tupleIJEEPSoSC_
FNDA:1105,_ZN7testing8internal16TypedExpectationIFivEEC2EPNS0_14FunctionMockerIS2_EEPKciRKSsRKSt5tupleIJEE
FNDA:75,_ZN7testing8internal16TypedExpectationIFbvEE5TimesERKNS_11CardinalityE
FNDA:15,_ZN7testing8internal14FunctionMockerIFhvEE4WithEv
FNDA:595,_ZN7testing8internal14FunctionMockerIFvvEE25ClearDefaultActionsLockedEv
FNDA:50,_ZNK7testing8internal14FunctionMockerIFbvEE29FindMatchingExpectationLockedERKSt5tupleIJEE
FNDA:0,_ZNK7testing8internal16TypedExpectationIFvjEE20ExplainMatchResultToERKSt5tupleIJjEEPSo
FNDA:0,_ZNK7testing8internal18ActionResultHolderIiE19PrintAsActionResultEPSo
FNDA:0,_ZNK7testing8internal10OnCallSpecIFlvEE7MatchesERKSt5tupleIJEE
FNDA:640,_ZN7testing8internal16TypedExpectationIFmvEED2Ev
FNDA:130,_ZNK7testing8internal14FunctionMockerIFvvEE20PerformDefaultActionEOSt5tupleIJEERKSs
FNDA:485,_ZN7testing8internal14FunctionMockerIFviEE17AddNewExpectationEPKciRKSsRKSt5tupleIJNS_7MatcherIiEEEE
FNDA:10,_ZNK7testing8internal16TypedExpectationIFbvEE15repeated_actionEv
FNDA:75,_ZN7testing8internal8MockSpecIFihEE18InternalExpectedAtEPKciS5_S5_
FNDA:55,_ZNK7testing8internal16TypedExpectationIFvhEE21ShouldHandleArgumentsERKSt5tupleIJhEE
FNDA:30,_ZN7testing8internal16TypedExpectationIFmhhmEED2Ev
FNDA:0,_ZNK7testing8internal14FunctionMockerIFjvEE23DescribeDefaultActionToERKSt5tupleIJEEPSo
FNDA:10,_ZN7testing8internal16TypedExpectationIFvhEE5TimesEi
FNDA:0,_ZN7testing8internal14FunctionMockerIFfvEED0Ev
FNDA:130,_ZN7testing8internal18ActionResultHolderIvE20PerformDefaultActionIFvvEEEPS2_PKNS0_14FunctionMockerIT_EEONS0_8FunctionIS7_E13ArgumentTupleERKSs
FNDA:85,_ZNK7testing8internal14FunctionMockerIFahEE20PerformDefaultActionEOSt5tupleIJhEERKSs
FNDA:485,_ZNK7testing8internal16TypedExpectationIFviEE21ShouldHandleArgumentsERKSt5tupleIJiEE
FNDA:580,_ZNK7testing8internal14FunctionMockerIFvhhEE14FindOnCallSpecERKSt5tupleIJhhEE
FNDA:50,_ZN7testing8internal14FunctionMockerIFbvEE30UntypedFindMatchingExpectationEPKvPS5_PbPSoS8_
FNDA:5,_ZN7testing8internal18ActionResultHolderIvE13PerformActionIFvhPFvvEiEEEPS2_RKNS_6ActionIT_EEONS0_8FunctionIS9_E13ArgumentTupleE
FNDA:0,_ZNK7testing8internal10OnCallSpecIFmhEE9GetActionEv
FNDA:29735,_ZNK7testing14ExpectationSet5beginEv
FNDA:0,_ZNK7testing8internal10OnCallSpecIFhhhEE7MatchesERKSt5tupleIJhhEE
FNDA:20,_ZNK7testing8internal14FunctionMockerIFmhhmEE20UntypedPerformActionEPKvPv
FNDA:0,_ZNK7testing8internal14FunctionMockerIFihEE23DescribeDefaultActionToERKSt5tupleIJhEEPSo
FNDA:0,_ZNK7testing8internal14FunctionMockerIFhhhEE23DescribeDefaultActionToERKSt5tupleIJhhEEPSo
FNDA:15,_ZN7testing8internal8MockSpecIFvhEEclERKNS0_15WithoutMatchersEPv
FNDA:10,_ZN7testing8internal16TypedExpectationIFlvEE14WillRepeatedlyERKNS_6ActionIS2_EE
FNDA:5,_ZNK7testing8internal16TypedExpectationIFvhiiEE16GetCurrentActionEPKNS0_14FunctionMockerIS2_EERKSt5tupleIJhiiEE
FNDA:0,_ZNK7testing8internal14FunctionMockerIFahEE32UntypedDescribeUninterestingCallEPKvPSo
FNDA:55,_ZNK7testing8internal16TypedExpectationIFhvEE21ShouldHandleArgumentsERKSt5tupleIJEE
FNDA:1150,_ZN7testing8internal14FunctionMockerIFihEED2Ev
FNDA:85,_ZN7testing8internal16TypedExpectationIFbvEED2Ev
FNDA:3130,_ZNK7testing8internal15ExpectationBase21cardinality_specifiedEv
FNDA:35,_ZN7testing8internal16TypedExpectationIFviiEED2Ev
FNDA:30,_ZNK7testing8internal14FunctionMockerIFlvEE20UntypedPerformActionEPKvPv
FNDA:70,_ZNK7testing8internal16TypedExpectationIFmhhmEE7MatchesERKSt5tupleIJhhmEE
FNDA:15,_ZN7testing8internal14FunctionMockerIFvhEE17AddNewExpectationEPKciRKSsRKSt5tupleIJNS_7MatcherIhEEEE
FNDA:15,_ZN7testing8internal8MockSpecIFjvEEclERKNS0_15WithoutMatchersEPv
FNDA:0,_ZNK7testing8internal14FunctionMockerIFihEE32UntypedDescribeUninterestingCallEPKvPSo
FNDA:70,_ZNK7testing8internal14FunctionMockerIFvhPFvvEiEE20PerformDefaultActionEOSt5tupleIJhS3_iEERKSs
FNDA:140,_ZN7testing8internal8MockSpecIFmhEE18InternalExpectedAtEPKciS5_S5_
FNDA:420,_ZN7testing8internal18ActionResultHolderIfE6UnwrapEv
FNDA:75,_ZN7testing8internal14FunctionMockerIFihEE4WithENS_7MatcherIhEE
FNDA:30,_ZN7testing8internal8MockSpecIFivEE26InternalDefaultActionSetAtEPKciS5_S5_
FNDA:20,_ZN7testing8internal14FunctionMockerIFviiEE30UntypedFindMatchingExpectationEPKvPS5_PbPSoS8_
FNDA:75,_ZN7testing8internal16TypedExpectationIFihEED2Ev
FNDA:10,_ZNK7testing8internal16TypedExpectationIFfvEE15repeated_actionEv
FNDA:575,_ZN7testing8internal14FunctionMockerIFvmEEC2Ev
FNDA:35,_ZNK7testing8internal14FunctionMockerIFvhiEE20PerformDefaultActionEOSt5tupleIJhiEERKSs
FNDA:0,_ZNK7testing8internal14FunctionMockerIFihEE16UntypedPrintArgsEPKvPSo
FNDA:640,_ZN7testing8internal16TypedExpectationIFmvEEC2EPNS0_14FunctionMockerIS2_EEPKciRKSsRKSt5tupleIJEE
FNDA:105,_ZN7testing8internal18ActionResultHolderIaEC2ENS0_23ReferenceOrValueWrapperIaEE
FNDA:130,_ZN7testing8internal8MockSpecIFvhhEEC2EPNS0_14FunctionMockerIS2_EERKSt5tupleIJNS_7MatcherIhEES9_EE
FNDA:10,_ZN7testing8internal16TypedExpectationIFjvEE5TimesERKNS_11CardinalityE
FNDA:25,_ZN7testing8internal16TypedExpectationIFfvEEC2EPNS0_14FunctionMockerIS2_EEPKciRKSsRKSt5tupleIJEE
FNDA:70,_ZNK7testing8internal16TypedExpectationIFmhhmEE21ShouldHandleArgumentsERKSt5tupleIJhhmEE
FNDA:0,_ZNK7testing8internal14FunctionMockerIFvhiiEE28PrintTriedExpectationsLockedERKSt5tupleIJhiiEEPSo
FNDA:0,_ZNK7testing8internal14FunctionMockerIFhhhEE16UntypedPrintArgsEPKvPSo
FNDA:130,_ZN7testing8internal8MockSpecIFvhhEEclERKNS0_15WithoutMatchersEPv
FNDA:800,_ZNK7testing8internal14FunctionMockerIFvmEE27UntypedPerformDefaultActionEPvRKSs
FNDA:1105,_ZN7testing8internal16TypedExpectationIFivEED0Ev
FNDA:3265,_ZNK7testing8internal16TypedExpectationIFivEE7MatchesERKSt5tupleIJEE
FNDA:45,_ZNK7testing8internal14FunctionMockerIFvvEE29FindMatchingExpectationLockedERKSt5tupleIJEE
FNDA:20,_ZNK7testing8internal16TypedExpectationIFvhiEE16GetCurrentActionEPKNS0_14FunctionMockerIS2_EERKSt5tupleIJhiEE
FNDA:0,_ZNK7testing8internal18ActionResultHolderIjE19PrintAsActionResultEPSo
FNDA:30,_ZN7testing8internal14FunctionMockerIFjvEEC2Ev
FNDA:575,_ZNK7testing8internal16TypedExpectationIFmhEE21ShouldHandleArgumentsERKSt5tupleIJhEE
FNDA:0,_ZNK7testing8internal10OnCallSpecIFmhEE7MatchesERKSt5tupleIJhEE
FNDA:10,_ZNK7testing8internal16TypedExpectationIFmvEE15repeated_actionEv
FNDA:3060,_ZNK7testing8internal10OnCallSpecIFivEE9GetActionEv
FNDA:1150,_ZN7testing8internal14FunctionMockerIFvhhEE25ClearDefaultActionsLockedEv
FNDA:75,_ZN7testing8internal8MockSpecIFihEED2Ev
FNDA:35,_ZN7testing8internal16TypedExpectationIFviiEEC2EPNS0_14FunctionMockerIS2_EEPKciRKSsRKSt5tupleIJNS_7MatcherIiEESD_EE
FNDA:10,_ZN7testing8internal14FunctionMockerIFvhPFvvEiEE4WithENS_7MatcherIhEENS6_IS3_EENS6_IiEE
FNDA:5,_ZN7testing8internal16TypedExpectationIFvhiiEED0Ev
FNDA:5,_ZN7testing8internal14FunctionMockerIFvhiiEE30UntypedFindMatchingExpectationEPKvPS5_PbPSoS8_
FNDA:0,_ZNK7testing8internal14FunctionMockerIFjvEE28PrintTriedExpectationsLockedERKSt5tupleIJEEPSo
FNDA:0,_ZNK7testing8internal14FunctionMockerIFvhEE32UntypedDescribeUninterestingCallEPKvPSo
FNDA:0,_ZNK7testing8internal23ReferenceOrValueWrapperIfE4PeekEv
FNDA:130,_ZN7testing8internal14FunctionMockerIFvhhEE4WithENS_7MatcherIhEES5_
FNDA:0,_ZNK7testing8internal14FunctionMockerIFvmEE33FormatUnexpectedCallMessageLockedERKSt5tupleIJmEEPSoS8_
FNDA:70,_ZNK7testing8internal14FunctionMockerIFvhPFvvEiEE27UntypedPerformDefaultActionEPvRKSs
FNDA:20,_ZN7testing8internal16TypedExpectationIFahEE21GetActionForArgumentsEPKNS0_14FunctionMockerIS2_EERKSt5tupleIJhEEPSoSC_
FNDA:80,_ZN7testing8internal14FunctionMockerIFmhhmEE6InvokeEhhm
FNDA:0,_ZN7testing8internal16TypedExpectationIFviEE27MaybeDescribeExtraMatcherToEPSo
FNDA:0,_ZN7testing8internal16TypedExpectationIFvhhEE9GetHandleEv
FNDA:9070,_ZNK7testing8internal16TypedExpectationIFihEE7MatchesERKSt5tupleIJhEE
FNDA:10,_ZN7testing8internal16TypedExpectationIFfvEE8WillOnceERKNS_6ActionIS2_EE
FNDA:485,_ZN7testing8internal14FunctionMockerIFviEE4WithENS_7MatcherIiEE
FNDA:55,_ZN7testing8internal14FunctionMockerIFhvEE30UntypedFindMatchingExpectationEPKvPS5_PbPSoS8_
FNDA:105,_ZN7testing8internal8MockSpecIFahEEC2EPNS0_14FunctionMockerIS2_EERKSt5tupleIJNS_7MatcherIhEEEE
FNDA:50,_ZNK7testing8internal14FunctionMockerIFlvEE29FindMatchingExpectationLockedERKSt5tupleIJEE
FNDA:50,_ZNK7testing8internal16TypedExpectationIFlvEE21ShouldHandleArgumentsERKSt5tupleIJEE
FNDA:0,_ZN7testing8internal14FunctionMockerIFbvEED0Ev
FNDA:25,_ZN7testing8internal16TypedExpectationIFfvEED2Ev
FNDA:20,_ZN7testing8internal14FunctionMockerIFvhiEE4WithENS_7MatcherIhEENS4_IiEE
FNDA:15,_ZN7testing8internal8MockSpecIFhhhEEC2EPNS0_14FunctionMockerIS2_EERKSt5tupleIJNS_7MatcherIhEES9_EE
FNDA:0,_ZNK7testing8internal14FunctionMockerIFmhEE33FormatUnexpectedCallMessageLockedERKSt5tupleIJhEEPSoS8_
FNDA:0,_ZNK7testing8internal16TypedExpectationIFahEE15repeated_actionEv
FNDA:0,_ZN7testing8internal16TypedExpectationIFivEE27MaybeDescribeExtraMatcherToEPSo
FNDA:0,_ZNK7testing8internal14FunctionMockerIFviiEE16UntypedPrintArgsEPKvPSo
FNDA:330,_ZN7testing8internal18ActionResultHolderIvE20PerformDefaultActionIFviEEEPS2_PKNS0_14FunctionMockerIT_EEONS0_8FunctionIS7_E13ArgumentTupleERKSs
FNDA:0,_ZN7testing8internal10OnCallSpecIFviiEED2Ev
FNDA:170,_ZNK7testing8internal16TypedExpectationIFvhhEE7MatchesERKSt5tupleIJhhEE
FNDA:1150,_ZN7testing8internal14FunctionMockerIFivEE25ClearDefaultActionsLockedEv
FNDA:9070,_ZNK7testing8internal16TypedExpectationIFihEE16GetCurrentActionEPKNS0_14FunctionMockerIS2_EERKSt5tupleIJhEE
FNDA:0,_ZNK7testing8internal14FunctionMockerIFmhhmEE28PrintTriedExpectationsLockedERKSt5tupleIJhhmEEPSo
FNDA:140,_ZN7testing8internal16TypedExpectationIFmhEEC2EPNS0_14FunctionMockerIS2_EEPKciRKSsRKSt5tupleIJNS_7MatcherIhEEEE
FNDA:50,_ZN7testing8internal16TypedExpectationIFlvEED2Ev
FNDA:5,_ZN7testing8internal16TypedExpectationIFvhPFvvEiEE5TimesERKNS_11CardinalityE
FNDA:0,_ZN7testing8internal16TypedExpectationIFmvEE27MaybeDescribeExtraMatcherToEPSo
FNDA:140,_ZN7testing8internal8MockSpecIFmhEEC2EPNS0_14FunctionMockerIS2_EERKSt5tupleIJNS_7MatcherIhEEEE
FNDA:45,_ZN7testing8internal14FunctionMockerIFvvEE30UntypedFindMatchingExpectationEPKvPS5_PbPSoS8_
FNDA:5,_ZN7testing8internal14FunctionMockerIFvmEE17AddNewExpectationEPKciRKSsRKSt5tupleIJNS_7MatcherImEEEE
FNDA:200,_ZNK7testing8internal14FunctionMockerIFviEE20UntypedPerformActionEPKvPv
FNDA:0,_ZN7testing8internal10OnCallSpecIFvjEED2Ev
FNDA:20,_ZNK7testing8internal16TypedExpectationIFvhiEE21ShouldHandleArgumentsERKSt5tupleIJhiEE
FNDA:0,_ZNK7testing8internal10OnCallSpecIFjvEE7MatchesERKSt5tupleIJEE
FNDA:4190,_ZNK7testing8internal14FunctionMockerIFmhEE27UntypedPerformDefaultActionEPvRKSs
FNDA:0,_ZN7testing8internal16TypedExpectationIFlvEE9GetHandleEv
FNDA:1105,_ZN7testing8internal16TypedExpectationIFivEED2Ev
FNDA:0,_ZN7testing8internal10OnCallSpecIFvhiEED2Ev
FNDA:30,_ZN7testing8internal18ActionResultHolderIlE13PerformActionIFlvEEEPS2_RKNS_6ActionIT_EEONS0_8FunctionIS7_E13ArgumentTupleE
FNDA:35,_ZNK7testing8internal16TypedExpectationIFjvEE7MatchesERKSt5tupleIJEE
FNDA:4190,_ZNK7testing8internal14FunctionMockerIFmhEE14FindOnCallSpecERKSt5tupleIJhEE
FNDA:0,_ZNK7testing8internal23ReferenceOrValueWrapperIbE4PeekEv
FNDA:15145,_ZNK7testing8internal21UntypedOnCallSpecBase18AssertSpecPropertyEbRKSs
FNDA:50,_ZN7testing8internal16TypedExpectationIFlvEEC2EPNS0_14FunctionMockerIS2_EEPKciRKSsRKSt5tupleIJEE
FNDA:575,_ZN7testing8internal14FunctionMockerIFhhhEEC2Ev
FNDA:0,_ZNK7testing8internal14FunctionMockerIFviiEE28PrintTriedExpectationsLockedERKSt5tupleIJiiEEPSo
FNDA:7015,_ZN7testing8internal18ActionResultHolderIhED0Ev
FNDA:3735,_ZNK7testing8internal14FunctionMockerIFhvEE20PerformDefaultActionEOSt5tupleIJEERKSs
FNDA:85,_ZN7testing8internal16TypedExpectationIFbvEEC2EPNS0_14FunctionMockerIS2_EEPKciRKSsRKSt5tupleIJEE
FNDA:0,_ZNK7testing8internal14FunctionMockerIFihEE33FormatUnexpectedCallMessageLockedERKSt5tupleIJhEEPSoS8_
FNDA:6095,_ZN7testing8internal18ActionResultHolderIvED0Ev
FNDA:15540,_ZN7testing8internal18ActionResultHolderIiED0Ev
FNDA:170,_ZN7testing8internal8MockSpecIFbvEE26InternalDefaultActionSetAtEPKciS5_S5_
FNDA:20,_ZNK7testing8internal16TypedExpectationIFviiEE16GetCurrentActionEPKNS0_14FunctionMockerIS2_EERKSt5tupleIJiiEE
FNDA:25,_ZNK7testing8internal16TypedExpectationIFhhhEE16GetCurrentActionEPKNS0_14FunctionMockerIS2_EERKSt5tupleIJhhEE
FNDA:0,_ZN7testing8internal16TypedExpectationIFvhiiEE27MaybeDescribeExtraMatcherToEPSo
FNDA:45,_ZN7testing8internal14FunctionMockerIFvvEE17AddNewExpectationEPKciRKSsRKSt5tupleIJEE
FNDA:3265,_ZNK7testing8internal14FunctionMockerIFivEE29FindMatchingExpectationLockedERKSt5tupleIJEE
FNDA:0,_ZN7testing8internal16TypedExpectationIFihEE27MaybeDescribeExtraMatcherToEPSo
FNDA:40,_ZN7testing8internal18ActionResultHolderIlE20PerformDefaultActionIFlvEEEPS2_PKNS0_14FunctionMockerIT_EEONS0_8FunctionIS7_E13ArgumentTupleERKSs
FNDA:0,_ZNK7testing8internal14FunctionMockerIFihEE28PrintTriedExpectationsLockedERKSt5tupleIJhEEPSo
FNDA:20,_ZN7testing8internal16TypedExpectationIFahEEC2EPNS0_14FunctionMockerIS2_EEPKciRKSsRKSt5tupleIJNS_7MatcherIhEEEE
FNDA:5,_ZN7testing8internal8MockSpecIFvhiiEEclERKNS0_15WithoutMatchersEPv
FNDA:0,_ZNK7testing8internal14FunctionMockerIFvhPFvvEiEE28PrintTriedExpectationsLockedERKSt5tupleIJhS3_iEEPSo
FNDA:710,_ZN7testing8internal8MockSpecIFmvEEC2EPNS0_14FunctionMockerIS2_EERKSt5tupleIJEE
FNDA:6095,_ZN7testing8internal18ActionResultHolderIvED2Ev
FNDA:0,_ZNK7testing8internal10OnCallSpecIFihEE7MatchesERKSt5tupleIJhEE
FNDA:0,_ZN7testing8internal14FunctionMockerIFmvEED0Ev
FNDA:185,_ZN7testing8internal14FunctionMockerIFviiEE25ClearDefaultActionsLockedEv
FNDA:50,_ZN7testing8internal18ActionResultHolderIbE13PerformActionIFbvEEEPS2_RKNS_6ActionIT_EEONS0_8FunctionIS7_E13ArgumentTupleE
FNDA:0,_ZN7testing8internal18ActionResultHolderIvE13PerformActionIFvjEEEPS2_RKNS_6ActionIT_EEONS0_8FunctionIS7_E13ArgumentTupleE
FNDA:0,_ZN7testing8internal16TypedExpectationIFhvEE27MaybeDescribeExtraMatcherToEPSo
FNDA:30,_ZN7testing8internal16TypedExpectationIFmhhmEEC2EPNS0_14FunctionMockerIS2_EEPKciRKSsRKSt5tupleIJNS_7MatcherIhEESD_NSC_ImEEEE
FNDA:0,_ZNK7testing8internal14FunctionMockerIFvjEE28PrintTriedExpectationsLockedERKSt5tupleIJjEEPSo
FNDA:15,_ZN7testing8internal16TypedExpectationIFhvEED0Ev
FNDA:7015,_ZN7testing8internal18ActionResultHolderIhEC2ENS0_23ReferenceOrValueWrapperIhEE
FNDA:0,_ZN7testing8internal10OnCallSpecIFvhPFvvEiEED2Ev
FNDA:30,_ZNK7testing8internal14FunctionMockerIFjvEE14FindOnCallSpecERKSt5tupleIJEE
FNDA:0,_ZNK7testing8internal15ExpectationBase4fileEv
FNDA:35,_ZN7testing8internal18ActionResultHolderIjEC2ENS0_23ReferenceOrValueWrapperIjEE
FNDA:50,_ZNK7testing8internal16TypedExpectationIFvmEE15repeated_actionEv
FNDA:5,_ZN7testing8internal16TypedExpectationIFvhhEE5TimesEi
FNDA:5,_ZN7testing8internal8MockSpecIFvmEED2Ev
FNDA:140,_ZN7testing8internal16TypedExpectationIFmhEED2Ev
FNDA:10,_ZN7testing8internal16TypedExpectationIFmhhmEE5TimesERKNS_11CardinalityE
FNDA:485,_ZN7testing8internal8MockSpecIFviEE18InternalExpectedAtEPKciS5_S5_
FNDA:5,_ZN7testing8internal16TypedExpectationIFmvEE14WillRepeatedlyERKNS_6ActionIS2_EE
FNDA:3735,_ZN7testing8internal18ActionResultHolderIhE20PerformDefaultActionIFhvEEEPS2_PKNS0_14FunctionMockerIT_EEONS0_8FunctionIS7_E13ArgumentTupleERKSs
FNDA:0,_ZN7testing8internal14FunctionMockerIFviEED0Ev
FNDA:6095,_ZN7testing8internal18ActionResultHolderIvE6UnwrapEv
FNDA:10230,_ZNK7testing8internal10OnCallSpecIFmvEE7MatchesERKSt5tupleIJEE
FNDA:10,_ZN7testing8internal8MockSpecIFvhPFvvEiEED2Ev
FNDA:50,_ZNK7testing8internal16TypedExpectationIFvmEE21ShouldHandleArgumentsERKSt5tupleIJmEE
FNDA:0,_ZN7testing8internal14FunctionMockerIFvhiEED0Ev
FNDA:30,_ZN7testing8internal14FunctionMockerIFvjEE17AddNewExpectationEPKciRKSsRKSt5tupleIJNS_7MatcherIjEEEE
FNDA:575,_ZN7testing8internal14FunctionMockerIFmhEEC2Ev
FNDA:0,_ZN7testing8internal14FunctionMockerIFvhhEED0Ev
FNDA:15,_ZN7testing8internal14FunctionMockerIFhhhEE4WithENS_7MatcherIhEES5_
FNDA:30,_ZN7testing8internal8MockSpecIFmhhmEEclERKNS0_15WithoutMatchersEPv
FNDA:0,_ZNK7testing8internal14FunctionMockerIFfvEE28PrintTriedExpectationsLockedERKSt5tupleIJEEPSo
FNDA:15,_ZN7testing8internal16TypedExpectationIFvhEED0Ev
FNDA:9070,_ZN7testing8internal16TypedExpectationIFihEE21GetActionForArgumentsEPKNS0_14FunctionMockerIS2_EERKSt5tupleIJhEEPSoSC_
FNDA:10,_ZN7testing8internal16TypedExpectationIFmhhmEE5TimesEi
FNDA:10230,_ZN7testing8internal18ActionResultHolderImE20PerformDefaultActionIFmvEEEPS2_PKNS0_14FunctionMockerIT_EEONS0_8FunctionIS7_E13ArgumentTupleERKSs
FNDA:5,_ZNK7testing8internal14FunctionMockerIFvhiiEE29FindMatchingExpectationLockedERKSt5tupleIJhiiEE
FNDA:75,_ZN7testing8internal14FunctionMockerIFihEE17AddNewExpectationEPKciRKSsRKSt5tupleIJNS_7MatcherIhEEEE
FNDA:5,_ZN7testing8internal8MockSpecIFvmEE18InternalExpectedAtEPKciS5_S5_
FNDA:0,_ZNK7testing8internal14FunctionMockerIFlvEE23DescribeDefaultActionToERKSt5tupleIJEEPSo
FNDA:20965,_ZNK7testing8internal15ExpectationBase15IsOverSaturatedEv
FNDA:45,_ZNK7testing8internal16TypedExpectationIFvvEE7MatchesERKSt5tupleIJEE
FNDA:30,_ZN7testing8internal10OnCallSpecIFivEE13WillByDefaultERKNS_6ActionIS2_EE
FNDA:45,_ZNK7testing8internal16TypedExpectationIFvjEE21ShouldHandleArgumentsERKSt5tupleIJjEE
FNDA:0,_ZNK7testing8internal14FunctionMockerIFbvEE16UntypedPrintArgsEPKvPSo
FNDA:0,_ZNK7testing8internal14FunctionMockerIFvvEE16UntypedPrintArgsEPKvPSo
FNDA:15,_ZN7testing8internal8MockSpecIFjvEE18InternalExpectedAtEPKciS5_S5_
FNDA:5,_ZN7testing8internal14FunctionMockerIFvhPFvvEiEE30UntypedFindMatchingExpectationEPKvPS7_PbPSoSA_
FNDA:1930,_ZN7testing8internal14FunctionMockerIFbvEE6InvokeEv
FNDA:0,_ZNK7testing8internal14FunctionMockerIFmhEE23DescribeDefaultActionToERKSt5tupleIJhEEPSo
FNDA:5,_ZNK7testing8internal14FunctionMockerIFviEE32UntypedDescribeUninterestingCallEPKvPSo
FNDA:45,_ZN7testing8internal16TypedExpectationIFvvEED0Ev
FNDA:0,_ZN7testing8internal14FunctionMockerIFmhhmEED0Ev
FNDA:0,_ZNK7testing8internal10OnCallSpecIFvjEE9GetActionEv
FNDA:125,_ZNK7testing8internal14FunctionMockerIFvhhEE29FindMatchingExpectationLockedERKSt5tupleIJhhEE
FNDA:575,_ZN7testing8internal14FunctionMockerIFvhiEE25ClearDefaultActionsLockedEv
FNDA:5,_ZN7testing8internal16TypedExpectationIFvhiiEE21GetActionForArgumentsEPKNS0_14FunctionMockerIS2_EERKSt5tupleIJhiiEEPSoSC_
FNDA:5,_ZN7testing8internal16TypedExpectationIFvhhEE5TimesERKNS_11CardinalityE
FNDA:20,_ZNK7testing8internal16TypedExpectationIFvhiEE15repeated_actionEv
FNDA:50,_ZN7testing8internal16TypedExpectationIFvmEE21GetActionForArgumentsEPKNS0_14FunctionMockerIS2_EERKSt5tupleIJmEEPSoSC_
FNDA:0,_ZNK7testing8internal16TypedExpectationIFlvEE20ExplainMatchResultToERKSt5tupleIJEEPSo
FNDA:0,_ZNK7testing8internal14FunctionMockerIFvhiiEE16UntypedPrintArgsEPKvPSo
FNDA:15,_ZN7testing8internal8MockSpecIFhhhEE18InternalExpectedAtEPKciS5_S5_
FNDA:5,_ZNK7testing8internal16TypedExpectationIFvhiiEE15repeated_actionEv
FNDA:5,_ZN7testing8internal16TypedExpectationIFvhiiEEC2EPNS0_14FunctionMockerIS2_EEPKciRKSsRKSt5tupleIJNS_7MatcherIhEENSC_IiEESE_EE
FNDA:0,_ZN7testing8internal16TypedExpectationIFvhPFvvEiEE9GetHandleEv
FNDA:575,_ZN7testing8internal14FunctionMockerIFvhPFvvEiEE25ClearDefaultActionsLockedEv
FNDA:15,_ZN7testing8internal16TypedExpectationIFhvEED2Ev
FNDA:420,_ZN7testing8internal14FunctionMockerIFfvEE6InvokeEv
FNDA:15,_ZN7testing8internal16TypedExpectationIFjvEED0Ev
FNDA:15540,_ZN7testing8internal18ActionResultHolderIiED2Ev
FNDA:0,_ZNK7testing8internal14FunctionMockerIFvhEE33FormatUnexpectedCallMessageLockedERKSt5tupleIJhEEPSoS8_
FNDA:800,_ZN7testing8internal18ActionResultHolderIvE20PerformDefaultActionIFvmEEEPS2_PKNS0_14FunctionMockerIT_EEONS0_8FunctionIS7_E13ArgumentTupleERKSs
FNDA:0,_ZNK7testing8internal14FunctionMockerIFhhhEE32UntypedDescribeUninterestingCallEPKvPSo
FNDA:0,_ZNK7testing8internal16TypedExpectationIFivEE20ExplainMatchResultToERKSt5tupleIJEEPSo
FNDA:575,_ZN7testing8internal14FunctionMockerIFmhhmEED2Ev
FNDA:1750,_ZN7testing11ExpectationaSERKS0_
FNDA:10,_ZN7testing8internal16TypedExpectationIFivEE10InSequenceERKNS_8SequenceE
FNDA:575,_ZN7testing8internal14FunctionMockerIFvhEED2Ev
FNDA:15,_ZN7testing8internal8MockSpecIFvhEEC2EPNS0_14FunctionMockerIS2_EERKSt5tupleIJNS_7MatcherIhEEEE
FNDA:45,_ZN7testing8internal8MockSpecIFvvEEclERKNS0_15WithoutMatchersEPv
FNDA:14270,_ZN7testing8internal15ExpectationBase18IncrementCallCountEv
FNDA:40,_ZNK7testing8internal14FunctionMockerIFlvEE14FindOnCallSpecERKSt5tupleIJEE
FNDA:0,_ZNK7testing8internal21UntypedOnCallSpecBase4lineEv
FNDA:0,_ZNK7testing8internal10OnCallSpecIFhhhEE9GetActionEv
FNDA:125,_ZNK7testing8internal16TypedExpectationIFvhhEE15repeated_actionEv
FNDA:0,_ZN7testing8internal16TypedExpectationIFhhhEE9GetHandleEv
FNDA:50,_ZN7testing8internal16TypedExpectationIFlvEED0Ev
FNDA:420,_ZN7testing8internal18ActionResultHolderIfED0Ev
FNDA:0,_ZNK7testing8internal16TypedExpectationIFvhPFvvEiEE20ExplainMatchResultToERKSt5tupleIJhS3_iEEPSo
FNDA:5,_ZN7testing8internal16TypedExpectationIFvvEE5TimesEi
FNDA:20,_ZN7testing8internal18ActionResultHolderIfE13PerformActionIFfvEEEPS2_RKNS_6ActionIT_EEONS0_8FunctionIS7_E13ArgumentTupleE
FNDA:595,_ZN7testing8internal14FunctionMockerIFvvEEC2Ev
FNDA:800,_ZN7testing8internal14FunctionMockerIFvmEE6InvokeEm
FNDA:15,_ZN7testing8internal16TypedExpectationIFvhEE5TimesERKNS_11CardinalityE
FNDA:0,_ZN7testing8internal18ActionResultHolderImE13PerformActionIFmhEEEPS2_RKNS_6ActionIT_EEONS0_8FunctionIS7_E13ArgumentTupleE
FNDA:40,_ZN7testing8internal8MockSpecIFfvEE26InternalDefaultActionSetAtEPKciS5_S5_
FNDA:5,_ZN7testing8internal16TypedExpectationIFjvEE8WillOnceERKNS_6ActionIS2_EE
FNDA:35,_ZN7testing8internal8MockSpecIFviiEE18InternalExpectedAtEPKciS5_S5_
FNDA:6095,_ZN7testing8internal18ActionResultHolderIvEC2Ev
FNDA:10230,_ZNK7testing8internal10OnCallSpecIFmvEE9GetActionEv
FNDA:160,_ZNK7testing8internal14FunctionMockerIFvjEE27UntypedPerformDefaultActionEPvRKSs
FNDA:0,_ZN7testing8internal16TypedExpectationIFmhEE27MaybeDescribeExtraMatcherToEPSo
FNDA:0,_ZNK7testing8internal14FunctionMockerIFviiEE20UntypedPerformActionEPKvPv
FNDA:170,_ZN7testing8internal14FunctionMockerIFmhEE30UntypedFindMatchingExpectationEPKvPS5_PbPSoS8_
FNDA:5,_ZNK7testing8internal14FunctionMockerIFviEE23DescribeDefaultActionToERKSt5tupleIJiEEPSo
FNDA:0,_ZNK7testing8internal10OnCallSpecIFvhiiEE7MatchesERKSt5tupleIJhiiEE
FNDA:575,_ZN7testing8internal14FunctionMockerIFvhiEED2Ev
FNDA:0,_ZN7testing8internal14FunctionMockerIFvhPFvvEiEED0Ev
FNDA:5,_ZN7testing8internal16TypedExpectationIFvhPFvvEiEE5TimesEi
FNDA:800,_ZNK7testing8internal14FunctionMockerIFvmEE20PerformDefaultActionEOSt5tupleIJmEERKSs
FNDA:5,_ZNK7testing8internal16TypedExpectationIFvhiiEE21ShouldHandleArgumentsERKSt5tupleIJhiiEE
FNDA:280,_ZNK7testing8internal16TypedExpectationIFviEE15repeated_actionEv
FNDA:0,_ZNK7testing8internal14FunctionMockerIFmvEE28PrintTriedExpectationsLockedERKSt5tupleIJEEPSo
FNDA:15,_ZN7testing8internal16TypedExpectationIFjvEEC2EPNS0_14FunctionMockerIS2_EEPKciRKSsRKSt5tupleIJEE
FNDA:0,_ZN7testing8internal14FunctionMockerIFvmEED0Ev
FNDA:0,_ZN7testing8internal18ActionResultHolderIhE13PerformActionIFhhhEEEPS2_RKNS_6ActionIT_EEONS0_8FunctionIS7_E13ArgumentTupleE
FNDA:20,_ZNK7testing8internal14FunctionMockerIFahEE29FindMatchingExpectationLockedERKSt5tupleIJhEE
FNDA:0,_ZN7testing8internal14FunctionMockerIFvhEED0Ev
FNDA:105,_ZN7testing8internal8MockSpecIFahEEclERKNS0_15WithoutMatchersEPv
FNDA:0,_ZNK7testing8internal23ReferenceOrValueWrapperIiE4PeekEv
FNDA:35,_ZN7testing8internal14FunctionMockerIFjvEE30UntypedFindMatchingExpectationEPKvPS5_PbPSoS8_
FNDA:5,_ZN7testing8internal14FunctionMockerIFvhiiEE17AddNewExpectationEPKciRKSsRKSt5tupleIJNS_7MatcherIhEENS9_IiEESB_EE
FNDA:0,_ZNK7testing8internal16TypedExpectationIFjvEE20ExplainMatchResultToERKSt5tupleIJEEPSo
FNDA:0,_ZN7testing8internal10OnCallSpecIFvhiiEED2Ev
FNDA:15,_ZN7testing8internal16TypedExpectationIFviiEE5TimesERKNS_11CardinalityE
FNDA:140,_ZN7testing8internal14FunctionMockerIFmhEE17AddNewExpectationEPKciRKSsRKSt5tupleIJNS_7MatcherIhEEEE
FNDA:3735,_ZN7testing8internal14FunctionMockerIFhvEE6InvokeEv
FNDA:25,_ZNK7testing8internal16TypedExpectationIFhhhEE7MatchesERKSt5tupleIJhhEE
FNDA:0,_ZNK7testing8internal14FunctionMockerIFfvEE33FormatUnexpectedCallMessageLockedERKSt5tupleIJEEPSoS8_
FNDA:485,_ZNK7testing8internal16TypedExpectationIFviEE7MatchesERKSt5tupleIJiEE
FNDA:0,_ZNK7testing8internal14FunctionMockerIFvjEE23DescribeDefaultActionToERKSt5tupleIJjEEPSo
FNDA:0,_ZNK7testing8internal14FunctionMockerIFmhhmEE33FormatUnexpectedCallMessageLockedERKSt5tupleIJhhmEEPSoS8_
FNDA:70,_ZN7testing8internal14FunctionMockerIFlvEE6InvokeEv
FNDA:15,_ZN7testing8internal16TypedExpectationIFviiEE5TimesEi
FNDA:1135,_ZN7testing8internal8MockSpecIFivEEclERKNS0_15WithoutMatchersEPv
FNDA:170,_ZN7testing8internal16TypedExpectationIFmhEE21GetActionForArgumentsEPKNS0_14FunctionMockerIS2_EERKSt5tupleIJhEEPSoSC_
FNDA:20,_ZNK7testing8internal14FunctionMockerIFviiEE27UntypedPerformDefaultActionEPvRKSs
FNDA:3280,_ZN7testing8internal18ActionResultHolderIhE20PerformDefaultActionIFhhhEEEPS2_PKNS0_14FunctionMockerIT_EEONS0_8FunctionIS7_E13ArgumentTupleERKSs
FNDA:20,_ZNK7testing8internal16TypedExpectationIFfvEE21ShouldHandleArgumentsERKSt5tupleIJEE
FNDA:35,_ZN7testing8internal14FunctionMockerIFvhiEE6InvokeEhi
FNDA:0,_ZNK7testing8internal10OnCallSpecIFvmEE9GetActionEv
FNDA:45,_ZN7testing8internal16TypedExpectationIFmvEE5TimesERKNS_11CardinalityE
FNDA:0,_ZN7testing8internal16TypedExpectationIFvhiEE27MaybeDescribeExtraMatcherToEPSo
FNDA:0,_ZN7testing8internal10OnCallSpecIFlvEED2Ev
FNDA:0,_ZNK7testing8internal16TypedExpectationIFvhiEE20ExplainMatchResultToERKSt5tupleIJhiEEPSo
FNDA:55,_ZN7testing8internal14FunctionMockerIFvhEE30UntypedFindMatchingExpectationEPKvPS5_PbPSoS8_
FNDA:420,_ZN7testing8internal18ActionResultHolderIfED2Ev
FNDA:0,_ZN7testing8internal18ActionResultHolderIvE13PerformActionIFvhiEEEPS2_RKNS_6ActionIT_EEONS0_8FunctionIS7_E13ArgumentTupleE
FNDA:1930,_ZN7testing8internal18ActionResultHolderIbE6UnwrapEv
FNDA:0,_ZNK7testing8internal14FunctionMockerIFvhPFvvEiEE33FormatUnexpectedCallMessageLockedERKSt5tupleIJhS3_iEEPSoSA_
FNDA:5,_ZN7testing8internal16TypedExpectationIFbvEE14WillRepeatedlyERKNS_6ActionIS2_EE
FNDA:420,_ZN7testing8internal23ReferenceOrValueWrapperIfE6UnwrapEv
FNDA:70,_ZNK7testing8internal16TypedExpectationIFmhhmEE16GetCurrentActionEPKNS0_14FunctionMockerIS2_EERKSt5tupleIJhhmEE
FNDA:0,_ZN7testing8internal10OnCallSpecIFviEED2Ev
FNDA:0,_ZNK7testing8internal14FunctionMockerIFvhEE23DescribeDefaultActionToERKSt5tupleIJhEEPSo
FNDA:0,_ZNK7testing8internal16TypedExpectationIFhvEE20ExplainMatchResultToERKSt5tupleIJEEPSo
FNDA:170,_ZN7testing8internal10OnCallSpecIFbvEEC2EPKciRKSt5tupleIJEE
FNDA:575,_ZN7testing8internal14FunctionMockerIFmhhmEEC2Ev
FNDA:30,_ZN7testing8internal16TypedExpectationIFvjEEC2EPNS0_14FunctionMockerIS2_EEPKciRKSsRKSt5tupleIJNS_7MatcherIjEEEE
FNDA:20,_ZN7testing8internal16TypedExpectationIFmhhmEE8WillOnceERKNS_6ActionIS2_EE
FNDA:9085,_ZN7testing8internal14FunctionMockerIFihEE6InvokeEh
FNDA:30,_ZN7testing8internal8MockSpecIFvjEED2Ev
FNDA:605,_ZNK7testing8internal16TypedExpectationIFmvEE7MatchesERKSt5tupleIJEE
FNDA:185,_ZN7testing8internal14FunctionMockerIFviiEED2Ev
FNDA:30,_ZNK7testing8internal16TypedExpectationIFvjEE16GetCurrentActionEPKNS0_14FunctionMockerIS2_EERKSt5tupleIJjEE
FNDA:70,_ZN7testing8internal18ActionResultHolderIlEC2ENS0_23ReferenceOrValueWrapperIlEE
FNDA:15,_ZN7testing8internal8MockSpecIFhvEEC2EPNS0_14FunctionMockerIS2_EERKSt5tupleIJEE
FNDA:0,_ZNK7testing8internal14FunctionMockerIFviiEE33FormatUnexpectedCallMessageLockedERKSt5tupleIJiiEEPSoS8_
FNDA:3155,_ZNK7testing8internal14FunctionMockerIFivEE20UntypedPerformActionEPKvPv
FNDA:0,_ZNK7testing8internal14FunctionMockerIFvhiEE16UntypedPrintArgsEPKvPSo
FNDA:0,_ZNK7testing8internal10OnCallSpecIFvvEE7MatchesERKSt5tupleIJEE
FNDA:10,_ZN7testing8internal8MockSpecIFvhPFvvEiEE18InternalExpectedAtEPKciS7_S7_
FNDA:0,_ZNK7testing8internal14FunctionMockerIFhvEE16UntypedPrintArgsEPKvPSo
FNDA:70,_ZN7testing8internal18ActionResultHolderIlE6UnwrapEv
FNDA:46315,_ZN7testing8internal29UntypedActionResultHolderBaseC2Ev
FNDA:485,_ZN7testing8internal8MockSpecIFviEEC2EPNS0_14FunctionMockerIS2_EERKSt5tupleIJNS_7MatcherIiEEEE
FNDA:0,_ZNK7testing8internal21UntypedOnCallSpecBase4fileEv
FNDA:140,_ZN7testing8internal14FunctionMockerIFmhEE4WithENS_7MatcherIhEE
FNDA:45,_ZN7testing8internal16TypedExpectationIFmvEE5TimesEi
FNDA:0,_ZNK7testing8internal14FunctionMockerIFivEE28PrintTriedExpectationsLockedERKSt5tupleIJEEPSo
FNDA:255,_ZN7testing8internal8MockSpecIFbvEEC2EPNS0_14FunctionMockerIS2_EERKSt5tupleIJEE
FNDA:40,_ZN7testing8internal10OnCallSpecIFfvEED2Ev
FNDA:5,_ZNK7testing8internal14FunctionMockerIFvhPFvvEiEE29FindMatchingExpectationLockedERKSt5tupleIJhS3_iEE
FNDA:0,_ZNK7testing8internal14FunctionMockerIFhhhEE28PrintTriedExpectationsLockedERKSt5tupleIJhhEEPSo
FNDA:0,_ZN7testing8internal14FunctionMockerIFahEED0Ev
FNDA:65,_ZN7testing8internal16TypedExpectationIFivEE5TimesEi
FNDA:0,_ZNK7testing8internal14FunctionMockerIFahEE23DescribeDefaultActionToERKSt5tupleIJhEEPSo
FNDA:15,_ZNK7testing8internal14FunctionMockerIFihEE14FindOnCallSpecERKSt5tupleIJhEE
FNDA:0,_ZNK7testing8internal10OnCallSpecIFvhiEE7MatchesERKSt5tupleIJhiEE
FNDA:20,_ZN7testing8internal8MockSpecIFahEE18InternalExpectedAtEPKciS5_S5_
FNDA:5,_ZNK7testing8internal16TypedExpectationIFvhiiEE7MatchesERKSt5tupleIJhiiEE
FNDA:125,_ZN7testing8internal14FunctionMockerIFvhhEE30UntypedFindMatchingExpectationEPKvPS5_PbPSoS8_
FNDA:20,_ZN7testing8internal14FunctionMockerIFviiEE6InvokeEii
FNDA:605,_ZN7testing8internal16TypedExpectationIFmvEE21GetActionForArgumentsEPKNS0_14FunctionMockerIS2_EERKSt5tupleIJEEPSoSC_
FNDA:35,_ZNK7testing8internal16TypedExpectationIFjvEE21ShouldHandleArgumentsERKSt5tupleIJEE
FNDA:710,_ZN7testing8internal14FunctionMockerIFmvEE4WithEv
FNDA:4190,_ZN7testing8internal18ActionResultHolderImE20PerformDefaultActionIFmhEEEPS2_PKNS0_14FunctionMockerIT_EEONS0_8FunctionIS7_E13ArgumentTupleERKSs
FNDA:0,_ZNK7testing8internal10OnCallSpecIFlvEE9GetActionEv
FNDA:30,_ZN7testing8internal14FunctionMockerIFjvEE25ClearDefaultActionsLockedEv
FNDA:395,_ZNK7testing8internal16TypedExpectationIFmhEE7MatchesERKSt5tupleIJhEE
FNDA:0,_ZNK7testing8internal14FunctionMockerIFjvEE33FormatUnexpectedCallMessageLockedERKSt5tupleIJEEPSoS8_
FNDA:25,_ZNK7testing8internal14FunctionMockerIFhhhEE29FindMatchingExpectationLockedERKSt5tupleIJhhEE
FNDA:0,_ZNK7testing8internal14FunctionMockerIFvvEE28PrintTriedExpectationsLockedERKSt5tupleIJEEPSo
FNDA:0,_ZNK7testing8internal14FunctionMockerIFvhhEE32UntypedDescribeUninterestingCallEPKvPSo
FNDA:15,_ZN7testing8internal8MockSpecIFhvEE18InternalExpectedAtEPKciS5_S5_
FNDA:3735,_ZNK7testing8internal14FunctionMockerIFvhEE27UntypedPerformDefaultActionEPvRKSs
FNDA:310,_ZN7testing8SequenceD2Ev
FNDA:50,_ZNK7testing8internal16TypedExpectationIFbvEE21ShouldHandleArgumentsERKSt5tupleIJEE
FNDA:0,_ZN7testing8internal18ActionResultHolderIvE13PerformActionIFvvEEEPS2_RKNS_6ActionIT_EEONS0_8FunctionIS7_E13ArgumentTupleE
FNDA:65,_ZN7testing8internal14FunctionMockerIFfvEE4WithEv
FNDA:0,_ZN7testing8internal10OnCallSpecIFmhEED2Ev
FNDA:5,_ZNK7testing8internal16TypedExpectationIFvhPFvvEiEE16GetCurrentActionEPKNS0_14FunctionMockerIS4_EERKSt5tupleIJhS3_iEE
FNDA:0,_ZNK7testing8internal10OnCallSpecIFviiEE7MatchesERKSt5tupleIJiiEE
FNDA:10,_ZN7testing8internal16TypedExpectationIFvhPFvvEiEED0Ev
FNDA:10,_ZN7testing8internal16TypedExpectationIFvhPFvvEiEEC2EPNS0_14FunctionMockerIS4_EEPKciRKSsRKSt5tupleIJNS_7MatcherIhEENSE_IS3_EENSE_IiEEEE
FNDA:85,_ZN7testing8internal14FunctionMockerIFahEE16AddNewOnCallSpecEPKciRKSt5tupleIJNS_7MatcherIhEEEE
FNDA:70,_ZNK7testing8internal14FunctionMockerIFmhhmEE29FindMatchingExpectationLockedERKSt5tupleIJhhmEE
FNDA:35,_ZN7testing8internal16TypedExpectationIFjvEE21GetActionForArgumentsEPKNS0_14FunctionMockerIS2_EERKSt5tupleIJEEPSoSC_
FNDA:0,_ZNK7testing8internal10OnCallSpecIFvhiEE9GetActionEv
FNDA:575,_ZN7testing8internal14FunctionMockerIFhvEE25ClearDefaultActionsLockedEv
FNDA:0,_ZNK7testing8internal10OnCallSpecIFviiEE9GetActionEv
FNDA:0,_ZNK7testing8internal10OnCallSpecIFmhhmEE7MatchesERKSt5tupleIJhhmEE
FNDA:5,_ZN7testing8internal16TypedExpectationIFvvEE5TimesERKNS_11CardinalityE
FNDA:575,_ZN7testing8internal14FunctionMockerIFmhEE25ClearDefaultActionsLockedEv
FNDA:0,_ZNK7testing8internal14FunctionMockerIFfvEE32UntypedDescribeUninterestingCallEPKvPSo
FNDA:0,_ZN7testing8internal16TypedExpectationIFhvEE9GetHandleEv
FNDA:40,_ZN7testing8internal14FunctionMockerIFfvEE16AddNewOnCallSpecEPKciRKSt5tupleIJEE
FNDA:130,_ZN7testing8internal14FunctionMockerIFvvEE6InvokeEv
FNDA:130,_ZN7testing8internal16TypedExpectationIFvhhEED0Ev
FNDA:1150,_ZN7testing8internal14FunctionMockerIFvhhEED2Ev
FNDA:0,_ZN7testing8internal10OnCallSpecIFjvEED2Ev
FNDA:25,_ZN7testing8internal16TypedExpectationIFmhEE5TimesERKNS_11CardinalityE
FNDA:620,_ZN7testing8internal14FunctionMockerIFviEEC2Ev
FNDA:200,_ZN7testing8internal18ActionResultHolderIvE13PerformActionIFviEEEPS2_RKNS_6ActionIT_EEONS0_8FunctionIS7_E13ArgumentTupleE
FNDA:0,_ZNK7testing8internal14FunctionMockerIFvhhEE28PrintTriedExpectationsLockedERKSt5tupleIJhhEEPSo
FNDA:35,_ZNK7testing8internal16TypedExpectationIFjvEE16GetCurrentActionEPKNS0_14FunctionMockerIS2_EERKSt5tupleIJEE
FNDA:5,_ZN7testing8internal16TypedExpectationIFvmEED2Ev
FNDA:0,_ZNK7testing8internal14FunctionMockerIFvhhEE23DescribeDefaultActionToERKSt5tupleIJhhEEPSo
FNDA:50,_ZNK7testing8internal14FunctionMockerIFbvEE20UntypedPerformActionEPKvPv
FNDA:15,_ZN7testing8internal14FunctionMockerIFjvEE4WithEv
FNDA:0,_ZNK7testing8internal14FunctionMockerIFmvEE32UntypedDescribeUninterestingCallEPKvPSo
FNDA:20,_ZNK7testing8internal14FunctionMockerIFfvEE29FindMatchingExpectationLockedERKSt5tupleIJEE
FNDA:0,_ZNK7testing8internal14FunctionMockerIFivEE23DescribeDefaultActionToERKSt5tupleIJEEPSo
FNDA:55,_ZNK7testing8internal14FunctionMockerIFvhEE29FindMatchingExpectationLockedERKSt5tupleIJhEE
FNDA:85,_ZNK7testing8internal14FunctionMockerIFahEE14FindOnCallSpecERKSt5tupleIJhEE
FNDA:125,_ZN7testing8internal16TypedExpectationIFvhhEE21GetActionForArgumentsEPKNS0_14FunctionMockerIS2_EERKSt5tupleIJhhEEPSoSC_
FNDA:50,_ZN7testing8internal14FunctionMockerIFlvEE4WithEv
FNDA:0,_ZNK7testing8internal10OnCallSpecIFvhiiEE9GetActionEv
FNDA:20,_ZN7testing8internal14FunctionMockerIFahEE17AddNewExpectationEPKciRKSsRKSt5tupleIJNS_7MatcherIhEEEE
FNDA:35,_ZN7testing8internal23ReferenceOrValueWrapperIjEC2Ej
FNDA:50,_ZN7testing8internal8MockSpecIFlvEEclERKNS0_15WithoutMatchersEPv
FNDA:575,_ZN7testing8internal14FunctionMockerIFahEED2Ev
FNDA:20,_ZN7testing8internal14FunctionMockerIFvhiEE30UntypedFindMatchingExpectationEPKvPS5_PbPSoS8_
FNDA:15105,_ZN7testing8internal18ActionResultHolderImED2Ev
FNDA:85,_ZNK7testing8internal14FunctionMockerIFahEE27UntypedPerformDefaultActionEPvRKSs
FNDA:5,_ZNK7testing8internal16TypedExpectationIFvhPFvvEiEE21ShouldHandleArgumentsERKSt5tupleIJhS3_iEE
FNDA:9070,_ZN7testing8internal14FunctionMockerIFihEE30UntypedFindMatchingExpectationEPKvPS5_PbPSoS8_
FNDA:15,_ZN7testing8internal16TypedExpectationIFvhEED2Ev
FNDA:0,_ZNK7testing8internal14FunctionMockerIFhvEE23DescribeDefaultActionToERKSt5tupleIJEEPSo
FNDA:55,_ZNK7testing8internal16TypedExpectationIFvhEE15repeated_actionEv
FNDA:170,_ZN7testing8internal10OnCallSpecIFbvEE13WillByDefaultERKNS_6ActionIS2_EE
FNDA:20,_ZN7testing8internal16TypedExpectationIFmhEE5TimesEi
FNDA:26145,_ZNK7testing8internal15ExpectationBase11IsSatisfiedEv
FNDA:620,_ZN7testing8internal14FunctionMockerIFviEE25ClearDefaultActionsLockedEv
FNDA:0,_ZN7testing8internal16TypedExpectationIFvhhEE27MaybeDescribeExtraMatcherToEPSo
FNDA:3060,_ZNK7testing8internal10OnCallSpecIFivEE7MatchesERKSt5tupleIJEE
FNDA:60,_ZNK7testing8internal14FunctionMockerIFmhhmEE20PerformDefaultActionEOSt5tupleIJhhmEERKSs
FNDA:30,_ZN7testing8internal8MockSpecIFvjEE18InternalExpectedAtEPKciS5_S5_
FNDA:30,_ZN7testing8internal10OnCallSpecIFivEED2Ev
FNDA:0,_ZN7testing8internal16TypedExpectationIFvjEE27MaybeDescribeExtraMatcherToEPSo
FNDA:260,_ZN7testing8internal14FunctionMockerIFlvEED2Ev
FNDA:5,_ZN7testing8internal18ActionResultHolderIjE13PerformActionIFjvEEEPS2_RKNS_6ActionIT_EEONS0_8FunctionIS7_E13ArgumentTupleE
FNDA:575,_ZN7testing8internal14FunctionMockerIFahEE25ClearDefaultActionsLockedEv
FNDA:480,_ZN7testing8internal14FunctionMockerIFviEE30UntypedFindMatchingExpectationEPKvPS5_PbPSoS8_
FNDA:0,_ZNK7testing8internal10OnCallSpecIFvhPFvvEiEE9GetActionEv
FNDA:0,_ZNK7testing8internal10OnCallSpecIFvmEE7MatchesERKSt5tupleIJmEE
FNDA:605,_ZN7testing8internal18ActionResultHolderImE13PerformActionIFmvEEEPS2_RKNS_6ActionIT_EEONS0_8FunctionIS7_E13ArgumentTupleE
FNDA:0,_ZNK7testing8internal16TypedExpectationIFihEE20ExplainMatchResultToERKSt5tupleIJhEEPSo
FNDA:1180,_ZNK7testing8internal16TypedExpectationIFivEE15repeated_actionEv
FNDA:1930,_ZN7testing8internal23ReferenceOrValueWrapperIbEC2Eb
FNDA:0,_ZNK7testing8internal14FunctionMockerIFivEE16UntypedPrintArgsEPKvPSo
FNDA:0,_ZN7testing8internal10OnCallSpecIFvvEED2Ev
FNDA:0,_ZNK7testing8internal14FunctionMockerIFvjEE32UntypedDescribeUninterestingCallEPKvPSo
FNDA:595,_ZN7testing8internal16TypedExpectationIFmvEE8WillOnceERKNS_6ActionIS2_EE
FNDA:50,_ZN7testing8internal8MockSpecIFlvEEC2EPNS0_14FunctionMockerIS2_EERKSt5tupleIJEE
FNDA:0,_ZN7testing8internal16TypedExpectationIFviiEE27MaybeDescribeExtraMatcherToEPSo
FNDA:85,_ZN7testing8internal16TypedExpectationIFbvEED0Ev
FNDA:0,_ZNK7testing8internal14FunctionMockerIFvvEE32UntypedDescribeUninterestingCallEPKvPSo
FNDA:0,_ZN7testing8internal14FunctionMockerIFviiEED0Ev
FNDA:85,_ZN7testing8internal8MockSpecIFbvEE18InternalExpectedAtEPKciS5_S5_
FNDA:15540,_ZN7testing8internal18ActionResultHolderIiEC2ENS0_23ReferenceOrValueWrapperIiEE
FNDA:0,_ZNK7testing8internal23ReferenceOrValueWrapperIaE4PeekEv
FNDA:215,_ZNK7testing8internal16TypedExpectationIFvhhEE21ShouldHandleArgumentsERKSt5tupleIJhhEE
FNDA:85,_ZN7testing8internal10OnCallSpecIFahEED2Ev
FNDA:0,_ZNK7testing8internal14FunctionMockerIFviEE16UntypedPrintArgsEPKvPSo
FNDA:20,_ZN7testing8internal18ActionResultHolderImE13PerformActionIFmhhmEEEPS2_RKNS_6ActionIT_EEONS0_8FunctionIS7_E13ArgumentTupleE
FNDA:15,_ZN7testing8internal16TypedExpectationIFmhEE10InSequenceERKNS_8SequenceE
FNDA:10,_ZN7testing8internal16TypedExpectationIFivEE9GetHandleEv
FNDA:640,_ZN7testing8internal14FunctionMockerIFmvEE17AddNewExpectationEPKciRKSsRKSt5tupleIJEE
FNDA:50,_ZN7testing8internal8MockSpecIFlvEE18InternalExpectedAtEPKciS5_S5_
FNDA:0,_ZNK7testing8internal14FunctionMockerIFvhhEE33FormatUnexpectedCallMessageLockedERKSt5tupleIJhhEEPSoS8_
FNDA:0,_ZNK7testing8internal10OnCallSpecIFmhhmEE9GetActionEv
FNDA:15,_ZN7testing8internal16TypedExpectationIFhvEEC2EPNS0_14FunctionMockerIS2_EEPKciRKSsRKSt5tupleIJEE
FNDA:0,_ZNK7testing8internal16TypedExpectationIFahEE20ExplainMatchResultToERKSt5tupleIJhEEPSo
FNDA:0,_ZN7testing8internal18ActionResultHolderIvE13PerformActionIFvhiiEEEPS2_RKNS_6ActionIT_EEONS0_8FunctionIS7_E13ArgumentTupleE
FNDA:75,_ZN7testing8internal16TypedExpectationIFihEED0Ev
FNDA:20,_ZN7testing8internal16TypedExpectationIFivEE14WillRepeatedlyERKNS_6ActionIS2_EE
FNDA:30,_ZN7testing8internal14FunctionMockerIFvhiiEE6InvokeEhii
FNDA:20,_ZN7testing8internal16TypedExpectationIFvhiEE21GetActionForArgumentsEPKNS0_14FunctionMockerIS2_EERKSt5tupleIJhiEEPSoSC_
FNDA:0,_ZN7testing8internal14FunctionMockerIFvvEED0Ev
FNDA:30,_ZN7testing8internal8MockSpecIFmhhmEE18InternalExpectedAtEPKciS5_S5_
FNDA:15,_ZN7testing8internal16TypedExpectationIFhhhEEC2EPNS0_14FunctionMockerIS2_EEPKciRKSsRKSt5tupleIJNS_7MatcherIhEESD_EE
FNDA:46315,_ZN7testing8internal29UntypedActionResultHolderBaseD2Ev
FNDA:520,_ZN7testing8internal14FunctionMockerIFbvEEC2Ev
FNDA:640,_ZN7testing8internal16TypedExpectationIFmvEED0Ev
FNDA:5,_ZN7testing8internal8MockSpecIFvmEEC2EPNS0_14FunctionMockerIS2_EERKSt5tupleIJNS_7MatcherImEEEE
FNDA:0,_ZNK7testing8internal14FunctionMockerIFvhiiEE20UntypedPerformActionEPKvPv
FNDA:0,_ZNK7testing8internal14FunctionMockerIFahEE33FormatUnexpectedCallMessageLockedERKSt5tupleIJhEEPSoS8_
FNDA:1150,_ZN7testing8internal14FunctionMockerIFivEEC2Ev
FNDA:29385,_ZNK7testing8internal15ExpectationBase10is_retiredEv
FNDA:20,_ZNK7testing8internal14FunctionMockerIFviiEE20PerformDefaultActionEOSt5tupleIJiiEERKSs
FNDA:85,_ZN7testing8internal8MockSpecIFahEE26InternalDefaultActionSetAtEPKciS5_S5_
FNDA:3300,_ZNK7testing8internal14FunctionMockerIFivEE14FindOnCallSpecERKSt5tupleIJEE
FNDA:30,_ZN7testing8internal14FunctionMockerIFmhhmEE17AddNewExpectationEPKciRKSsRKSt5tupleIJNS_7MatcherIhEESA_NS9_ImEEEE
FNDA:70,_ZN7testing8internal10OnCallSpecIFmvEEC2EPKciRKSt5tupleIJEE
FNDA:45,_ZNK7testing8internal16TypedExpectationIFvvEE16GetCurrentActionEPKNS0_14FunctionMockerIS2_EERKSt5tupleIJEE
FNDA:130,_ZN7testing8internal16TypedExpectationIFvhhEEC2EPNS0_14FunctionMockerIS2_EEPKciRKSsRKSt5tupleIJNS_7MatcherIhEESD_EE
FNDA:260,_ZN7testing8internal14FunctionMockerIFfvEE25ClearDefaultActionsLockedEv
FNDA:0,_ZNK7testing8internal10OnCallSpecIFvhEE9GetActionEv
FNDA:15105,_ZN7testing8internal23ReferenceOrValueWrapperImEC2Em
FNDA:20,_ZNK7testing8internal14FunctionMockerIFviiEE29FindMatchingExpectationLockedERKSt5tupleIJiiEE
FNDA:800,_ZNK7testing8internal14FunctionMockerIFvmEE14FindOnCallSpecERKSt5tupleIJmEE
FNDA:5,_ZN7testing8internal16TypedExpectationIFvhiiEED2Ev
FNDA:50,_ZNK7testing8internal16TypedExpectationIFbvEE7MatchesERKSt5tupleIJEE
FNDA:0,_ZN7testing8internal18ActionResultHolderIvE13PerformActionIFvhEEEPS2_RKNS_6ActionIT_EEONS0_8FunctionIS7_E13ArgumentTupleE
FNDA:185,_ZN7testing8internal14FunctionMockerIFviiEEC2Ev
FNDA:35,_ZN7testing8internal8MockSpecIFviiEEclERKNS0_15WithoutMatchersEPv
FNDA:25,_ZN7testing8internal14FunctionMockerIFhhhEE30UntypedFindMatchingExpectationEPKvPS5_PbPSoS8_
FNDA:0,_ZNK7testing8internal14FunctionMockerIFhvEE33FormatUnexpectedCallMessageLockedERKSt5tupleIJEEPSoS8_
FNDA:10230,_ZNK7testing8internal14FunctionMockerIFmvEE20PerformDefaultActionEOSt5tupleIJEERKSs
FNDA:1150,_ZN7testing8internal14FunctionMockerIFihEEC2Ev
FNDA:0,_ZNK7testing8internal16TypedExpectationIFmvEE20ExplainMatchResultToERKSt5tupleIJEEPSo
FNDA:70,_ZN7testing8internal16TypedExpectationIFmhhmEE21GetActionForArgumentsEPKNS0_14FunctionMockerIS2_EERKSt5tupleIJhhmEEPSoSC_
FNDA:0,_ZNK7testing8internal14FunctionMockerIFvjEE33FormatUnexpectedCallMessageLockedERKSt5tupleIJjEEPSoS8_
FNDA:20,_ZNK7testing8internal14FunctionMockerIFvhiEE29FindMatchingExpectationLockedERKSt5tupleIJhiEE
FNDA:485,_ZN7testing8internal16TypedExpectationIFviEED0Ev
FNDA:35,_ZN7testing8internal14FunctionMockerIFviiEE17AddNewExpectationEPKciRKSsRKSt5tupleIJNS_7MatcherIiEESA_EE
FNDA:0,_ZNK7testing8internal16TypedExpectationIFvhPFvvEiEE15repeated_actionEv
FNDA:35,_ZN7testing8internal18ActionResultHolderIvE20PerformDefaultActionIFvhiEEEPS2_PKNS0_14FunctionMockerIT_EEONS0_8FunctionIS7_E13ArgumentTupleERKSs
FNDA:260,_ZN7testing8internal14FunctionMockerIFfvEED2Ev
FNDA:0,_ZN7testing8internal16TypedExpectationIFahEE9GetHandleEv
FNDA:1135,_ZN7testing8internal8MockSpecIFivEEC2EPNS0_14FunctionMockerIS2_EERKSt5tupleIJEE
FNDA:0,_ZNK7testing8internal14FunctionMockerIFvvEE23DescribeDefaultActionToERKSt5tupleIJEEPSo
FNDA:35,_ZN7testing8internal16TypedExpectationIFviiEED0Ev
FNDA:30,_ZN7testing8internal16TypedExpectationIFmhhmEED0Ev
FNDA:0,_ZNK7testing8internal10OnCallSpecIFihEE9GetActionEv
FNDA:50,_ZN7testing8internal14FunctionMockerIFvmEE30UntypedFindMatchingExpectationEPKvPS5_PbPSoS8_
FNDA:0,_ZNK7testing8internal14FunctionMockerIFmvEE23DescribeDefaultActionToERKSt5tupleIJEEPSo
FNDA:65,_ZN7testing8internal8MockSpecIFfvEEclERKNS0_15WithoutMatchersEPv
FNDA:3270,_ZNK7testing8internal16TypedExpectationIFivEE21ShouldHandleArgumentsERKSt5tupleIJEE
FNDA:10,_ZN7testing8internal16TypedExpectationIFviEE5TimesEi
FNDA:5,_ZN7testing8internal14FunctionMockerIFvmEE4WithENS_7MatcherImEE
FNDA:640,_ZNK7testing8internal16TypedExpectationIFmvEE21ShouldHandleArgumentsERKSt5tupleIJEE
FNDA:395,_ZN7testing8internal21UntypedOnCallSpecBaseC2EPKci
FNDA:0,_ZN7testing8internal16TypedExpectationIFvmEE27MaybeDescribeExtraMatcherToEPSo
FNDA:0,_ZNK7testing8internal14FunctionMockerIFmhhmEE32UntypedDescribeUninterestingCallEPKvPSo
FNDA:85,_ZNK7testing8internal10OnCallSpecIFahEE9GetActionEv
FNDA:15,_ZN7testing8internal18ActionResultHolderIiE20PerformDefaultActionIFihEEEPS2_PKNS0_14FunctionMockerIT_EEONS0_8FunctionIS7_E13ArgumentTupleERKSs
FNDA:20,_ZNK7testing8internal16TypedExpectationIFviiEE7MatchesERKSt5tupleIJiiEE
FNDA:25,_ZNK7testing8internal14FunctionMockerIFvhiiEE23DescribeDefaultActionToERKSt5tupleIJhiiEEPSo
FNDA:0,_ZNK7testing8internal23ReferenceOrValueWrapperIhE4PeekEv
FNDA:105,_ZN7testing8internal23ReferenceOrValueWrapperIaE6UnwrapEv
FNDA:170,_ZNK7testing8internal14FunctionMockerIFmhEE29FindMatchingExpectationLockedERKSt5tupleIJhEE
FNDA:15540,_ZN7testing8internal18ActionResultHolderIiE6UnwrapEv
FNDA:0,_ZNK7testing8internal16TypedExpectationIFfvEE20ExplainMatchResultToERKSt5tupleIJEEPSo
FNDA:0,_ZN7testing8internal16TypedExpectationIFvvEE9GetHandleEv
FNDA:65,_ZN7testing8internal8MockSpecIFfvEEC2EPNS0_14FunctionMockerIS2_EERKSt5tupleIJEE
FNDA:20,_ZNK7testing8internal16TypedExpectationIFfvEE16GetCurrentActionEPKNS0_14FunctionMockerIS2_EERKSt5tupleIJEE
FNDA:330,_ZNK7testing8internal14FunctionMockerIFviEE27UntypedPerformDefaultActionEPvRKSs
FNDA:10,_ZN7testing8internal16TypedExpectationIFhhhEE5TimesERKNS_11CardinalityE
FNDA:0,_ZN7testing8internal16TypedExpectationIFbvEE9GetHandleEv
FNDA:0,_ZNK7testing8internal10OnCallSpecIFvhhEE9GetActionEv
FNDA:0,_ZNK7testing8internal14FunctionMockerIFvvEE33FormatUnexpectedCallMessageLockedERKSt5tupleIJEEPSoS8_
FNDA:30,_ZN7testing8internal14FunctionMockerIFjvEED2Ev
FNDA:0,_ZNK7testing8internal14FunctionMockerIFmhhmEE16UntypedPrintArgsEPKvPSo
FNDA:0,_ZNK7testing8internal14FunctionMockerIFmhEE16UntypedPrintArgsEPKvPSo
FNDA:575,_ZN7testing8internal14FunctionMockerIFvjEE25ClearDefaultActionsLockedEv
FNDA:0,_ZNK7testing8internal14FunctionMockerIFvvEE20UntypedPerformActionEPKvPv
FNDA:400,_ZNK7testing8internal10OnCallSpecIFfvEE7MatchesERKSt5tupleIJEE
FNDA:15540,_ZN7testing8internal23ReferenceOrValueWrapperIiE6UnwrapEv
FNDA:0,_ZN7testing8internal16TypedExpectationIFlvEE27MaybeDescribeExtraMatcherToEPSo
FNDA:400,_ZNK7testing8internal14FunctionMockerIFfvEE20PerformDefaultActionEOSt5tupleIJEERKSs
FNDA:0,_ZN7testing8internal18ActionResultHolderIvE13PerformActionIFviiEEEPS2_RKNS_6ActionIT_EEONS0_8FunctionIS7_E13ArgumentTupleE
FNDA:0,_ZNK7testing8internal14FunctionMockerIFviEE33FormatUnexpectedCallMessageLockedERKSt5tupleIJiEEPSoS8_
FNDA:0,_ZN7testing8internal10OnCallSpecIFihEED2Ev
FNDA:9015,_ZNK7testing8internal16TypedExpectationIFihEE15repeated_actionEv
FNDA:10835,_ZN7testing8internal14FunctionMockerIFmvEE6InvokeEv
FNDA:70,_ZNK7testing8internal14FunctionMockerIFvhPFvvEiEE14FindOnCallSpecERKSt5tupleIJhS3_iEE
FNDA:15,_ZN7testing8internal8MockSpecIFhhhEED2Ev
FNDA:0,_ZNK7testing8internal14FunctionMockerIFvhPFvvEiEE23DescribeDefaultActionToERKSt5tupleIJhS3_iEEPSo
FNDA:5,_ZN7testing8internal8MockSpecIFvmEEclERKNS0_15WithoutMatchersEPv
FNDA:0,_ZNK7testing8internal16TypedExpectationIFvvEE20ExplainMatchResultToERKSt5tupleIJEEPSo
FNDA:3735,_ZNK7testing8internal14FunctionMockerIFhvEE14FindOnCallSpecERKSt5tupleIJEE
FNDA:30,_ZN7testing8internal14FunctionMockerIFvjEE30UntypedFindMatchingExpectationEPKvPS5_PbPSoS8_
FNDA:105,_ZN7testing8internal23ReferenceOrValueWrapperIaEC2Ea
FNDA:575,_ZN7testing8internal14FunctionMockerIFvhEEC2Ev
FNDA:575,_ZN7testing8internal14FunctionMockerIFvhEE25ClearDefaultActionsLockedEv
FNDA:45,_ZN7testing8internal16TypedExpectationIFvvEED2Ev
FNDA:400,_ZNK7testing8internal14FunctionMockerIFfvEE27UntypedPerformDefaultActionEPvRKSs
FNDA:575,_ZN7testing8internal14FunctionMockerIFvhPFvvEiEEC2Ev
FNDA:20,_ZNK7testing8internal16TypedExpectationIFviiEE15repeated_actionEv
FNDA:7015,_ZN7testing8internal23ReferenceOrValueWrapperIhE6UnwrapEv
FNDA:1930,_ZN7testing8internal18ActionResultHolderIbED0Ev
FNDA:0,_ZNK7testing8internal14FunctionMockerIFhvEE20UntypedPerformActionEPKvPv
FNDA:3735,_ZNK7testing8internal14FunctionMockerIFvhEE14FindOnCallSpecERKSt5tupleIJhEE
FNDA:20,_ZNK7testing8internal14FunctionMockerIFfvEE20UntypedPerformActionEPKvPv
FNDA:50,_ZNK7testing8internal16TypedExpectationIFlvEE16GetCurrentActionEPKNS0_14FunctionMockerIS2_EERKSt5tupleIJEE
FNDA:485,_ZN7testing8internal16TypedExpectationIFviEED2Ev
FNDA:0,_ZNK7testing8internal10OnCallSpecIFhvEE7MatchesERKSt5tupleIJEE
FNDA:3615,_ZNK7testing8internal15ExpectationBase18ExpectSpecPropertyEbRKSs
FNDA:7015,_ZN7testing8internal18ActionResultHolderIhE6UnwrapEv
FNDA:0,_ZNK7testing8internal14FunctionMockerIFvmEE23DescribeDefaultActionToERKSt5tupleIJmEEPSo
FNDA:9070,_ZNK7testing8internal14FunctionMockerIFihEE20UntypedPerformActionEPKvPv
FNDA:35,_ZN7testing8internal14FunctionMockerIFjvEE6InvokeEv
FNDA:640,_ZN7testing8internal8MockSpecIFmvEE18InternalExpectedAtEPKciS5_S5_
FNDA:480,_ZNK7testing8internal14FunctionMockerIFviEE29FindMatchingExpectationLockedERKSt5tupleIJiEE
FNDA:30,_ZN7testing8internal8MockSpecIFvjEEclERKNS0_15WithoutMatchersEPv
FNDA:85,_ZNK7testing8internal10OnCallSpecIFahEE7MatchesERKSt5tupleIJhEE
FNDA:0,_ZN7testing8internal14FunctionMockerIFvhiiEED0Ev
FNDA:30,_ZN7testing8internal16TypedExpectationIFlvEE5TimesEi
FNDA:30,_ZN7testing8internal16TypedExpectationIFvjEED2Ev
FNDA:0,_ZNK7testing8internal10OnCallSpecIFviEE9GetActionEv
FNDA:30,_ZN7testing8internal16TypedExpectationIFvjEE21GetActionForArgumentsEPKNS0_14FunctionMockerIS2_EERKSt5tupleIJjEEPSoSC_
FNDA:10,_ZN7testing8internal16TypedExpectationIFlvEE8WillOnceERKNS_6ActionIS2_EE
FNDA:10,_ZN7testing8internal14FunctionMockerIFvhPFvvEiEE17AddNewExpectationEPKciRKSsRKSt5tupleIJNS_7MatcherIhEENSB_IS3_EENSB_IiEEEE
FNDA:0,_ZN7testing8internal10OnCallSpecIFvhEED2Ev
FNDA:30,_ZN7testing8internal8MockSpecIFvjEEC2EPNS0_14FunctionMockerIS2_EERKSt5tupleIJNS_7MatcherIjEEEE
FNDA:5,_ZN7testing8internal16TypedExpectationIFvmEE5TimesERKNS_11CardinalityE
FNDA:485,_ZN7testing8internal16TypedExpectationIFviEEC2EPNS0_14FunctionMockerIS2_EEPKciRKSsRKSt5tupleIJNS_7MatcherIiEEEE
FNDA:575,_ZN7testing8internal14FunctionMockerIFhvEEC2Ev
FNDA:790,_ZNK7testing8internal21UntypedOnCallSpecBase18ExpectSpecPropertyEbRKSs
FNDA:15,_ZNK7testing8internal14FunctionMockerIFihEE20PerformDefaultActionEOSt5tupleIJhEERKSs
FNDA:5,_ZN7testing8internal14FunctionMockerIFvhiiEE4WithENS_7MatcherIhEENS4_IiEES6_
FNDA:28540,_ZNK7testing8internal15ExpectationBase11IsSaturatedEv
FNDA:70,_ZN7testing8internal23ReferenceOrValueWrapperIlE6UnwrapEv
FNDA:30,_ZNK7testing8internal14FunctionMockerIFvhiiEE27UntypedPerformDefaultActionEPvRKSs
FNDA:0,_ZNK7testing8internal14FunctionMockerIFhvEE28PrintTriedExpectationsLockedERKSt5tupleIJEEPSo
FNDA:0,_ZN7testing8internal16TypedExpectationIFihEE9GetHandleEv
FNDA:0,_ZNK7testing8internal14FunctionMockerIFviEE28PrintTriedExpectationsLockedERKSt5tupleIJiEEPSo
FNDA:0,_ZNK7testing8internal14FunctionMockerIFbvEE28PrintTriedExpectationsLockedERKSt5tupleIJEEPSo
FNDA:30,_ZNK7testing8internal16TypedExpectationIFjvEE15repeated_actionEv
FNDA:575,_ZN7testing8internal14FunctionMockerIFvmEED2Ev
FNDA:0,_ZNK7testing8internal14FunctionMockerIFmhhmEE23DescribeDefaultActionToERKSt5tupleIJhhmEEPSo
FNDA:0,_ZNK7testing8internal16TypedExpectationIFvmEE20ExplainMatchResultToERKSt5tupleIJmEEPSo
FNDA:25,_ZNK7testing8internal16TypedExpectationIFhhhEE21ShouldHandleArgumentsERKSt5tupleIJhhEE
FNDA:15,_ZN7testing8internal8MockSpecIFhvEEclERKNS0_15WithoutMatchersEPv
FNDA:0,_ZNK7testing8internal14FunctionMockerIFvhiEE33FormatUnexpectedCallMessageLockedERKSt5tupleIJhiEEPSoS8_
FNDA:3300,_ZNK7testing8internal14FunctionMockerIFivEE27UntypedPerformDefaultActionEPvRKSs
FNDA:0,_ZN7testing8internal29UntypedActionResultHolderBaseD0Ev
FNDA:1150,_ZN7testing8internal14FunctionMockerIFvhhEEC2Ev
FNDA:1930,_ZN7testing8internal18ActionResultHolderIbEC2ENS0_23ReferenceOrValueWrapperIbEE
FNDA:0,_ZNK7testing8internal14FunctionMockerIFlvEE16UntypedPrintArgsEPKvPSo
FNDA:170,_ZN7testing8internal14FunctionMockerIFbvEE16AddNewOnCallSpecEPKciRKSt5tupleIJEE
FNDA:40,_ZN7testing8internal10OnCallSpecIFfvEEC2EPKciRKSt5tupleIJEE
FNDA:0,_ZNK7testing8internal10OnCallSpecIFvhPFvvEiEE7MatchesERKSt5tupleIJhS3_iEE
FNDA:580,_ZNK7testing8internal14FunctionMockerIFvhhEE20PerformDefaultActionEOSt5tupleIJhhEERKSs
FNDA:1370,_ZNK7testing8internal10OnCallSpecIFbvEE7MatchesERKSt5tupleIJEE
FNDA:0,_ZNK7testing8internal14FunctionMockerIFhhhEE20UntypedPerformActionEPKvPv
FNDA:30,_ZN7testing8internal14FunctionMockerIFvhiiEE25ClearDefaultActionsLockedEv
FNDA:15105,_ZN7testing8internal18ActionResultHolderImED0Ev
FNDA:15,_ZN7testing8internal14FunctionMockerIFhvEE17AddNewExpectationEPKciRKSsRKSt5tupleIJEE
FNDA:35,_ZN7testing8internal18ActionResultHolderIjED2Ev
FNDA:255,_ZN7testing8internal14FunctionMockerIFbvEE4WithEv
FNDA:10,_ZN7testing8internal16TypedExpectationIFhvEE5TimesEi
FNDA:30,_ZN7testing8internal14FunctionMockerIFmhhmEE4WithENS_7MatcherIhEES5_NS4_ImEE
FNDA:30,_ZNK7testing8internal14FunctionMockerIFjvEE20PerformDefaultActionEOSt5tupleIJEERKSs
FNDA:35,_ZNK7testing8internal14FunctionMockerIFvhiEE14FindOnCallSpecERKSt5tupleIJhiEE
FNDA:20,_ZN7testing8internal14FunctionMockerIFvhiEE17AddNewExpectationEPKciRKSsRKSt5tupleIJNS_7MatcherIhEENS9_IiEEEE
FNF:1008
FNH:718
DA:253,395
DA:254,395
DA:257,0
DA:258,0
DA:271,15145
DA:273,15145
DA:274,15145
DA:277,790
DA:279,790
DA:280,790
DA:292,395
DA:299,395
DA:306,395
DA:321,395
DA:322,395
DA:325,395
DA:327,395
DA:329,395
DA:330,395
DA:334,15145
DA:335,15145
DA:339,15145
DA:340,15145
DA:343,15145
DA:496,3010
DA:518,1750
DA:519,1750
DA:522,1750
DA:539,0
DA:540,0
DA:550,1460
DA:551,1460
DA:571,2995
DA:580,2995
DA:609,1260
DA:610,1260
DA:611,1260
DA:616,29735
DA:617,30485
DA:627,310
DA:630,310
DA:703,0
DA:704,0
DA:705,14270
DA:707,36070
DA:710,0
DA:711,0
DA:712,0
DA:752,3615
DA:754,3615
DA:755,3615
DA:763,3130
DA:766,2970
DA:767,2970
DA:768,2970
DA:779,29385
DA:781,29385
DA:782,29385
DA:786,180
DA:788,180
DA:789,180
DA:790,180
DA:793,26145
DA:795,26145
DA:796,26145
DA:800,28540
DA:802,28540
DA:803,28540
DA:807,20965
DA:809,20965
DA:810,20965
DA:822,14270
DA:824,14270
DA:825,14270
DA:829,14270
DA:831,14270
DA:832,14270
DA:833,14270
DA:890,2995
DA:900,2995
DA:902,5990
DA:905,2995
DA:906,18180
DA:907,12120
DA:908,3065
DA:910,8985
DA:931,400
DA:932,400
DA:933,400
DA:937,315
DA:938,315
DA:942,25
DA:943,25
DA:947,25
DA:949,25
DA:950,25
DA:1000,3065
DA:1001,3065
DA:1004,3065
DA:1006,3065
DA:1007,3065
DA:1008,2965
DA:1010,3065
DA:1014,65
DA:1015,65
DA:1016,0
DA:1020,65
DA:1024,65
DA:1025,65
DA:1027,65
DA:1028,65
DA:1029,5
DA:1034,65
DA:1035,65
DA:1064,11225
DA:1068,0
DA:1069,0
DA:1070,0
DA:1071,0
DA:1072,0
DA:1074,0
DA:1082,25
DA:1089,14545
DA:1091,14545
DA:1092,14545
DA:1096,14825
DA:1098,14825
DA:1104,14825
DA:1105,14825
DA:1110,0
DA:1114,0
DA:1116,0
DA:1117,0
DA:1119,0
DA:1120,0
DA:1121,0
DA:1123,0
DA:1124,0
DA:1125,0
DA:1126,0
DA:1127,0
DA:1129,0
DA:1130,0
DA:1132,0
DA:1133,0
DA:1134,0
DA:1136,0
DA:1137,0
DA:1138,0
DA:1139,0
DA:1140,0
DA:1141,0
DA:1142,0
DA:1144,0
DA:1150,0
DA:1152,0
DA:1155,14270
DA:1158,14270
DA:1159,14270
DA:1160,14270
DA:1164,14270
DA:1165,14270
DA:1169,0
DA:1170,0
DA:1171,0
DA:1172,0
DA:1173,0
DA:1174,0
DA:1175,0
DA:1176,0
DA:1180,3045
DA:1182,17315
DA:1192,14270
DA:1197,14270
DA:1198,14270
DA:1200,0
DA:1201,0
DA:1202,0
DA:1203,0
DA:1205,0
DA:1208,14270
DA:1209,14270
DA:1211,14270
DA:1212,0
DA:1216,14270
DA:1217,14270
DA:1246,1100
DA:1254,3390
DA:1256,3390
DA:1260,395
DA:1262,395
DA:1264,395
DA:1269,2995
DA:1272,5990
DA:1273,2995
DA:1274,2995
DA:1275,8985
DA:1281,3390
DA:1282,3390
DA:1310,40220
DA:1311,40220
DA:1312,40220
DA:1317,40220
DA:1323,0
DA:1324,0
DA:1363,46315
DA:1365,46315
DA:1373,80440
DA:1376,40220
DA:1377,40220
DA:1381,0
DA:1382,0
DA:1384,0
DA:1385,0
DA:1390,27245
DA:1395,27245
DA:1401,12975
DA:1404,12975
DA:1410,40220
DA:1411,40220
DA:1412,40220
DA:1421,12190
DA:1423,6095
DA:1425,30
DA:1430,5890
DA:1434,5890
DA:1435,5890
DA:1441,205
DA:1443,205
DA:1444,205
DA:1448,6095
DA:1464,12850
DA:1484,12850
DA:1485,25700
DA:1486,12850
DA:1487,12850
DA:1488,12850
DA:1489,25700
DA:1494,33165
DA:1496,66330
DA:1497,33165
DA:1498,66330
DA:1499,15145
DA:1500,15145
DA:1501,15145
DA:1504,18020
DA:1514,33135
DA:1517,33135
DA:1518,33135
DA:1519,15145
DA:1524,35980
DA:1526,17990
DA:1527,0
DA:1532,17990
DA:1540,33135
DA:1543,33135
DA:1544,33135
DA:1545,33135
DA:1552,13180
DA:1556,26360
DA:1557,13180
DA:1558,26360
DA:1563,12850
DA:1565,12850
DA:1574,25700
DA:1575,12850
DA:1577,12850
DA:1578,26885
DA:1579,12850
DA:1580,26490
DA:1581,395
DA:1586,12850
DA:1587,12850
DA:1592,46315
DA:1593,22705
DA:1595,92630
DA:1596,92630
DA:1599,3390
DA:1600,3390
DA:1610,395
DA:1614,395
DA:1615,395
DA:1616,395
DA:1617,395
DA:1621,2995
DA:1625,2995
DA:1627,2995
DA:1628,5990
DA:1631,2995
DA:1634,2995
DA:1635,2995
DA:1636,225
DA:1639,5990
DA:1650,30
DA:1652,30
DA:1654,30
DA:1655,30
DA:1659,0
DA:1660,0
DA:1662,30
DA:1667,30
DA:1671,30
DA:1672,30
DA:1673,30
DA:1674,30
DA:1675,30
DA:1676,30
DA:1694,14270
DA:1699,14270
DA:1700,28540
DA:1701,14270
DA:1702,14270
DA:1703,0
DA:1704,0
DA:1710,14270
DA:1711,14270
DA:1712,14270
DA:1713,1090
DA:1714,14270
DA:1715,14270
DA:1719,0
DA:1722,0
DA:1723,0
DA:1724,0
DA:1728,14270
DA:1731,14270
DA:1734,30205
DA:1735,14270
DA:1736,29650
DA:1738,14825
DA:1739,14825
DA:1740,14270
DA:1743,0
DA:1747,0
DA:1752,0
DA:1753,0
DA:1754,0
DA:1755,0
DA:1756,0
DA:1760,0
DA:1764,0
DA:1765,0
DA:1766,0
DA:1767,0
DA:1770,0
DA:1772,0
DA:1773,0
DA:1774,0
DA:1775,0
DA:1776,0
DA:1778,0
DA:1779,0
DA:1780,0
DA:1782,0
LF:354
LH:260
end_of_record
TN:
SF:/home/travis/build/platisd/smartcar_shield/test/build/googletest-src/googlemock/include/gmock/internal/gmock-internal-utils.h
FN:263,_ZN7testing8internal24FailureReporterInterfaceC2Ev
FN:270,_ZN7testing8internal24FailureReporterInterfaceD2Ev
FN:270,_ZN7testing8internal24FailureReporterInterfaceD0Ev
FN:285,_ZN7testing8internal6AssertEbPKciRKSs
FN:298,_ZN7testing8internal6ExpectEbPKciRKSs
FN:346,_ZN7testing8internal15WithoutMatchersC2Ev
FN:518,_ZN7testing8internal9ApplyImplIRKSt8functionIFmhhmEESt5tupleIJhhmEEJLm0ELm1ELm2EEEEDTclcl7forwardIT_Efp_Espcl3getIXT1_EEcl7forwardIT0_Efp0_EEEEOS9_OSA_NS0_8int_packIJXspT1_EEEE
FN:518,_ZN7testing8internal9ApplyImplIRKSt8functionIFjvEESt5tupleIJEEJEEEDTclcl7forwardIT_Efp_Espcl3getIXT1_EEcl7forwardIT0_Efp0_EEEEOS9_OSA_NS0_8int_packIJXspT1_EEEE
FN:518,_ZN7testing8internal9ApplyImplIRKSt8functionIFvjEESt5tupleIJjEEJLm0EEEEDTclcl7forwardIT_Efp_Espcl3getIXT1_EEcl7forwardIT0_Efp0_EEEEOS9_OSA_NS0_8int_packIJXspT1_EEEE
FN:518,_ZN7testing8internal9ApplyImplIRKSt8functionIFmvEESt5tupleIJEEJEEEDTclcl7forwardIT_Efp_Espcl3getIXT1_EEcl7forwardIT0_Efp0_EEEEOS9_OSA_NS0_8int_packIJXspT1_EEEE
FN:518,_ZN7testing8internal9ApplyImplIRKSt8functionIFihEESt5tupleIJhEEJLm0EEEEDTclcl7forwardIT_Efp_Espcl3getIXT1_EEcl7forwardIT0_Efp0_EEEEOS9_OSA_NS0_8int_packIJXspT1_EEEE
FN:518,_ZN7testing8internal9ApplyImplIRKSt8functionIFhhhEESt5tupleIJhhEEJLm0ELm1EEEEDTclcl7forwardIT_Efp_Espcl3getIXT1_EEcl7forwardIT0_Efp0_EEEEOS9_OSA_NS0_8int_packIJXspT1_EEEE
FN:518,_ZN7testing8internal9ApplyImplIRKSt8functionIFbvEESt5tupleIJEEJEEEDTclcl7forwardIT_Efp_Espcl3getIXT1_EEcl7forwardIT0_Efp0_EEEEOS9_OSA_NS0_8int_packIJXspT1_EEEE
FN:518,_ZN7testing8internal9ApplyImplIRKSt8functionIFvmEESt5tupleIJmEEJLm0EEEEDTclcl7forwardIT_Efp_Espcl3getIXT1_EEcl7forwardIT0_Efp0_EEEEOS9_OSA_NS0_8int_packIJXspT1_EEEE
FN:518,_ZN7testing8internal9ApplyImplIRKSt8functionIFviEESt5tupleIJiEEJLm0EEEEDTclcl7forwardIT_Efp_Espcl3getIXT1_EEcl7forwardIT0_Efp0_EEEEOS9_OSA_NS0_8int_packIJXspT1_EEEE
FN:518,_ZN7testing8internal9ApplyImplIRKSt8functionIFviiEESt5tupleIJiiEEJLm0ELm1EEEEDTclcl7forwardIT_Efp_Espcl3getIXT1_EEcl7forwardIT0_Efp0_EEEEOS9_OSA_NS0_8int_packIJXspT1_EEEE
FN:518,_ZN7testing8internal9ApplyImplIRKSt8functionIFmhEESt5tupleIJhEEJLm0EEEEDTclcl7forwardIT_Efp_Espcl3getIXT1_EEcl7forwardIT0_Efp0_EEEEOS9_OSA_NS0_8int_packIJXspT1_EEEE
FN:518,_ZN7testing8internal9ApplyImplIRKSt8functionIFahEESt5tupleIJhEEJLm0EEEEDTclcl7forwardIT_Efp_Espcl3getIXT1_EEcl7forwardIT0_Efp0_EEEEOS9_OSA_NS0_8int_packIJXspT1_EEEE
FN:518,_ZN7testing8internal9ApplyImplIRKSt8functionIFvhEESt5tupleIJhEEJLm0EEEEDTclcl7forwardIT_Efp_Espcl3getIXT1_EEcl7forwardIT0_Efp0_EEEEOS9_OSA_NS0_8int_packIJXspT1_EEEE
FN:518,_ZN7testing8internal9ApplyImplIRKSt8functionIFvvEESt5tupleIJEEJEEEDTclcl7forwardIT_Efp_Espcl3getIXT1_EEcl7forwardIT0_Efp0_EEEEOS9_OSA_NS0_8int_packIJXspT1_EEEE
FN:518,_ZN7testing8internal9ApplyImplIRKSt8functionIFvhPFvvEiEESt5tupleIJhS4_iEEJLm0ELm1ELm2EEEEDTclcl7forwardIT_Efp_Espcl3getIXT1_EEcl7forwardIT0_Efp0_EEEEOSB_OSC_NS0_8int_packIJXspT1_EEEE
FN:518,_ZN7testing8internal9ApplyImplIRKSt8functionIFhvEESt5tupleIJEEJEEEDTclcl7forwardIT_Efp_Espcl3getIXT1_EEcl7forwardIT0_Efp0_EEEEOS9_OSA_NS0_8int_packIJXspT1_EEEE
FN:518,_ZN7testing8internal9ApplyImplIRKSt8functionIFfvEESt5tupleIJEEJEEEDTclcl7forwardIT_Efp_Espcl3getIXT1_EEcl7forwardIT0_Efp0_EEEEOS9_OSA_NS0_8int_packIJXspT1_EEEE
FN:518,_ZN7testing8internal9ApplyImplIRKSt8functionIFvhiiEESt5tupleIJhiiEEJLm0ELm1ELm2EEEEDTclcl7forwardIT_Efp_Espcl3getIXT1_EEcl7forwardIT0_Efp0_EEEEOS9_OSA_NS0_8int_packIJXspT1_EEEE
FN:518,_ZN7testing8internal9ApplyImplIRKSt8functionIFlvEESt5tupleIJEEJEEEDTclcl7forwardIT_Efp_Espcl3getIXT1_EEcl7forwardIT0_Efp0_EEEEOS9_OSA_NS0_8int_packIJXspT1_EEEE
FN:518,_ZN7testing8internal9ApplyImplIRKSt8functionIFvhiEESt5tupleIJhiEEJLm0ELm1EEEEDTclcl7forwardIT_Efp_Espcl3getIXT1_EEcl7forwardIT0_Efp0_EEEEOS9_OSA_NS0_8int_packIJXspT1_EEEE
FN:518,_ZN7testing8internal9ApplyImplIRKSt8functionIFivEESt5tupleIJEEJEEEDTclcl7forwardIT_Efp_Espcl3getIXT1_EEcl7forwardIT0_Efp0_EEEEOS9_OSA_NS0_8int_packIJXspT1_EEEE
FN:518,_ZN7testing8internal9ApplyImplIRKSt8functionIFvhhEESt5tupleIJhhEEJLm0ELm1EEEEDTclcl7forwardIT_Efp_Espcl3getIXT1_EEcl7forwardIT0_Efp0_EEEEOS9_OSA_NS0_8int_packIJXspT1_EEEE
FN:525,_ZN7testing8internal5ApplyIRKSt8functionIFmvEESt5tupleIJEEEEDTcl9ApplyImplcl7forwardIT_Efp_Ecl7forwardIT0_Efp0_EcvNS0_13make_int_packIXsrSt10tuple_sizeISA_E5valueEEE_EEEOS9_OSA_
FN:525,_ZN7testing8internal5ApplyIRKSt8functionIFvhiEESt5tupleIJhiEEEEDTcl9ApplyImplcl7forwardIT_Efp_Ecl7forwardIT0_Efp0_EcvNS0_13make_int_packIXsrSt10tuple_sizeISA_E5valueEEE_EEEOS9_OSA_
FN:525,_ZN7testing8internal5ApplyIRKSt8functionIFvhPFvvEiEESt5tupleIJhS4_iEEEEDTcl9ApplyImplcl7forwardIT_Efp_Ecl7forwardIT0_Efp0_EcvNS0_13make_int_packIXsrSt10tuple_sizeISC_E5valueEEE_EEEOSB_OSC_
FN:525,_ZN7testing8internal5ApplyIRKSt8functionIFvhEESt5tupleIJhEEEEDTcl9ApplyImplcl7forwardIT_Efp_Ecl7forwardIT0_Efp0_EcvNS0_13make_int_packIXsrSt10tuple_sizeISA_E5valueEEE_EEEOS9_OSA_
FN:525,_ZN7testing8internal5ApplyIRKSt8functionIFhhhEESt5tupleIJhhEEEEDTcl9ApplyImplcl7forwardIT_Efp_Ecl7forwardIT0_Efp0_EcvNS0_13make_int_packIXsrSt10tuple_sizeISA_E5valueEEE_EEEOS9_OSA_
FN:525,_ZN7testing8internal5ApplyIRKSt8functionIFivEESt5tupleIJEEEEDTcl9ApplyImplcl7forwardIT_Efp_Ecl7forwardIT0_Efp0_EcvNS0_13make_int_packIXsrSt10tuple_sizeISA_E5valueEEE_EEEOS9_OSA_
FN:525,_ZN7testing8internal5ApplyIRKSt8functionIFjvEESt5tupleIJEEEEDTcl9ApplyImplcl7forwardIT_Efp_Ecl7forwardIT0_Efp0_EcvNS0_13make_int_packIXsrSt10tuple_sizeISA_E5valueEEE_EEEOS9_OSA_
FN:525,_ZN7testing8internal5ApplyIRKSt8functionIFvmEESt5tupleIJmEEEEDTcl9ApplyImplcl7forwardIT_Efp_Ecl7forwardIT0_Efp0_EcvNS0_13make_int_packIXsrSt10tuple_sizeISA_E5valueEEE_EEEOS9_OSA_
FN:525,_ZN7testing8internal5ApplyIRKSt8functionIFmhhmEESt5tupleIJhhmEEEEDTcl9ApplyImplcl7forwardIT_Efp_Ecl7forwardIT0_Efp0_EcvNS0_13make_int_packIXsrSt10tuple_sizeISA_E5valueEEE_EEEOS9_OSA_
FN:525,_ZN7testing8internal5ApplyIRKSt8functionIFvvEESt5tupleIJEEEEDTcl9ApplyImplcl7forwardIT_Efp_Ecl7forwardIT0_Efp0_EcvNS0_13make_int_packIXsrSt10tuple_sizeISA_E5valueEEE_EEEOS9_OSA_
FN:525,_ZN7testing8internal5ApplyIRKSt8functionIFahEESt5tupleIJhEEEEDTcl9ApplyImplcl7forwardIT_Efp_Ecl7forwardIT0_Efp0_EcvNS0_13make_int_packIXsrSt10tuple_sizeISA_E5valueEEE_EEEOS9_OSA_
FN:525,_ZN7testing8internal5ApplyIRKSt8functionIFhvEESt5tupleIJEEEEDTcl9ApplyImplcl7forwardIT_Efp_Ecl7forwardIT0_Efp0_EcvNS0_13make_int_packIXsrSt10tuple_sizeISA_E5valueEEE_EEEOS9_OSA_
FN:525,_ZN7testing8internal5ApplyIRKSt8functionIFihEESt5tupleIJhEEEEDTcl9ApplyImplcl7forwardIT_Efp_Ecl7forwardIT0_Efp0_EcvNS0_13make_int_packIXsrSt10tuple_sizeISA_E5valueEEE_EEEOS9_OSA_
FN:525,_ZN7testing8internal5ApplyIRKSt8functionIFvjEESt5tupleIJjEEEEDTcl9ApplyImplcl7forwardIT_Efp_Ecl7forwardIT0_Efp0_EcvNS0_13make_int_packIXsrSt10tuple_sizeISA_E5valueEEE_EEEOS9_OSA_
FN:525,_ZN7testing8internal5ApplyIRKSt8functionIFvhhEESt5tupleIJhhEEEEDTcl9ApplyImplcl7forwardIT_Efp_Ecl7forwardIT0_Efp0_EcvNS0_13make_int_packIXsrSt10tuple_sizeISA_E5valueEEE_EEEOS9_OSA_
FN:525,_ZN7testing8internal5ApplyIRKSt8functionIFfvEESt5tupleIJEEEEDTcl9ApplyImplcl7forwardIT_Efp_Ecl7forwardIT0_Efp0_EcvNS0_13make_int_packIXsrSt10tuple_sizeISA_E5valueEEE_EEEOS9_OSA_
FN:525,_ZN7testing8internal5ApplyIRKSt8functionIFviiEESt5tupleIJiiEEEEDTcl9ApplyImplcl7forwardIT_Efp_Ecl7forwardIT0_Efp0_EcvNS0_13make_int_packIXsrSt10tuple_sizeISA_E5valueEEE_EEEOS9_OSA_
FN:525,_ZN7testing8internal5ApplyIRKSt8functionIFviEESt5tupleIJiEEEEDTcl9ApplyImplcl7forwardIT_Efp_Ecl7forwardIT0_Efp0_EcvNS0_13make_int_packIXsrSt10tuple_sizeISA_E5valueEEE_EEEOS9_OSA_
FN:525,_ZN7testing8internal5ApplyIRKSt8functionIFlvEESt5tupleIJEEEEDTcl9ApplyImplcl7forwardIT_Efp_Ecl7forwardIT0_Efp0_EcvNS0_13make_int_packIXsrSt10tuple_sizeISA_E5valueEEE_EEEOS9_OSA_
FN:525,_ZN7testing8internal5ApplyIRKSt8functionIFbvEESt5tupleIJEEEEDTcl9ApplyImplcl7forwardIT_Efp_Ecl7forwardIT0_Efp0_EcvNS0_13make_int_packIXsrSt10tuple_sizeISA_E5valueEEE_EEEOS9_OSA_
FN:525,_ZN7testing8internal5ApplyIRKSt8functionIFmhEESt5tupleIJhEEEEDTcl9ApplyImplcl7forwardIT_Efp_Ecl7forwardIT0_Efp0_EcvNS0_13make_int_packIXsrSt10tuple_sizeISA_E5valueEEE_EEEOS9_OSA_
FN:525,_ZN7testing8internal5ApplyIRKSt8functionIFvhiiEESt5tupleIJhiiEEEEDTcl9ApplyImplcl7forwardIT_Efp_Ecl7forwardIT0_Efp0_EcvNS0_13make_int_packIXsrSt10tuple_sizeISA_E5valueEEE_EEEOS9_OSA_
FNDA:0,_ZN7testing8internal5ApplyIRKSt8functionIFvmEESt5tupleIJmEEEEDTcl9ApplyImplcl7forwardIT_Efp_Ecl7forwardIT0_Efp0_EcvNS0_13make_int_packIXsrSt10tuple_sizeISA_E5valueEEE_EEEOS9_OSA_
FNDA:5,_ZN7testing8internal5ApplyIRKSt8functionIFjvEESt5tupleIJEEEEDTcl9ApplyImplcl7forwardIT_Efp_Ecl7forwardIT0_Efp0_EcvNS0_13make_int_packIXsrSt10tuple_sizeISA_E5valueEEE_EEEOS9_OSA_
FNDA:0,_ZN7testing8internal24FailureReporterInterfaceD2Ev
FNDA:6215,_ZN7testing8internal5ApplyIRKSt8functionIFivEESt5tupleIJEEEEDTcl9ApplyImplcl7forwardIT_Efp_Ecl7forwardIT0_Efp0_EcvNS0_13make_int_packIXsrSt10tuple_sizeISA_E5valueEEE_EEEOS9_OSA_
FNDA:105,_ZN7testing8internal9ApplyImplIRKSt8functionIFahEESt5tupleIJhEEJLm0EEEEDTclcl7forwardIT_Efp_Espcl3getIXT1_EEcl7forwardIT0_Efp0_EEEEOS9_OSA_NS0_8int_packIJXspT1_EEEE
FNDA:0,_ZN7testing8internal9ApplyImplIRKSt8functionIFmhEESt5tupleIJhEEJLm0EEEEDTclcl7forwardIT_Efp_Espcl3getIXT1_EEcl7forwardIT0_Efp0_EEEEOS9_OSA_NS0_8int_packIJXspT1_EEEE
FNDA:0,_ZN7testing8internal9ApplyImplIRKSt8functionIFviiEESt5tupleIJiiEEJLm0ELm1EEEEDTclcl7forwardIT_Efp_Espcl3getIXT1_EEcl7forwardIT0_Efp0_EEEEOS9_OSA_NS0_8int_packIJXspT1_EEEE
FNDA:0,_ZN7testing8internal5ApplyIRKSt8functionIFhhhEESt5tupleIJhhEEEEDTcl9ApplyImplcl7forwardIT_Efp_Ecl7forwardIT0_Efp0_EcvNS0_13make_int_packIXsrSt10tuple_sizeISA_E5valueEEE_EEEOS9_OSA_
FNDA:200,_ZN7testing8internal9ApplyImplIRKSt8functionIFviEESt5tupleIJiEEJLm0EEEEDTclcl7forwardIT_Efp_Espcl3getIXT1_EEcl7forwardIT0_Efp0_EEEEOS9_OSA_NS0_8int_packIJXspT1_EEEE
FNDA:23730,_ZN7testing8internal15WithoutMatchersC2Ev
FNDA:0,_ZN7testing8internal9ApplyImplIRKSt8functionIFvmEESt5tupleIJmEEJLm0EEEEDTclcl7forwardIT_Efp_Espcl3getIXT1_EEcl7forwardIT0_Efp0_EEEEOS9_OSA_NS0_8int_packIJXspT1_EEEE
FNDA:1420,_ZN7testing8internal9ApplyImplIRKSt8functionIFbvEESt5tupleIJEEJEEEDTclcl7forwardIT_Efp_Espcl3getIXT1_EEcl7forwardIT0_Efp0_EEEEOS9_OSA_NS0_8int_packIJXspT1_EEEE
FNDA:0,_ZN7testing8internal9ApplyImplIRKSt8functionIFhhhEESt5tupleIJhhEEJLm0ELm1EEEEDTclcl7forwardIT_Efp_Espcl3getIXT1_EEcl7forwardIT0_Efp0_EEEEOS9_OSA_NS0_8int_packIJXspT1_EEEE
FNDA:0,_ZN7testing8internal5ApplyIRKSt8functionIFvhEESt5tupleIJhEEEEDTcl9ApplyImplcl7forwardIT_Efp_Ecl7forwardIT0_Efp0_EcvNS0_13make_int_packIXsrSt10tuple_sizeISA_E5valueEEE_EEEOS9_OSA_
FNDA:9070,_ZN7testing8internal9ApplyImplIRKSt8functionIFihEESt5tupleIJhEEJLm0EEEEDTclcl7forwardIT_Efp_Espcl3getIXT1_EEcl7forwardIT0_Efp0_EEEEOS9_OSA_NS0_8int_packIJXspT1_EEEE
FNDA:0,_ZN7testing8internal9ApplyImplIRKSt8functionIFvjEESt5tupleIJjEEJLm0EEEEDTclcl7forwardIT_Efp_Espcl3getIXT1_EEcl7forwardIT0_Efp0_EEEEOS9_OSA_NS0_8int_packIJXspT1_EEEE
FNDA:10835,_ZN7testing8internal9ApplyImplIRKSt8functionIFmvEESt5tupleIJEEJEEEDTclcl7forwardIT_Efp_Espcl3getIXT1_EEcl7forwardIT0_Efp0_EEEEOS9_OSA_NS0_8int_packIJXspT1_EEEE
FNDA:4405,_ZN7testing8internal6ExpectEbPKciRKSs
FNDA:5,_ZN7testing8internal9ApplyImplIRKSt8functionIFjvEESt5tupleIJEEJEEEDTclcl7forwardIT_Efp_Espcl3getIXT1_EEcl7forwardIT0_Efp0_EEEEOS9_OSA_NS0_8int_packIJXspT1_EEEE
FNDA:5,_ZN7testing8internal5ApplyIRKSt8functionIFvhPFvvEiEESt5tupleIJhS4_iEEEEDTcl9ApplyImplcl7forwardIT_Efp_Ecl7forwardIT0_Efp0_EcvNS0_13make_int_packIXsrSt10tuple_sizeISC_E5valueEEE_EEEOSB_OSC_
FNDA:0,_ZN7testing8internal5ApplyIRKSt8functionIFvhiEESt5tupleIJhiEEEEDTcl9ApplyImplcl7forwardIT_Efp_Ecl7forwardIT0_Efp0_EcvNS0_13make_int_packIXsrSt10tuple_sizeISA_E5valueEEE_EEEOS9_OSA_
FNDA:10835,_ZN7testing8internal5ApplyIRKSt8functionIFmvEESt5tupleIJEEEEDTcl9ApplyImplcl7forwardIT_Efp_Ecl7forwardIT0_Efp0_EcvNS0_13make_int_packIXsrSt10tuple_sizeISA_E5valueEEE_EEEOS9_OSA_
FNDA:0,_ZN7testing8internal24FailureReporterInterfaceC2Ev
FNDA:20,_ZN7testing8internal9ApplyImplIRKSt8functionIFmhhmEESt5tupleIJhhmEEJLm0ELm1ELm2EEEEDTclcl7forwardIT_Efp_Espcl3getIXT1_EEcl7forwardIT0_Efp0_EEEEOS9_OSA_NS0_8int_packIJXspT1_EEEE
FNDA:0,_ZN7testing8internal5ApplyIRKSt8functionIFmhEESt5tupleIJhEEEEDTcl9ApplyImplcl7forwardIT_Efp_Ecl7forwardIT0_Efp0_EcvNS0_13make_int_packIXsrSt10tuple_sizeISA_E5valueEEE_EEEOS9_OSA_
FNDA:0,_ZN7testing8internal5ApplyIRKSt8functionIFvhiiEESt5tupleIJhiiEEEEDTcl9ApplyImplcl7forwardIT_Efp_Ecl7forwardIT0_Efp0_EcvNS0_13make_int_packIXsrSt10tuple_sizeISA_E5valueEEE_EEEOS9_OSA_
FNDA:0,_ZN7testing8internal9ApplyImplIRKSt8functionIFvhhEESt5tupleIJhhEEJLm0ELm1EEEEDTclcl7forwardIT_Efp_Espcl3getIXT1_EEcl7forwardIT0_Efp0_EEEEOS9_OSA_NS0_8int_packIJXspT1_EEEE
FNDA:1420,_ZN7testing8internal5ApplyIRKSt8functionIFbvEESt5tupleIJEEEEDTcl9ApplyImplcl7forwardIT_Efp_Ecl7forwardIT0_Efp0_EcvNS0_13make_int_packIXsrSt10tuple_sizeISA_E5valueEEE_EEEOS9_OSA_
FNDA:30,_ZN7testing8internal5ApplyIRKSt8functionIFlvEESt5tupleIJEEEEDTcl9ApplyImplcl7forwardIT_Efp_Ecl7forwardIT0_Efp0_EcvNS0_13make_int_packIXsrSt10tuple_sizeISA_E5valueEEE_EEEOS9_OSA_
FNDA:200,_ZN7testing8internal5ApplyIRKSt8functionIFviEESt5tupleIJiEEEEDTcl9ApplyImplcl7forwardIT_Efp_Ecl7forwardIT0_Efp0_EcvNS0_13make_int_packIXsrSt10tuple_sizeISA_E5valueEEE_EEEOS9_OSA_
FNDA:6215,_ZN7testing8internal9ApplyImplIRKSt8functionIFivEESt5tupleIJEEJEEEDTclcl7forwardIT_Efp_Espcl3getIXT1_EEcl7forwardIT0_Efp0_EEEEOS9_OSA_NS0_8int_packIJXspT1_EEEE
FNDA:0,_ZN7testing8internal5ApplyIRKSt8functionIFviiEESt5tupleIJiiEEEEDTcl9ApplyImplcl7forwardIT_Efp_Ecl7forwardIT0_Efp0_EcvNS0_13make_int_packIXsrSt10tuple_sizeISA_E5valueEEE_EEEOS9_OSA_
FNDA:0,_ZN7testing8internal9ApplyImplIRKSt8functionIFvhiEESt5tupleIJhiEEJLm0ELm1EEEEDTclcl7forwardIT_Efp_Espcl3getIXT1_EEcl7forwardIT0_Efp0_EEEEOS9_OSA_NS0_8int_packIJXspT1_EEEE
FNDA:96895,_ZN7testing8internal6AssertEbPKciRKSs
FNDA:30,_ZN7testing8internal9ApplyImplIRKSt8functionIFlvEESt5tupleIJEEJEEEDTclcl7forwardIT_Efp_Espcl3getIXT1_EEcl7forwardIT0_Efp0_EEEEOS9_OSA_NS0_8int_packIJXspT1_EEEE
FNDA:420,_ZN7testing8internal5ApplyIRKSt8functionIFfvEESt5tupleIJEEEEDTcl9ApplyImplcl7forwardIT_Efp_Ecl7forwardIT0_Efp0_EcvNS0_13make_int_packIXsrSt10tuple_sizeISA_E5valueEEE_EEEOS9_OSA_
FNDA:0,_ZN7testing8internal9ApplyImplIRKSt8functionIFvhiiEESt5tupleIJhiiEEJLm0ELm1ELm2EEEEDTclcl7forwardIT_Efp_Espcl3getIXT1_EEcl7forwardIT0_Efp0_EEEEOS9_OSA_NS0_8int_packIJXspT1_EEEE
FNDA:420,_ZN7testing8internal9ApplyImplIRKSt8functionIFfvEESt5tupleIJEEJEEEDTclcl7forwardIT_Efp_Espcl3getIXT1_EEcl7forwardIT0_Efp0_EEEEOS9_OSA_NS0_8int_packIJXspT1_EEEE
FNDA:0,_ZN7testing8internal5ApplyIRKSt8functionIFvhhEESt5tupleIJhhEEEEDTcl9ApplyImplcl7forwardIT_Efp_Ecl7forwardIT0_Efp0_EcvNS0_13make_int_packIXsrSt10tuple_sizeISA_E5valueEEE_EEEOS9_OSA_
FNDA:0,_ZN7testing8internal5ApplyIRKSt8functionIFvjEESt5tupleIJjEEEEDTcl9ApplyImplcl7forwardIT_Efp_Ecl7forwardIT0_Efp0_EcvNS0_13make_int_packIXsrSt10tuple_sizeISA_E5valueEEE_EEEOS9_OSA_
FNDA:0,_ZN7testing8internal9ApplyImplIRKSt8functionIFhvEESt5tupleIJEEJEEEDTclcl7forwardIT_Efp_Espcl3getIXT1_EEcl7forwardIT0_Efp0_EEEEOS9_OSA_NS0_8int_packIJXspT1_EEEE
FNDA:5,_ZN7testing8internal9ApplyImplIRKSt8functionIFvhPFvvEiEESt5tupleIJhS4_iEEJLm0ELm1ELm2EEEEDTclcl7forwardIT_Efp_Espcl3getIXT1_EEcl7forwardIT0_Efp0_EEEEOSB_OSC_NS0_8int_packIJXspT1_EEEE
FNDA:0,_ZN7testing8internal9ApplyImplIRKSt8functionIFvvEESt5tupleIJEEJEEEDTclcl7forwardIT_Efp_Espcl3getIXT1_EEcl7forwardIT0_Efp0_EEEEOS9_OSA_NS0_8int_packIJXspT1_EEEE
FNDA:0,_ZN7testing8internal24FailureReporterInterfaceD0Ev
FNDA:9070,_ZN7testing8internal5ApplyIRKSt8functionIFihEESt5tupleIJhEEEEDTcl9ApplyImplcl7forwardIT_Efp_Ecl7forwardIT0_Efp0_EcvNS0_13make_int_packIXsrSt10tuple_sizeISA_E5valueEEE_EEEOS9_OSA_
FNDA:0,_ZN7testing8internal5ApplyIRKSt8functionIFhvEESt5tupleIJEEEEDTcl9ApplyImplcl7forwardIT_Efp_Ecl7forwardIT0_Efp0_EcvNS0_13make_int_packIXsrSt10tuple_sizeISA_E5valueEEE_EEEOS9_OSA_
FNDA:0,_ZN7testing8internal9ApplyImplIRKSt8functionIFvhEESt5tupleIJhEEJLm0EEEEDTclcl7forwardIT_Efp_Espcl3getIXT1_EEcl7forwardIT0_Efp0_EEEEOS9_OSA_NS0_8int_packIJXspT1_EEEE
FNDA:105,_ZN7testing8internal5ApplyIRKSt8functionIFahEESt5tupleIJhEEEEDTcl9ApplyImplcl7forwardIT_Efp_Ecl7forwardIT0_Efp0_EcvNS0_13make_int_packIXsrSt10tuple_sizeISA_E5valueEEE_EEEOS9_OSA_
FNDA:0,_ZN7testing8internal5ApplyIRKSt8functionIFvvEESt5tupleIJEEEEDTcl9ApplyImplcl7forwardIT_Efp_Ecl7forwardIT0_Efp0_EcvNS0_13make_int_packIXsrSt10tuple_sizeISA_E5valueEEE_EEEOS9_OSA_
FNDA:20,_ZN7testing8internal5ApplyIRKSt8functionIFmhhmEESt5tupleIJhhmEEEEDTcl9ApplyImplcl7forwardIT_Efp_Ecl7forwardIT0_Efp0_EcvNS0_13make_int_packIXsrSt10tuple_sizeISA_E5valueEEE_EEEOS9_OSA_
FNF:50
FNH:25
DA:263,0
DA:270,0
DA:285,96895
DA:287,96895
DA:288,0
DA:289,0
DA:291,96895
DA:298,4405
DA:300,4405
DA:301,0
DA:302,0
DA:304,4405
DA:346,23730
DA:518,28325
DA:520,28325
DA:525,28325
DA:528,56650
DA:529,56650
LF:18
LH:12
end_of_record
TN:
SF:/home/travis/build/platisd/smartcar_shield/test/build/googletest-src/googlemock/src/gmock-cardinalities.cc
FN:49,_ZN7testing12_GLOBAL__N_122BetweenCardinalityImplD2Ev
FN:49,_ZN7testing12_GLOBAL__N_122BetweenCardinalityImplD0Ev
FN:51,_ZN7testing12_GLOBAL__N_122BetweenCardinalityImplC2Eii
FN:73,_ZNK7testing12_GLOBAL__N_122BetweenCardinalityImpl22ConservativeLowerBoundEv
FN:74,_ZNK7testing12_GLOBAL__N_122BetweenCardinalityImpl22ConservativeUpperBoundEv
FN:76,_ZNK7testing12_GLOBAL__N_122BetweenCardinalityImpl22IsSatisfiedByCallCountEi
FN:80,_ZNK7testing12_GLOBAL__N_122BetweenCardinalityImpl22IsSaturatedByCallCountEi
FN:94,_ZN7testing12_GLOBAL__N_111FormatTimesEi
FN:107,_ZNK7testing12_GLOBAL__N_122BetweenCardinalityImpl10DescribeToEPSo
FN:129,_ZN7testing11Cardinality25DescribeActualCallCountToEiPSo
FN:139,_ZN7testing7AtLeastEi
FN:142,_ZN7testing6AtMostEi
FN:145,_ZN7testing9AnyNumberEv
FN:148,_ZN7testing7BetweenEii
FN:153,_ZN7testing7ExactlyEi
FNDA:220745,_ZNK7testing12_GLOBAL__N_122BetweenCardinalityImpl22IsSaturatedByCallCountEi
FNDA:0,_ZNK7testing12_GLOBAL__N_122BetweenCardinalityImpl10DescribeToEPSo
FNDA:0,_ZN7testing11Cardinality25DescribeActualCallCountToEiPSo
FNDA:0,_ZN7testing12_GLOBAL__N_111FormatTimesEi
FNDA:46655,_ZNK7testing12_GLOBAL__N_122BetweenCardinalityImpl22IsSatisfiedByCallCountEi
FNDA:2800,_ZNK7testing12_GLOBAL__N_122BetweenCardinalityImpl22ConservativeLowerBoundEv
FNDA:44555,_ZN7testing12_GLOBAL__N_122BetweenCardinalityImplD0Ev
FNDA:44555,_ZN7testing12_GLOBAL__N_122BetweenCardinalityImplD2Ev
FNDA:0,_ZN7testing9AnyNumberEv
FNDA:2800,_ZNK7testing12_GLOBAL__N_122BetweenCardinalityImpl22ConservativeUpperBoundEv
FNDA:44555,_ZN7testing12_GLOBAL__N_122BetweenCardinalityImplC2Eii
FNDA:43925,_ZN7testing7ExactlyEi
FNDA:315,_ZN7testing6AtMostEi
FNDA:44555,_ZN7testing7BetweenEii
FNDA:315,_ZN7testing7AtLeastEi
FNF:15
FNH:11
DA:49,89110
DA:51,44555
DA:53,44555
DA:54,89110
DA:55,44555
DA:56,0
DA:57,0
DA:58,0
DA:59,44555
DA:60,0
DA:61,0
DA:62,0
DA:63,44555
DA:64,0
DA:65,0
DA:66,0
DA:67,0
DA:69,44555
DA:73,2800
DA:74,2800
DA:76,46655
DA:77,46655
DA:80,220745
DA:81,220745
DA:94,0
DA:95,0
DA:96,0
DA:97,0
DA:98,0
DA:100,0
DA:101,0
DA:102,0
DA:107,0
DA:108,0
DA:109,0
DA:110,0
DA:111,0
DA:112,0
DA:114,0
DA:116,0
DA:117,0
DA:118,0
DA:119,0
DA:122,0
DA:124,0
DA:129,0
DA:131,0
DA:132,0
DA:134,0
DA:136,0
DA:139,315
DA:142,315
DA:145,0
DA:148,44555
DA:149,44555
DA:153,43925
LF:56
LH:19
end_of_record
TN:
SF:/home/travis/build/platisd/smartcar_shield/test/build/googletest-src/googlemock/src/gmock-internal-utils.cc
FN:51,_ZN7testing8internal11JoinAsTupleERKSt6vectorISsSaISsEE
FN:72,_ZN7testing8internal28ConvertIdentifierNameToWordsEPKc
FN:94,_ZN7testing8internal25GoogleTestFailureReporterC2Ev
FN:94,_ZN7testing8internal25GoogleTestFailureReporterD2Ev
FN:94,_ZN7testing8internal25GoogleTestFailureReporterD0Ev
FN:96,_ZN7testing8internal25GoogleTestFailureReporter13ReportFailureENS0_24FailureReporterInterface11FailureTypeEPKciRKSs
FN:112,_ZN7testing8internal18GetFailureReporterEv
FN:128,_ZN7testing8internal12LogIsVisibleENS0_11LogSeverityE
FN:149,_ZN7testing8internal3LogENS0_11LogSeverityERKSsi
FN:187,_ZN7testing8internal18GetWithoutMatchersEv
FN:189,_ZN7testing8internal16IllegalDoDefaultEPKci
FNDA:0,_ZN7testing8internal25GoogleTestFailureReporter13ReportFailureENS0_24FailureReporterInterface11FailureTypeEPKciRKSs
FNDA:0,_ZN7testing8internal25GoogleTestFailureReporterD0Ev
FNDA:23940,_ZN7testing8internal3LogENS0_11LogSeverityERKSsi
FNDA:0,_ZN7testing8internal18GetFailureReporterEv
FNDA:348145,_ZN7testing8internal12LogIsVisibleENS0_11LogSeverityE
FNDA:0,_ZN7testing8internal16IllegalDoDefaultEPKci
FNDA:0,_ZN7testing8internal28ConvertIdentifierNameToWordsEPKc
FNDA:0,_ZN7testing8internal11JoinAsTupleERKSt6vectorISsSaISsEE
FNDA:0,_ZN7testing8internal25GoogleTestFailureReporterC2Ev
FNDA:23730,_ZN7testing8internal18GetWithoutMatchersEv
FNDA:0,_ZN7testing8internal25GoogleTestFailureReporterD2Ev
FNF:11
FNH:3
DA:51,0
DA:52,0
DA:54,0
DA:56,0
DA:58,0
DA:59,0
DA:60,0
DA:61,0
DA:63,0
DA:64,0
DA:72,0
DA:73,0
DA:74,0
DA:75,0
DA:78,0
DA:79,0
DA:80,0
DA:82,0
DA:83,0
DA:84,0
DA:85,0
DA:88,0
DA:94,0
DA:96,0
DA:103,0
DA:104,0
DA:105,0
DA:107,0
DA:112,0
DA:119,0
DA:120,0
DA:128,348145
DA:129,348145
DA:131,0
DA:132,348145
DA:134,0
DA:138,348145
DA:149,23940
DA:151,23940
DA:152,23730
DA:155,420
DA:157,210
DA:159,210
DA:162,210
DA:163,210
DA:165,210
DA:166,210
DA:173,0
DA:177,0
DA:178,0
DA:180,0
DA:181,0
DA:182,0
DA:184,210
DA:187,23730
DA:189,0
DA:190,0
DA:196,0
DA:197,0
LF:59
LH:16
end_of_record
TN:
SF:/home/travis/build/platisd/smartcar_shield/test/build/googletest-src/googlemock/src/gmock-matchers.cc
FN:52,_ZN7testing8internal24FormatMatcherDescriptionEbPKcRKSt6vectorISsSaISsEE
FN:122,_ZN7testing8internal22MaxBipartiteMatchStateD2Ev
FN:124,_ZN7testing8internal22MaxBipartiteMatchStateC2ERKNS0_11MatchMatrixE
FN:130,_ZN7testing8internal22MaxBipartiteMatchState7ComputeEv
FN:182,_ZN7testing8internal22MaxBipartiteMatchState10TryAugmentEmPSt6vectorIcSaIcEE
FN:228,_ZN7testing8internal24FindMaxBipartiteMatchingERKNS0_11MatchMatrixE
FN:232,_ZN7testing8internalL24LogElementMatcherPairVecERKSt6vectorISt4pairImmESaIS3_EEPSo
FN:247,_ZN7testing8internal11MatchMatrix9NextGraphEv
FN:261,_ZN7testing8internal11MatchMatrix9RandomizeEv
FN:270,_ZNK7testing8internal11MatchMatrix11DebugStringEv
FN:283,_ZNK7testing8internal35UnorderedElementsAreMatcherImplBase14DescribeToImplEPSo
FN:324,_ZNK7testing8internal35UnorderedElementsAreMatcherImplBase22DescribeNegationToImplEPSo
FN:370,_ZNK7testing8internal35UnorderedElementsAreMatcherImplBase17VerifyMatchMatrixERKSt6vectorISsSaISsEERKNS0_11MatchMatrixEPNS_19MatchResultListenerE
FN:420,_ZNK7testing8internal35UnorderedElementsAreMatcherImplBase11FindPairingERKNS0_11MatchMatrixEPNS_19MatchResultListenerE
FNDA:0,_ZN7testing8internalL24LogElementMatcherPairVecERKSt6vectorISt4pairImmESaIS3_EEPSo
FNDA:0,_ZN7testing8internal24FormatMatcherDescriptionEbPKcRKSt6vectorISsSaISsEE
FNDA:0,_ZN7testing8internal24FindMaxBipartiteMatchingERKNS0_11MatchMatrixE
FNDA:0,_ZNK7testing8internal11MatchMatrix11DebugStringEv
FNDA:0,_ZN7testing8internal22MaxBipartiteMatchState7ComputeEv
FNDA:0,_ZN7testing8internal11MatchMatrix9NextGraphEv
FNDA:0,_ZN7testing8internal11MatchMatrix9RandomizeEv
FNDA:0,_ZNK7testing8internal35UnorderedElementsAreMatcherImplBase14DescribeToImplEPSo
FNDA:0,_ZNK7testing8internal35UnorderedElementsAreMatcherImplBase11FindPairingERKNS0_11MatchMatrixEPNS_19MatchResultListenerE
FNDA:0,_ZN7testing8internal22MaxBipartiteMatchStateD2Ev
FNDA:0,_ZN7testing8internal22MaxBipartiteMatchState10TryAugmentEmPSt6vectorIcSaIcEE
FNDA:0,_ZNK7testing8internal35UnorderedElementsAreMatcherImplBase22DescribeNegationToImplEPSo
FNDA:0,_ZN7testing8internal22MaxBipartiteMatchStateC2ERKNS0_11MatchMatrixE
FNDA:0,_ZNK7testing8internal35UnorderedElementsAreMatcherImplBase17VerifyMatchMatrixERKSt6vectorISsSaISsEERKNS0_11MatchMatrixEPNS_19MatchResultListenerE
FNF:14
FNH:0
DA:52,0
DA:55,0
DA:56,0
DA:57,0
DA:122,0
DA:124,0
DA:126,0
DA:127,0
DA:130,0
DA:132,0
DA:145,0
DA:148,0
DA:149,0
DA:151,0
DA:152,0
DA:154,0
DA:155,0
DA:156,0
DA:157,0
DA:158,0
DA:160,0
DA:182,0
DA:183,0
DA:184,0
DA:185,0
DA:187,0
DA:198,0
DA:200,0
DA:201,0
DA:202,0
DA:205,0
DA:228,0
DA:229,0
DA:232,0
DA:235,0
DA:236,0
DA:237,0
DA:238,0
DA:239,0
DA:240,0
DA:241,0
DA:242,0
DA:244,0
DA:245,0
DA:247,0
DA:248,0
DA:249,0
DA:250,0
DA:251,0
DA:252,0
DA:253,0
DA:255,0
DA:258,0
DA:261,0
DA:262,0
DA:263,0
DA:264,0
DA:265,0
DA:268,0
DA:270,0
DA:271,0
DA:272,0
DA:273,0
DA:274,0
DA:275,0
DA:276,0
DA:278,0
DA:280,0
DA:283,0
DA:285,0
DA:287,0
DA:288,0
DA:289,0
DA:291,0
DA:292,0
DA:293,0
DA:294,0
DA:296,0
DA:297,0
DA:298,0
DA:300,0
DA:301,0
DA:303,0
DA:304,0
DA:307,0
DA:308,0
DA:309,0
DA:310,0
DA:311,0
DA:313,0
DA:315,0
DA:316,0
DA:317,0
DA:319,0
DA:324,0
DA:326,0
DA:328,0
DA:329,0
DA:330,0
DA:332,0
DA:333,0
DA:334,0
DA:335,0
DA:336,0
DA:338,0
DA:339,0
DA:340,0
DA:342,0
DA:343,0
DA:345,0
DA:346,0
DA:348,0
DA:349,0
DA:350,0
DA:351,0
DA:352,0
DA:354,0
DA:356,0
DA:357,0
DA:358,0
DA:360,0
DA:370,0
DA:373,0
DA:374,0
DA:375,0
DA:377,0
DA:378,0
DA:379,0
DA:380,0
DA:381,0
DA:385,0
DA:387,0
DA:388,0
DA:389,0
DA:390,0
DA:391,0
DA:392,0
DA:393,0
DA:394,0
DA:399,0
DA:401,0
DA:402,0
DA:403,0
DA:404,0
DA:406,0
DA:407,0
DA:408,0
DA:409,0
DA:410,0
DA:411,0
DA:412,0
DA:413,0
DA:417,0
DA:420,0
DA:422,0
DA:424,0
DA:425,0
DA:426,0
DA:427,0
DA:429,0
DA:430,0
DA:431,0
DA:432,0
DA:434,0
DA:436,0
DA:437,0
DA:438,0
DA:440,0
DA:441,0
DA:442,0
DA:443,0
DA:445,0
DA:448,0
DA:449,0
DA:450,0
DA:451,0
DA:452,0
DA:453,0
DA:454,0
DA:458,0
LF:180
LH:0
end_of_record
TN:
SF:/home/travis/build/platisd/smartcar_shield/test/build/googletest-src/googlemock/src/gmock-spec-builders.cc
FN:69,_ZN7testing8internal15LogWithLocationENS0_11LogSeverityEPKciRKSs
FN:78,_ZN7testing8internal15ExpectationBaseC2EPKciRKSs
FN:94,_ZN7testing8internal15ExpectationBaseD2Ev
FN:94,_ZN7testing8internal15ExpectationBaseD0Ev
FN:98,_ZN7testing8internal15ExpectationBase18SpecifyCardinalityERKNS_11CardinalityE
FN:104,_ZN7testing8internal15ExpectationBase22RetireAllPreRequisitesEv
FN:131,_ZNK7testing8internal15ExpectationBase28AllPrerequisitesAreSatisfiedEv
FN:151,_ZNK7testing8internal15ExpectationBase28FindUnsatisfiedPrerequisitesEPNS_14ExpectationSetE
FN:182,_ZNK7testing8internal15ExpectationBase19DescribeCallCountToEPSo
FN:205,_ZNK7testing8internal15ExpectationBase25CheckActionCountIfNotDoneEv
FN:257,_ZN7testing8internal15ExpectationBase12UntypedTimesERKNS_11CardinalityE
FN:279,_ZN7testing8internal23ReportUninterestingCallENS0_12CallReactionERKSs
FN:304,_ZN7testing8internal25UntypedFunctionMockerBaseC2Ev
FN:307,_ZN7testing8internal25UntypedFunctionMockerBaseD0Ev
FN:307,_ZN7testing8internal25UntypedFunctionMockerBaseD2Ev
FN:313,_ZN7testing8internal25UntypedFunctionMockerBase13RegisterOwnerEPKv
FN:325,_ZN7testing8internal25UntypedFunctionMockerBase15SetOwnerAndNameEPKvPKc
FN:337,_ZNK7testing8internal25UntypedFunctionMockerBase10MockObjectEv
FN:354,_ZNK7testing8internal25UntypedFunctionMockerBase4NameEv
FN:372,_ZN7testing8internal25UntypedFunctionMockerBase17UntypedInvokeWithEPv
FN:484,_ZN7testing8internal25UntypedFunctionMockerBase11GetHandleOfEPNS0_15ExpectationBaseE
FN:504,_ZN7testing8internal25UntypedFunctionMockerBase32VerifyAndClearExpectationsLockedEv
FN:549,_ZN7testing8internal17intToCallReactionEi
FN:567,_ZN7testing12_GLOBAL__N_115MockObjectStateD2Ev
FN:568,_ZN7testing12_GLOBAL__N_115MockObjectStateC2Ev
FN:585,_ZN7testing12_GLOBAL__N_118MockObjectRegistryC2Ev
FN:594,_ZN7testing12_GLOBAL__N_118MockObjectRegistryD2Ev
FN:639,_ZN7testing12_GLOBAL__N_118MockObjectRegistry6statesEv
FN:654,_ZN7testing12_GLOBAL__N_131SetReactionOnUninterestingCallsEPKvNS_8internal12CallReactionE
FN:665,_ZN7testing4Mock23AllowUninterestingCallsEPKv
FN:672,_ZN7testing4Mock22WarnUninterestingCallsEPKv
FN:679,_ZN7testing4Mock22FailUninterestingCallsEPKv
FN:686,_ZN7testing4Mock22UnregisterCallReactionEPKv
FN:694,_ZN7testing4Mock31GetReactionOnUninterestingCallsEPKv
FN:705,_ZN7testing4Mock9AllowLeakEPKv
FN:714,_ZN7testing4Mock26VerifyAndClearExpectationsEPv
FN:723,_ZN7testing4Mock14VerifyAndClearEPv
FN:733,_ZN7testing4Mock32VerifyAndClearExpectationsLockedEPv
FN:758,_ZN7testing4Mock7IsNaggyEPv
FN:762,_ZN7testing4Mock6IsNiceEPv
FN:766,_ZN7testing4Mock8IsStrictEPv
FN:772,_ZN7testing4Mock8RegisterEPKvPNS_8internal25UntypedFunctionMockerBaseE
FN:782,_ZN7testing4Mock31RegisterUseByOnCallOrExpectCallEPKvPKci
FN:803,_ZN7testing4Mock16UnregisterLockedEPNS_8internal25UntypedFunctionMockerBaseE
FN:821,_ZN7testing4Mock25ClearDefaultActionsLockedEPv
FN:843,_ZN7testing11ExpectationC2Ev
FN:845,_ZN7testing11ExpectationC2ERKSt10shared_ptrINS_8internal15ExpectationBaseEE
FN:849,_ZN7testing11ExpectationD2Ev
FN:852,_ZNK7testing8Sequence14AddExpectationERKNS_11ExpectationE
FN:863,_ZN7testing10InSequenceC2Ev
FN:874,_ZN7testing10InSequenceD2Ev
FNDA:89950,_ZN7testing4Mock16UnregisterLockedEPNS_8internal25UntypedFunctionMockerBaseE
FNDA:20965,_ZN7testing8internal15ExpectationBaseD2Ev
FNDA:248045,_ZNK7testing8internal25UntypedFunctionMockerBase10MockObjectEv
FNDA:23730,_ZN7testing8internal15LogWithLocationENS0_11LogSeverityEPKciRKSs
FNDA:0,_ZN7testing4Mock25ClearDefaultActionsLockedEPv
FNDA:9100,_ZN7testing12_GLOBAL__N_131SetReactionOnUninterestingCallsEPKvNS_8internal12CallReactionE
FNDA:224315,_ZNK7testing8internal25UntypedFunctionMockerBase4NameEv
FNDA:0,_ZN7testing4Mock7IsNaggyEPv
FNDA:420,_ZN7testing10InSequenceC2Ev
FNDA:175,_ZN7testing8internal25UntypedFunctionMockerBase11GetHandleOfEPNS0_15ExpectationBaseE
FNDA:8400,_ZN7testing4Mock23AllowUninterestingCallsEPKv
FNDA:6825,_ZN7testing12_GLOBAL__N_115MockObjectStateC2Ev
FNDA:0,_ZN7testing4Mock32VerifyAndClearExpectationsLockedEPv
FNDA:0,_ZN7testing4Mock8IsStrictEPv
FNDA:0,_ZN7testing8internal25UntypedFunctionMockerBaseD0Ev
FNDA:311220,_ZN7testing12_GLOBAL__N_118MockObjectRegistry6statesEv
FNDA:23730,_ZN7testing8internal25UntypedFunctionMockerBase13RegisterOwnerEPKv
FNDA:1750,_ZN7testing11ExpectationC2ERKSt10shared_ptrINS_8internal15ExpectationBaseEE
FNDA:490,_ZN7testing11ExpectationC2Ev
FNDA:324205,_ZN7testing8internal25UntypedFunctionMockerBase15SetOwnerAndNameEPKvPKc
FNDA:224315,_ZN7testing4Mock31GetReactionOnUninterestingCallsEPKv
FNDA:1750,_ZNK7testing8Sequence14AddExpectationERKNS_11ExpectationE
FNDA:23730,_ZN7testing4Mock8RegisterEPKvPNS_8internal25UntypedFunctionMockerBaseE
FNDA:112,_ZN7testing12_GLOBAL__N_118MockObjectRegistryD2Ev
FNDA:0,_ZN7testing4Mock9AllowLeakEPKv
FNDA:0,_ZN7testing4Mock26VerifyAndClearExpectationsEPv
FNDA:112,_ZN7testing12_GLOBAL__N_118MockObjectRegistryC2Ev
FNDA:103775,_ZNK7testing8internal15ExpectationBase28AllPrerequisitesAreSatisfiedEv
FNDA:0,_ZN7testing8internal15ExpectationBaseD0Ev
FNDA:700,_ZN7testing4Mock22FailUninterestingCallsEPKv
FNDA:125195,_ZNK7testing8internal15ExpectationBase25CheckActionCountIfNotDoneEv
FNDA:3500,_ZN7testing11ExpectationD2Ev
FNDA:89950,_ZN7testing8internal25UntypedFunctionMockerBase32VerifyAndClearExpectationsLockedEv
FNDA:0,_ZN7testing4Mock14VerifyAndClearEPv
FNDA:20965,_ZN7testing8internal15ExpectationBaseC2EPKciRKSs
FNDA:99890,_ZN7testing8internal15ExpectationBase22RetireAllPreRequisitesEv
FNDA:89950,_ZN7testing8internal25UntypedFunctionMockerBaseD2Ev
FNDA:2800,_ZN7testing8internal15ExpectationBase12UntypedTimesERKNS_11CardinalityE
FNDA:420,_ZN7testing10InSequenceD2Ev
FNDA:23730,_ZN7testing4Mock31RegisterUseByOnCallOrExpectCallEPKvPKci
FNDA:0,_ZNK7testing8internal15ExpectationBase28FindUnsatisfiedPrerequisitesEPNS_14ExpectationSetE
FNDA:210,_ZN7testing8internal23ReportUninterestingCallENS0_12CallReactionERKSs
FNDA:9100,_ZN7testing4Mock22UnregisterCallReactionEPKv
FNDA:0,_ZN7testing4Mock6IsNiceEPv
FNDA:0,_ZN7testing4Mock22WarnUninterestingCallsEPKv
FNDA:210,_ZN7testing8internal17intToCallReactionEi
FNDA:324205,_ZN7testing8internal25UntypedFunctionMockerBase17UntypedInvokeWithEPv
FNDA:2800,_ZN7testing8internal15ExpectationBase18SpecifyCardinalityERKNS_11CardinalityE
FNDA:89950,_ZN7testing8internal25UntypedFunctionMockerBaseC2Ev
FNDA:6825,_ZN7testing12_GLOBAL__N_115MockObjectStateD2Ev
FNDA:0,_ZNK7testing8internal15ExpectationBase19DescribeCallCountToEPSo
FNF:51
FNH:38
DA:69,23730
DA:72,47460
DA:73,23730
DA:74,23730
DA:75,23730
DA:78,20965
DA:91,20965
DA:94,20965
DA:98,2800
DA:99,2800
DA:100,2800
DA:101,2800
DA:104,99890
DA:106,99890
DA:109,0
DA:112,199780
DA:113,302190
DA:114,101150
DA:115,101150
DA:117,208390
DA:118,101150
DA:119,206360
DA:120,2030
DA:121,2030
DA:122,1260
DA:123,1260
DA:131,103775
DA:133,103775
DA:134,207550
DA:135,313845
DA:136,106995
DA:137,106995
DA:139,223650
DA:140,106995
DA:141,220430
DA:142,5180
DA:143,5180
DA:144,3220
DA:147,101815
DA:151,0
DA:153,0
DA:154,0
DA:155,0
DA:156,0
DA:157,0
DA:159,0
DA:160,0
DA:161,0
DA:162,0
DA:164,0
DA:167,0
DA:168,0
DA:174,0
DA:178,0
DA:182,0
DA:184,0
DA:187,0
DA:188,0
DA:189,0
DA:190,0
DA:194,0
DA:195,0
DA:196,0
DA:197,0
DA:198,0
DA:199,0
DA:205,125195
DA:207,125195
DA:209,250390
DA:210,125195
DA:211,20965
DA:212,20965
DA:216,125195
DA:217,20965
DA:220,39130
DA:224,2800
DA:225,2800
DA:226,2800
DA:229,2800
DA:230,1575
DA:231,0
DA:232,2800
DA:233,0
DA:234,0
DA:236,2800
DA:239,0
DA:240,0
DA:241,0
DA:242,0
DA:243,0
DA:244,0
DA:245,0
DA:246,0
DA:247,0
DA:248,0
DA:249,0
DA:251,0
DA:252,0
DA:257,2800
DA:258,2800
DA:259,0
DA:261,0
DA:263,5600
DA:266,2800
DA:268,2800
DA:270,2800
DA:271,2800
DA:275,112
DA:279,210
DA:282,210
DA:283,210
DA:285,0
DA:286,0
DA:289,420
DA:297,210
DA:298,210
DA:300,0
DA:302,210
DA:304,89950
DA:305,89950
DA:307,89950
DA:313,23730
DA:316,47460
DA:317,23730
DA:319,23730
DA:320,23730
DA:325,324205
DA:330,648410
DA:331,324205
DA:332,324205
DA:333,324205
DA:337,248045
DA:343,496090
DA:344,496090
DA:346,248045
DA:347,248045
DA:349,248045
DA:354,224315
DA:360,448630
DA:361,448630
DA:363,224315
DA:364,224315
DA:366,224315
DA:372,324205
DA:376,324205
DA:385,224315
DA:401,224315
DA:403,224315
DA:406,224105
DA:410,420
DA:411,210
DA:415,210
DA:418,210
DA:420,210
DA:421,210
DA:424,99890
DA:425,199780
DA:426,199780
DA:427,199780
DA:428,99890
DA:435,99890
DA:436,99890
DA:442,99890
DA:443,99890
DA:445,99890
DA:446,115150
DA:447,199780
DA:450,0
DA:451,0
DA:455,0
DA:456,0
DA:460,0
DA:461,0
DA:462,0
DA:463,0
DA:464,0
DA:466,0
DA:468,0
DA:469,0
DA:471,0
DA:472,0
DA:476,0
DA:479,0
DA:484,175
DA:487,770
DA:488,175
DA:489,630
DA:490,315
DA:491,175
DA:495,0
DA:496,0
DA:504,89950
DA:506,89950
DA:507,89950
DA:508,242795
DA:509,89950
DA:510,221830
DA:511,20965
DA:512,20965
DA:516,0
DA:517,20965
DA:518,0
DA:519,0
DA:520,0
DA:521,0
DA:525,0
DA:526,0
DA:527,0
DA:528,0
DA:539,179900
DA:540,89950
DA:542,89950
DA:543,89950
DA:544,89950
DA:546,179900
DA:549,210
DA:550,210
DA:551,210
DA:553,0
DA:567,6825
DA:568,6825
DA:569,6825
DA:585,112
DA:594,224
DA:595,112
DA:596,0
DA:598,112
DA:599,112
DA:601,0
DA:602,0
DA:606,0
DA:607,0
DA:608,0
DA:609,0
DA:610,0
DA:611,0
DA:612,0
DA:613,0
DA:615,0
DA:616,0
DA:617,0
DA:619,112
DA:620,0
DA:621,0
DA:628,0
DA:629,0
DA:630,0
DA:634,0
DA:637,112
DA:639,311220
DA:646,112
DA:650,112
DA:654,9100
DA:657,18200
DA:658,9100
DA:659,9100
DA:665,8400
DA:667,8400
DA:668,8400
DA:672,0
DA:674,0
DA:675,0
DA:679,700
DA:681,700
DA:682,700
DA:686,9100
DA:688,18200
DA:689,9100
DA:690,9100
DA:694,224315
DA:697,448630
DA:698,224315
DA:699,210
DA:700,448840
DA:705,0
DA:707,0
DA:708,0
DA:709,0
DA:714,0
DA:716,0
DA:717,0
DA:723,0
DA:725,0
DA:726,0
DA:727,0
DA:733,0
DA:735,0
DA:736,0
DA:738,0
DA:743,0
DA:745,0
DA:746,0
DA:747,0
DA:748,0
DA:749,0
DA:755,0
DA:758,0
DA:760,0
DA:762,0
DA:764,0
DA:766,0
DA:768,0
DA:772,23730
DA:775,47460
DA:776,23730
DA:777,23730
DA:782,23730
DA:785,47460
DA:786,23730
DA:787,23730
DA:788,6825
DA:789,6825
DA:791,6825
DA:792,6825
DA:793,6825
DA:794,6825
DA:797,23730
DA:803,89950
DA:805,89950
DA:806,411005
DA:807,89950
DA:808,333970
DA:809,87360
DA:810,87360
DA:812,10325
DA:813,6825
DA:815,20650
DA:821,0
DA:823,0
DA:825,0
DA:827,0
DA:833,0
DA:834,0
DA:835,0
DA:836,0
DA:843,490
DA:845,1750
DA:847,1750
DA:849,3500
DA:852,1750
DA:853,1750
DA:854,1750
DA:855,1260
DA:856,2520
DA:858,1750
DA:860,1750
DA:863,420
DA:864,420
DA:865,420
DA:866,420
DA:868,0
DA:870,420
DA:874,840
DA:875,420
DA:876,420
DA:877,420
DA:879,420
LF:357
LH:220
end_of_record
TN:
SF:/home/travis/build/platisd/smartcar_shield/test/build/googletest-src/googlemock/src/gmock.cc
FN:40,_Z41__static_initialization_and_destruction_0ii
FN:61,_ZN7testing8internalL24ParseGoogleMockFlagValueEPKcS2_b
FN:94,_ZN7testing8internalL23ParseGoogleMockBoolFlagEPKcS2_Pb
FN:113,_ZN7testing8internalL25ParseGoogleMockStringFlagISsEEbPKcS3_PT_
FN:126,_ZN7testing8internalL22ParseGoogleMockIntFlagEPKcS2_Pi
FN:144,_ZN7testing8internal18InitGoogleMockImplIwEEvPiPPT_
FN:144,_ZN7testing8internal18InitGoogleMockImplIcEEvPiPPT_
FN:191,_ZN7testing14InitGoogleMockEPiPPc
FN:197,_ZN7testing14InitGoogleMockEPiPPw
FN:201,_GLOBAL__sub_I__ZN7testing11Cardinality25DescribeActualCallCountToEiPSo
FNDA:112,_ZN7testing8internal18InitGoogleMockImplIcEEvPiPPT_
FNDA:0,_ZN7testing8internalL25ParseGoogleMockStringFlagISsEEbPKcS3_PT_
FNDA:0,_ZN7testing14InitGoogleMockEPiPPw
FNDA:0,_ZN7testing8internalL23ParseGoogleMockBoolFlagEPKcS2_Pb
FNDA:0,_ZN7testing8internalL24ParseGoogleMockFlagValueEPKcS2_b
FNDA:112,_Z41__static_initialization_and_destruction_0ii
FNDA:0,_ZN7testing8internalL22ParseGoogleMockIntFlagEPKcS2_Pi
FNDA:112,_GLOBAL__sub_I__ZN7testing11Cardinality25DescribeActualCallCountToEiPSo
FNDA:0,_ZN7testing8internal18InitGoogleMockImplIwEEvPiPPT_
FNDA:112,_ZN7testing14InitGoogleMockEPiPPc
FNF:10
FNH:4
DA:40,112
DA:61,0
DA:65,0
DA:68,0
DA:69,0
DA:70,0
DA:73,0
DA:76,0
DA:77,0
DA:83,0
DA:86,0
DA:94,0
DA:97,0
DA:100,0
DA:103,0
DA:104,0
DA:113,0
DA:116,0
DA:119,0
DA:122,0
DA:123,0
DA:126,0
DA:129,0
DA:132,0
DA:135,0
DA:136,0
DA:144,112
DA:147,112
DA:148,112
DA:150,112
DA:151,0
DA:152,0
DA:155,0
DA:157,0
DA:158,0
DA:164,0
DA:165,0
DA:169,0
DA:173,0
DA:191,112
DA:192,112
DA:193,112
DA:197,0
DA:198,0
DA:199,0
DA:201,336
LF:46
LH:9
end_of_record
TN:
SF:/home/travis/build/platisd/smartcar_shield/test/build/googletest-src/googlemock/src/gmock_main.cc
FN:62,main
FN:70,_GLOBAL__sub_I_main
FN:70,_Z41__static_initialization_and_destruction_0ii
FNDA:112,_GLOBAL__sub_I_main
FNDA:112,main
FNDA:112,_Z41__static_initialization_and_destruction_0ii
FNF:3
FNH:3
DA:62,112
DA:64,112
DA:68,112
DA:69,112
DA:70,336
LF:5
LH:5
end_of_record
TN:
SF:/home/travis/build/platisd/smartcar_shield/test/build/googletest-src/googletest/include/gtest/gtest-matchers.h
FN:77,_ZN7testing19MatchResultListenerC2EPSo
FN:83,_ZN7testing19MatchResultListenerlsIA5_cEERS0_RKT_
FN:83,_ZN7testing19MatchResultListenerlsIA30_cEERS0_RKT_
FN:83,_ZN7testing19MatchResultListenerlsIA25_cEERS0_RKT_
FN:83,_ZN7testing19MatchResultListenerlsIA3_cEERS0_RKT_
FN:83,_ZN7testing19MatchResultListenerlsIA13_cEERS0_RKT_
FN:83,_ZN7testing19MatchResultListenerlsIA10_cEERS0_RKT_
FN:83,_ZN7testing19MatchResultListenerlsImEERS0_RKT_
FN:83,_ZN7testing19MatchResultListenerlsIA65_cEERS0_RKT_
FN:83,_ZN7testing19MatchResultListenerlsISsEERS0_RKT_
FN:83,_ZN7testing19MatchResultListenerlsIPKcEERS0_RKT_
FN:83,_ZN7testing19MatchResultListenerlsIA89_cEERS0_RKT_
FN:89,_ZN7testing19MatchResultListener6streamEv
FN:95,_ZNK7testing19MatchResultListener12IsInterestedEv
FN:103,_ZN7testing19MatchResultListenerD2Ev
FN:103,_ZN7testing19MatchResultListenerD0Ev
FN:108,_ZN7testing25MatcherDescriberInterfaceC2Ev
FN:110,_ZN7testing25MatcherDescriberInterfaceD2Ev
FN:110,_ZN7testing25MatcherDescriberInterfaceD0Ev
FN:125,_ZNK7testing25MatcherDescriberInterface18DescribeNegationToEPSo
FN:134,_ZN7testing16MatcherInterfaceIRKSt5tupleIJiEEED2Ev
FN:134,_ZN7testing16MatcherInterfaceIRKSt5tupleIJhhmEEEC2Ev
FN:134,_ZN7testing16MatcherInterfaceIRKhED0Ev
FN:134,_ZN7testing16MatcherInterfaceIRKSt5tupleIJhhEEEC2Ev
FN:134,_ZN7testing16MatcherInterfaceIRKSsED0Ev
FN:134,_ZN7testing16MatcherInterfaceIRKSt5tupleIJiiEEEC2Ev
FN:134,_ZN7testing16MatcherInterfaceIRKmED0Ev
FN:134,_ZN7testing16MatcherInterfaceIRKiEC2Ev
FN:134,_ZN7testing16MatcherInterfaceIRKSt5tupleIJhiiEEEC2Ev
FN:134,_ZN7testing16MatcherInterfaceIRKSt5tupleIJEEED0Ev
FN:134,_ZN7testing16MatcherInterfaceIRKjED2Ev
FN:134,_ZN7testing16MatcherInterfaceIRKmED2Ev
FN:134,_ZN7testing16MatcherInterfaceIRKSt5tupleIJhhmEEED2Ev
FN:134,_ZN7testing16MatcherInterfaceIRKSt5tupleIJEEEC2Ev
FN:134,_ZN7testing16MatcherInterfaceIRKSt5tupleIJhPFvvEiEEED2Ev
FN:134,_ZN7testing16MatcherInterfaceIRKhED2Ev
FN:134,_ZN7testing16MatcherInterfaceIRKSt5tupleIJmEEED0Ev
FN:134,_ZN7testing16MatcherInterfaceIRKSt5tupleIJhEEEC2Ev
FN:134,_ZN7testing16MatcherInterfaceIRKSt5tupleIJhEEED0Ev
FN:134,_ZN7testing16MatcherInterfaceIRKSt5tupleIJiEEED0Ev
FN:134,_ZN7testing16MatcherInterfaceIRKSt5tupleIJiiEEED0Ev
FN:134,_ZN7testing16MatcherInterfaceIRKiED2Ev
FN:134,_ZN7testing16MatcherInterfaceIRKjEC2Ev
FN:134,_ZN7testing16MatcherInterfaceIRKSt5tupleIJhPFvvEiEEEC2Ev
FN:134,_ZN7testing16MatcherInterfaceIRKSt5tupleIJEEED2Ev
FN:134,_ZN7testing16MatcherInterfaceIRKSsEC2Ev
FN:134,_ZN7testing16MatcherInterfaceIRKSt5tupleIJhEEED2Ev
FN:134,_ZN7testing16MatcherInterfaceIRKPFvvEED0Ev
FN:134,_ZN7testing16MatcherInterfaceIRKSt5tupleIJmEEEC2Ev
FN:134,_ZN7testing16MatcherInterfaceIRKSt5tupleIJiEEEC2Ev
FN:134,_ZN7testing16MatcherInterfaceIRKSt5tupleIJhhmEEED0Ev
FN:134,_ZN7testing16MatcherInterfaceIRKSt5tupleIJhiEEED0Ev
FN:134,_ZN7testing16MatcherInterfaceIRKSt5tupleIJjEEED2Ev
FN:134,_ZN7testing16MatcherInterfaceIRKSt5tupleIJhPFvvEiEEED0Ev
FN:134,_ZN7testing16MatcherInterfaceIRKSt5tupleIJhiiEEED0Ev
FN:134,_ZN7testing16MatcherInterfaceIRKSt5tupleIJmEEED2Ev
FN:134,_ZN7testing16MatcherInterfaceIRKiED0Ev
FN:134,_ZN7testing16MatcherInterfaceIRKmEC2Ev
FN:134,_ZN7testing16MatcherInterfaceIRKjED0Ev
FN:134,_ZN7testing16MatcherInterfaceIRKSt5tupleIJhiEEED2Ev
FN:134,_ZN7testing16MatcherInterfaceIRKSt5tupleIJhhEEED2Ev
FN:134,_ZN7testing16MatcherInterfaceIRKPFvvEEC2Ev
FN:134,_ZN7testing16MatcherInterfaceIRKSt5tupleIJjEEED0Ev
FN:134,_ZN7testing16MatcherInterfaceIRKSt5tupleIJhhEEED0Ev
FN:134,_ZN7testing16MatcherInterfaceIRKSt5tupleIJiiEEED2Ev
FN:134,_ZN7testing16MatcherInterfaceIRKhEC2Ev
FN:134,_ZN7testing16MatcherInterfaceIRKSsED2Ev
FN:134,_ZN7testing16MatcherInterfaceIRKSt5tupleIJjEEEC2Ev
FN:134,_ZN7testing16MatcherInterfaceIRKPFvvEED2Ev
FN:134,_ZN7testing16MatcherInterfaceIRKSt5tupleIJhiEEEC2Ev
FN:134,_ZN7testing16MatcherInterfaceIRKSt5tupleIJhiiEEED2Ev
FN:203,_ZNK7testing8internal5AnyEqclIhhEEbRKT_RKT0_
FN:203,_ZNK7testing8internal5AnyEqclIiiEEbRKT_RKT0_
FN:203,_ZNK7testing8internal5AnyEqclIjjEEbRKT_RKT0_
FN:203,_ZNK7testing8internal5AnyEqclISsSsEEbRKT_RKT0_
FN:203,_ZNK7testing8internal5AnyEqclImmEEbRKT_RKT0_
FN:227,_ZN7testing8internal24DummyMatchResultListenerD2Ev
FN:227,_ZN7testing8internal24DummyMatchResultListenerD0Ev
FN:229,_ZN7testing8internal24DummyMatchResultListenerC2Ev
FN:251,_ZN7testing8internal11MatcherBaseImEaSEOS2_
FN:251,_ZN7testing8internal11MatcherBaseIiEaSEOS2_
FN:251,_ZN7testing8internal11MatcherBaseISsEaSEOS2_
FN:251,_ZN7testing8internal11MatcherBaseIjEaSEOS2_
FN:251,_ZN7testing8internal11MatcherBaseIRKSsEaSEOS4_
FN:251,_ZN7testing8internal11MatcherBaseIhEaSEOS2_
FN:255,_ZNK7testing8internal11MatcherBaseIiE15MatchAndExplainERKiPNS_19MatchResultListenerE
FN:255,_ZNK7testing8internal11MatcherBaseIRKSsE15MatchAndExplainES3_PNS_19MatchResultListenerE
FN:255,_ZNK7testing8internal11MatcherBaseIRKSt5tupleIJhiEEE15MatchAndExplainES5_PNS_19MatchResultListenerE
FN:255,_ZNK7testing8internal11MatcherBaseIRKSt5tupleIJhEEE15MatchAndExplainES5_PNS_19MatchResultListenerE
FN:255,_ZNK7testing8internal11MatcherBaseIRKSt5tupleIJmEEE15MatchAndExplainES5_PNS_19MatchResultListenerE
FN:255,_ZNK7testing8internal11MatcherBaseIRKSt5tupleIJhhEEE15MatchAndExplainES5_PNS_19MatchResultListenerE
FN:255,_ZNK7testing8internal11MatcherBaseImE15MatchAndExplainERKmPNS_19MatchResultListenerE
FN:255,_ZNK7testing8internal11MatcherBaseIRKSt5tupleIJhPFvvEiEEE15MatchAndExplainES7_PNS_19MatchResultListenerE
FN:255,_ZNK7testing8internal11MatcherBaseIRKSt5tupleIJiiEEE15MatchAndExplainES5_PNS_19MatchResultListenerE
FN:255,_ZNK7testing8internal11MatcherBaseIRKSt5tupleIJhhmEEE15MatchAndExplainES5_PNS_19MatchResultListenerE
FN:255,_ZNK7testing8internal11MatcherBaseIhE15MatchAndExplainERKhPNS_19MatchResultListenerE
FN:255,_ZNK7testing8internal11MatcherBaseIjE15MatchAndExplainERKjPNS_19MatchResultListenerE
FN:255,_ZNK7testing8internal11MatcherBaseIRKSt5tupleIJhiiEEE15MatchAndExplainES5_PNS_19MatchResultListenerE
FN:255,_ZNK7testing8internal11MatcherBaseIPFvvEE15MatchAndExplainERKS3_PNS_19MatchResultListenerE
FN:255,_ZNK7testing8internal11MatcherBaseIRKSt5tupleIJiEEE15MatchAndExplainES5_PNS_19MatchResultListenerE
FN:255,_ZNK7testing8internal11MatcherBaseIRKSt5tupleIJjEEE15MatchAndExplainES5_PNS_19MatchResultListenerE
FN:255,_ZNK7testing8internal11MatcherBaseIRKSt5tupleIJEEE15MatchAndExplainES5_PNS_19MatchResultListenerE
FN:260,_ZNK7testing8internal11MatcherBaseIRKSt5tupleIJiEEE7MatchesES5_
FN:260,_ZNK7testing8internal11MatcherBaseIRKSt5tupleIJhEEE7MatchesES5_
FN:260,_ZNK7testing8internal11MatcherBaseIiE7MatchesERKi
FN:260,_ZNK7testing8internal11MatcherBaseIRKSt5tupleIJhhEEE7MatchesES5_
FN:260,_ZNK7testing8internal11MatcherBaseIjE7MatchesERKj
FN:260,_ZNK7testing8internal11MatcherBaseIRKSt5tupleIJhiiEEE7MatchesES5_
FN:260,_ZNK7testing8internal11MatcherBaseIRKSt5tupleIJEEE7MatchesES5_
FN:260,_ZNK7testing8internal11MatcherBaseIRKSt5tupleIJjEEE7MatchesES5_
FN:260,_ZNK7testing8internal11MatcherBaseIRKSt5tupleIJiiEEE7MatchesES5_
FN:260,_ZNK7testing8internal11MatcherBaseIRKSsE7MatchesES3_
FN:260,_ZNK7testing8internal11MatcherBaseIhE7MatchesERKh
FN:260,_ZNK7testing8internal11MatcherBaseIRKSt5tupleIJmEEE7MatchesES5_
FN:260,_ZNK7testing8internal11MatcherBaseIRKSt5tupleIJhPFvvEiEEE7MatchesES7_
FN:260,_ZNK7testing8internal11MatcherBaseImE7MatchesERKm
FN:260,_ZNK7testing8internal11MatcherBaseIPFvvEE7MatchesERKS3_
FN:260,_ZNK7testing8internal11MatcherBaseIRKSt5tupleIJhhmEEE7MatchesES5_
FN:260,_ZNK7testing8internal11MatcherBaseIRKSt5tupleIJhiEEE7MatchesES5_
FN:266,_ZNK7testing8internal11MatcherBaseIRKSt5tupleIJhhmEEE10DescribeToEPSo
FN:266,_ZNK7testing8internal11MatcherBaseIiE10DescribeToEPSo
FN:266,_ZNK7testing8internal11MatcherBaseIhE10DescribeToEPSo
FN:266,_ZNK7testing8internal11MatcherBaseIRKSt5tupleIJEEE10DescribeToEPSo
FN:266,_ZNK7testing8internal11MatcherBaseIRKSt5tupleIJhiiEEE10DescribeToEPSo
FN:266,_ZNK7testing8internal11MatcherBaseIRKSt5tupleIJhPFvvEiEEE10DescribeToEPSo
FN:266,_ZNK7testing8internal11MatcherBaseIRKSt5tupleIJhhEEE10DescribeToEPSo
FN:266,_ZNK7testing8internal11MatcherBaseIRKSt5tupleIJhiEEE10DescribeToEPSo
FN:266,_ZNK7testing8internal11MatcherBaseIRKSt5tupleIJiiEEE10DescribeToEPSo
FN:266,_ZNK7testing8internal11MatcherBaseIRKSt5tupleIJjEEE10DescribeToEPSo
FN:266,_ZNK7testing8internal11MatcherBaseImE10DescribeToEPSo
FN:266,_ZNK7testing8internal11MatcherBaseIRKSt5tupleIJmEEE10DescribeToEPSo
FN:266,_ZNK7testing8internal11MatcherBaseIRKSsE10DescribeToEPSo
FN:266,_ZNK7testing8internal11MatcherBaseIPFvvEE10DescribeToEPSo
FN:266,_ZNK7testing8internal11MatcherBaseIjE10DescribeToEPSo
FN:266,_ZNK7testing8internal11MatcherBaseIRKSt5tupleIJhEEE10DescribeToEPSo
FN:266,_ZNK7testing8internal11MatcherBaseIRKSt5tupleIJiEEE10DescribeToEPSo
FN:287,_ZN7testing8internal11MatcherBaseIiEC2Ev
FN:287,_ZN7testing8internal11MatcherBaseIjEC2Ev
FN:287,_ZN7testing8internal11MatcherBaseIRKSsEC2Ev
FN:287,_ZN7testing8internal11MatcherBaseImEC2Ev
FN:287,_ZN7testing8internal11MatcherBaseISsEC2Ev
FN:287,_ZN7testing8internal11MatcherBaseIhEC2Ev
FN:290,_ZN7testing8internal11MatcherBaseISsEC2EPKNS_16MatcherInterfaceIRKSsEE
FN:290,_ZN7testing8internal11MatcherBaseIPFvvEEC2EPKNS_16MatcherInterfaceIRKS3_EE
FN:290,_ZN7testing8internal11MatcherBaseIhEC2EPKNS_16MatcherInterfaceIRKhEE
FN:290,_ZN7testing8internal11MatcherBaseIjEC2EPKNS_16MatcherInterfaceIRKjEE
FN:290,_ZN7testing8internal11MatcherBaseIRKSt5tupleIJhhEEEC2EPKNS_16MatcherInterfaceIS5_EE
FN:290,_ZN7testing8internal11MatcherBaseIRKSsEC2EPKNS_16MatcherInterfaceIS3_EE
FN:290,_ZN7testing8internal11MatcherBaseIRKSt5tupleIJhhmEEEC2EPKNS_16MatcherInterfaceIS5_EE
FN:290,_ZN7testing8internal11MatcherBaseIRKSt5tupleIJjEEEC2EPKNS_16MatcherInterfaceIS5_EE
FN:290,_ZN7testing8internal11MatcherBaseIRKSt5tupleIJiEEEC2EPKNS_16MatcherInterfaceIS5_EE
FN:290,_ZN7testing8internal11MatcherBaseIRKSt5tupleIJEEEC2EPKNS_16MatcherInterfaceIS5_EE
FN:290,_ZN7testing8internal11MatcherBaseIRKSt5tupleIJhiiEEEC2EPKNS_16MatcherInterfaceIS5_EE
FN:290,_ZN7testing8internal11MatcherBaseIRKSt5tupleIJiiEEEC2EPKNS_16MatcherInterfaceIS5_EE
FN:290,_ZN7testing8internal11MatcherBaseIRKSt5tupleIJhPFvvEiEEEC2EPKNS_16MatcherInterfaceIS7_EE
FN:290,_ZN7testing8internal11MatcherBaseIiEC2EPKNS_16MatcherInterfaceIRKiEE
FN:290,_ZN7testing8internal11MatcherBaseIRKSt5tupleIJhEEEC2EPKNS_16MatcherInterfaceIS5_EE
FN:290,_ZN7testing8internal11MatcherBaseIRKSt5tupleIJmEEEC2EPKNS_16MatcherInterfaceIS5_EE
FN:290,_ZN7testing8internal11MatcherBaseImEC2EPKNS_16MatcherInterfaceIRKmEE
FN:290,_ZN7testing8internal11MatcherBaseIRKSt5tupleIJhiEEEC2EPKNS_16MatcherInterfaceIS5_EE
FN:299,_ZN7testing8internal11MatcherBaseIiEC2ERKS2_
FN:299,_ZN7testing8internal11MatcherBaseIPFvvEEC2ERKS4_
FN:299,_ZN7testing8internal11MatcherBaseImEC2ERKS2_
FN:299,_ZN7testing8internal11MatcherBaseIjEC2ERKS2_
FN:299,_ZN7testing8internal11MatcherBaseIhEC2ERKS2_
FN:301,_ZN7testing8internal11MatcherBaseIjEC2EOS2_
FN:301,_ZN7testing8internal11MatcherBaseImEC2EOS2_
FN:301,_ZN7testing8internal11MatcherBaseIPFvvEEC2EOS4_
FN:301,_ZN7testing8internal11MatcherBaseIhEC2EOS2_
FN:301,_ZN7testing8internal11MatcherBaseIiEC2EOS2_
FN:301,_ZN7testing8internal11MatcherBaseIRKSsEC2EOS4_
FN:304,_ZN7testing8internal11MatcherBaseIRKSt5tupleIJhEEED0Ev
FN:304,_ZN7testing8internal11MatcherBaseIRKSt5tupleIJiiEEED2Ev
FN:304,_ZN7testing8internal11MatcherBaseIRKSsED0Ev
FN:304,_ZN7testing8internal11MatcherBaseIRKSt5tupleIJhhEEED2Ev
FN:304,_ZN7testing8internal11MatcherBaseIRKSt5tupleIJhEEED2Ev
FN:304,_ZN7testing8internal11MatcherBaseISsED0Ev
FN:304,_ZN7testing8internal11MatcherBaseIRKSt5tupleIJEEED2Ev
FN:304,_ZN7testing8internal11MatcherBaseIRKSt5tupleIJhiiEEED0Ev
FN:304,_ZN7testing8internal11MatcherBaseIiED2Ev
FN:304,_ZN7testing8internal11MatcherBaseIRKSt5tupleIJhPFvvEiEEED0Ev
FN:304,_ZN7testing8internal11MatcherBaseIRKSt5tupleIJjEEED2Ev
FN:304,_ZN7testing8internal11MatcherBaseIRKSt5tupleIJhhmEEED2Ev
FN:304,_ZN7testing8internal11MatcherBaseIRKSt5tupleIJhiEEED2Ev
FN:304,_ZN7testing8internal11MatcherBaseIRKSt5tupleIJiEEED2Ev
FN:304,_ZN7testing8internal11MatcherBaseIRKSt5tupleIJEEED0Ev
FN:304,_ZN7testing8internal11MatcherBaseIPFvvEED0Ev
FN:304,_ZN7testing8internal11MatcherBaseIhED0Ev
FN:304,_ZN7testing8internal11MatcherBaseIiED0Ev
FN:304,_ZN7testing8internal11MatcherBaseIRKSt5tupleIJjEEED0Ev
FN:304,_ZN7testing8internal11MatcherBaseIRKSt5tupleIJhPFvvEiEEED2Ev
FN:304,_ZN7testing8internal11MatcherBaseImED2Ev
FN:304,_ZN7testing8internal11MatcherBaseIRKSt5tupleIJhhmEEED0Ev
FN:304,_ZN7testing8internal11MatcherBaseIRKSt5tupleIJhhEEED0Ev
FN:304,_ZN7testing8internal11MatcherBaseIPFvvEED2Ev
FN:304,_ZN7testing8internal11MatcherBaseIRKSsED2Ev
FN:304,_ZN7testing8internal11MatcherBaseIRKSt5tupleIJhiiEEED2Ev
FN:304,_ZN7testing8internal11MatcherBaseImED0Ev
FN:304,_ZN7testing8internal11MatcherBaseIRKSt5tupleIJiiEEED0Ev
FN:304,_ZN7testing8internal11MatcherBaseIjED2Ev
FN:304,_ZN7testing8internal11MatcherBaseIhED2Ev
FN:304,_ZN7testing8internal11MatcherBaseIRKSt5tupleIJmEEED2Ev
FN:304,_ZN7testing8internal11MatcherBaseIRKSt5tupleIJmEEED0Ev
FN:304,_ZN7testing8internal11MatcherBaseISsED2Ev
FN:304,_ZN7testing8internal11MatcherBaseIRKSt5tupleIJhiEEED0Ev
FN:304,_ZN7testing8internal11MatcherBaseIjED0Ev
FN:304,_ZN7testing8internal11MatcherBaseIRKSt5tupleIJiEEED0Ev
FN:317,_ZN7testing7MatcherIRKSt5tupleIJhPFvvEiEEED2Ev
FN:317,_ZN7testing7MatcherIhEC2EOS1_
FN:317,_ZN7testing7MatcherIRKSt5tupleIJjEEED2Ev
FN:317,_ZN7testing7MatcherIRKSt5tupleIJjEEED0Ev
FN:317,_ZN7testing7MatcherIRKSt5tupleIJhEEED2Ev
FN:317,_ZN7testing7MatcherIRKSt5tupleIJhhmEEED2Ev
FN:317,_ZN7testing7MatcherIRKSt5tupleIJEEED0Ev
FN:317,_ZN7testing7MatcherIjED0Ev
FN:317,_ZN7testing7MatcherIiED2Ev
FN:317,_ZN7testing7MatcherImED0Ev
FN:317,_ZN7testing7MatcherIRKSt5tupleIJmEEED0Ev
FN:317,_ZN7testing7MatcherImED2Ev
FN:317,_ZN7testing7MatcherIRKSt5tupleIJhiEEED0Ev
FN:317,_ZN7testing7MatcherIRKSt5tupleIJiEEED2Ev
FN:317,_ZN7testing7MatcherIRKSt5tupleIJhPFvvEiEEED0Ev
FN:317,_ZN7testing7MatcherIhEC2ERKS1_
FN:317,_ZN7testing7MatcherIRKSt5tupleIJhhEEED2Ev
FN:317,_ZN7testing7MatcherIPFvvEED0Ev
FN:317,_ZN7testing7MatcherIiEC2ERKS1_
FN:317,_ZN7testing7MatcherIRKSt5tupleIJEEED2Ev
FN:317,_ZN7testing7MatcherIRKSt5tupleIJiiEEED2Ev
FN:317,_ZN7testing7MatcherIhED0Ev
FN:317,_ZN7testing7MatcherIjEaSEOS1_
FN:317,_ZN7testing7MatcherIRKSt5tupleIJiiEEED0Ev
FN:317,_ZN7testing7MatcherIjEC2EOS1_
FN:317,_ZN7testing7MatcherIiED0Ev
FN:317,_ZN7testing7MatcherIiEC2EOS1_
FN:317,_ZN7testing7MatcherIRKSt5tupleIJmEEED2Ev
FN:317,_ZN7testing7MatcherIPFvvEED2Ev
FN:317,_ZN7testing7MatcherIRKSt5tupleIJhhmEEED0Ev
FN:317,_ZN7testing7MatcherIiEaSEOS1_
FN:317,_ZN7testing7MatcherIRKSt5tupleIJhiEEED2Ev
FN:317,_ZN7testing7MatcherIhEaSEOS1_
FN:317,_ZN7testing7MatcherImEC2ERKS1_
FN:317,_ZN7testing7MatcherIPFvvEEC2ERKS3_
FN:317,_ZN7testing7MatcherIRKSt5tupleIJhhEEED0Ev
FN:317,_ZN7testing7MatcherIRKSt5tupleIJhiiEEED0Ev
FN:317,_ZN7testing7MatcherImEaSEOS1_
FN:317,_ZN7testing7MatcherIjEC2ERKS1_
FN:317,_ZN7testing7MatcherImEC2EOS1_
FN:317,_ZN7testing7MatcherIjED2Ev
FN:317,_ZN7testing7MatcherIRKSt5tupleIJhiiEEED2Ev
FN:317,_ZN7testing7MatcherIRKSt5tupleIJiEEED0Ev
FN:317,_ZN7testing7MatcherIPFvvEEC2EOS3_
FN:317,_ZN7testing7MatcherIhED2Ev
FN:317,_ZN7testing7MatcherIRKSt5tupleIJhEEED0Ev
FN:325,_ZN7testing7MatcherIRKSt5tupleIJmEEEC2EPKNS_16MatcherInterfaceIS4_EE
FN:325,_ZN7testing7MatcherIRKSt5tupleIJhiEEEC2EPKNS_16MatcherInterfaceIS4_EE
FN:325,_ZN7testing7MatcherIRKSt5tupleIJhhmEEEC2EPKNS_16MatcherInterfaceIS4_EE
FN:325,_ZN7testing7MatcherIRKSt5tupleIJiEEEC2EPKNS_16MatcherInterfaceIS4_EE
FN:325,_ZN7testing7MatcherIRKSt5tupleIJhhEEEC2EPKNS_16MatcherInterfaceIS4_EE
FN:325,_ZN7testing7MatcherIRKSt5tupleIJhPFvvEiEEEC2EPKNS_16MatcherInterfaceIS6_EE
FN:325,_ZN7testing7MatcherIRKSt5tupleIJhEEEC2EPKNS_16MatcherInterfaceIS4_EE
FN:325,_ZN7testing7MatcherIPFvvEEC2EPKNS_16MatcherInterfaceIRKS2_EE
FN:325,_ZN7testing7MatcherIiEC2EPKNS_16MatcherInterfaceIRKiEE
FN:325,_ZN7testing7MatcherIRKSt5tupleIJEEEC2EPKNS_16MatcherInterfaceIS4_EE
FN:325,_ZN7testing7MatcherIRKSt5tupleIJjEEEC2EPKNS_16MatcherInterfaceIS4_EE
FN:325,_ZN7testing7MatcherImEC2EPKNS_16MatcherInterfaceIRKmEE
FN:325,_ZN7testing7MatcherIjEC2EPKNS_16MatcherInterfaceIRKjEE
FN:325,_ZN7testing7MatcherIRKSt5tupleIJhiiEEEC2EPKNS_16MatcherInterfaceIS4_EE
FN:325,_ZN7testing7MatcherIhEC2EPKNS_16MatcherInterfaceIRKhEE
FN:325,_ZN7testing7MatcherIRKSt5tupleIJiiEEEC2EPKNS_16MatcherInterfaceIS4_EE
FN:343,_ZN7testing7MatcherIRKSsED0Ev
FN:343,_ZN7testing7MatcherIRKSsEC2EOS3_
FN:343,_ZN7testing7MatcherIRKSsED2Ev
FN:343,_ZN7testing7MatcherIRKSsEaSEOS3_
FN:348,_ZN7testing7MatcherIRKSsEC2EPKNS_16MatcherInterfaceIS2_EE
FN:366,_ZN7testing7MatcherISsED0Ev
FN:366,_ZN7testing7MatcherISsEaSEOS1_
FN:366,_ZN7testing7MatcherISsED2Ev
FN:371,_ZN7testing7MatcherISsEC2EPKNS_16MatcherInterfaceIRKSsEE
FN:593,_ZN7testing8internal14ComparisonBaseINS0_9EqMatcherISsEESsNS0_5AnyEqEED2Ev
FN:595,_ZN7testing8internal14ComparisonBaseINS0_9EqMatcherIhEEhNS0_5AnyEqEEC2ERKh
FN:595,_ZN7testing8internal14ComparisonBaseINS0_9EqMatcherIjEEjNS0_5AnyEqEEC2ERKj
FN:595,_ZN7testing8internal14ComparisonBaseINS0_9EqMatcherImEEmNS0_5AnyEqEEC2ERKm
FN:595,_ZN7testing8internal14ComparisonBaseINS0_9EqMatcherISsEESsNS0_5AnyEqEEC2ERKSs
FN:595,_ZN7testing8internal14ComparisonBaseINS0_9EqMatcherIiEEiNS0_5AnyEqEEC2ERKi
FN:597,_ZNK7testing8internal14ComparisonBaseINS0_9EqMatcherIhEEhNS0_5AnyEqEEcvNS_7MatcherIT_EEIhEEv
FN:597,_ZNK7testing8internal14ComparisonBaseINS0_9EqMatcherImEEmNS0_5AnyEqEEcvNS_7MatcherIT_EEImEEv
FN:597,_ZNK7testing8internal14ComparisonBaseINS0_9EqMatcherIjEEjNS0_5AnyEqEEcvNS_7MatcherIT_EEIjEEv
FN:597,_ZNK7testing8internal14ComparisonBaseINS0_9EqMatcherIiEEiNS0_5AnyEqEEcvNS_7MatcherIT_EEIiEEv
FN:597,_ZNK7testing8internal14ComparisonBaseINS0_9EqMatcherISsEESsNS0_5AnyEqEEcvNS_7MatcherIT_EEISsEEv
FN:597,_ZNK7testing8internal14ComparisonBaseINS0_9EqMatcherISsEESsNS0_5AnyEqEEcvNS_7MatcherIT_EEIRKSsEEv
FN:603,_ZN7testing8internal14ComparisonBaseINS0_9EqMatcherImEEmNS0_5AnyEqEE4ImplIRKmED2Ev
FN:603,_ZN7testing8internal14ComparisonBaseINS0_9EqMatcherIjEEjNS0_5AnyEqEE4ImplIRKjED2Ev
FN:603,_ZN7testing8internal14ComparisonBaseINS0_9EqMatcherIhEEhNS0_5AnyEqEE4ImplIRKhED2Ev
FN:603,_ZN7testing8internal14ComparisonBaseINS0_9EqMatcherISsEESsNS0_5AnyEqEE4ImplIRKSsED0Ev
FN:603,_ZN7testing8internal14ComparisonBaseINS0_9EqMatcherIhEEhNS0_5AnyEqEE4ImplIRKhED0Ev
FN:603,_ZN7testing8internal14ComparisonBaseINS0_9EqMatcherIjEEjNS0_5AnyEqEE4ImplIRKjED0Ev
FN:603,_ZN7testing8internal14ComparisonBaseINS0_9EqMatcherImEEmNS0_5AnyEqEE4ImplIRKmED0Ev
FN:603,_ZN7testing8internal14ComparisonBaseINS0_9EqMatcherISsEESsNS0_5AnyEqEE4ImplIRKSsED2Ev
FN:603,_ZN7testing8internal14ComparisonBaseINS0_9EqMatcherIiEEiNS0_5AnyEqEE4ImplIRKiED0Ev
FN:603,_ZN7testing8internal14ComparisonBaseINS0_9EqMatcherIiEEiNS0_5AnyEqEE4ImplIRKiED2Ev
FN:605,_ZN7testing8internal14ComparisonBaseINS0_9EqMatcherIiEEiNS0_5AnyEqEE4ImplIRKiEC2ES8_
FN:605,_ZN7testing8internal14ComparisonBaseINS0_9EqMatcherIjEEjNS0_5AnyEqEE4ImplIRKjEC2ES8_
FN:605,_ZN7testing8internal14ComparisonBaseINS0_9EqMatcherISsEESsNS0_5AnyEqEE4ImplIRKSsEC2ES8_
FN:605,_ZN7testing8internal14ComparisonBaseINS0_9EqMatcherImEEmNS0_5AnyEqEE4ImplIRKmEC2ES8_
FN:605,_ZN7testing8internal14ComparisonBaseINS0_9EqMatcherIhEEhNS0_5AnyEqEE4ImplIRKhEC2ES8_
FN:606,_ZNK7testing8internal14ComparisonBaseINS0_9EqMatcherISsEESsNS0_5AnyEqEE4ImplIRKSsE15MatchAndExplainES8_PNS_19MatchResultListenerE
FN:606,_ZNK7testing8internal14ComparisonBaseINS0_9EqMatcherIiEEiNS0_5AnyEqEE4ImplIRKiE15MatchAndExplainES8_PNS_19MatchResultListenerE
FN:606,_ZNK7testing8internal14ComparisonBaseINS0_9EqMatcherIhEEhNS0_5AnyEqEE4ImplIRKhE15MatchAndExplainES8_PNS_19MatchResultListenerE
FN:606,_ZNK7testing8internal14ComparisonBaseINS0_9EqMatcherIjEEjNS0_5AnyEqEE4ImplIRKjE15MatchAndExplainES8_PNS_19MatchResultListenerE
FN:606,_ZNK7testing8internal14ComparisonBaseINS0_9EqMatcherImEEmNS0_5AnyEqEE4ImplIRKmE15MatchAndExplainES8_PNS_19MatchResultListenerE
FN:610,_ZNK7testing8internal14ComparisonBaseINS0_9EqMatcherISsEESsNS0_5AnyEqEE4ImplIRKSsE10DescribeToEPSo
FN:610,_ZNK7testing8internal14ComparisonBaseINS0_9EqMatcherIjEEjNS0_5AnyEqEE4ImplIRKjE10DescribeToEPSo
FN:610,_ZNK7testing8internal14ComparisonBaseINS0_9EqMatcherIiEEiNS0_5AnyEqEE4ImplIRKiE10DescribeToEPSo
FN:610,_ZNK7testing8internal14ComparisonBaseINS0_9EqMatcherIhEEhNS0_5AnyEqEE4ImplIRKhE10DescribeToEPSo
FN:610,_ZNK7testing8internal14ComparisonBaseINS0_9EqMatcherImEEmNS0_5AnyEqEE4ImplIRKmE10DescribeToEPSo
FN:614,_ZNK7testing8internal14ComparisonBaseINS0_9EqMatcherIjEEjNS0_5AnyEqEE4ImplIRKjE18DescribeNegationToEPSo
FN:614,_ZNK7testing8internal14ComparisonBaseINS0_9EqMatcherISsEESsNS0_5AnyEqEE4ImplIRKSsE18DescribeNegationToEPSo
FN:614,_ZNK7testing8internal14ComparisonBaseINS0_9EqMatcherIhEEhNS0_5AnyEqEE4ImplIRKhE18DescribeNegationToEPSo
FN:614,_ZNK7testing8internal14ComparisonBaseINS0_9EqMatcherImEEmNS0_5AnyEqEE4ImplIRKmE18DescribeNegationToEPSo
FN:614,_ZNK7testing8internal14ComparisonBaseINS0_9EqMatcherIiEEiNS0_5AnyEqEE4ImplIRKiE18DescribeNegationToEPSo
FN:626,_ZN7testing8internal9EqMatcherISsED2Ev
FN:628,_ZN7testing8internal9EqMatcherISsEC2ERKSs
FN:628,_ZN7testing8internal9EqMatcherIiEC2ERKi
FN:628,_ZN7testing8internal9EqMatcherIhEC2ERKh
FN:628,_ZN7testing8internal9EqMatcherImEC2ERKm
FN:628,_ZN7testing8internal9EqMatcherIjEC2ERKj
FN:630,_ZN7testing8internal9EqMatcherIhE4DescEv
FN:630,_ZN7testing8internal9EqMatcherIiE4DescEv
FN:630,_ZN7testing8internal9EqMatcherISsE4DescEv
FN:630,_ZN7testing8internal9EqMatcherImE4DescEv
FN:630,_ZN7testing8internal9EqMatcherIjE4DescEv
FN:631,_ZN7testing8internal9EqMatcherIjE11NegatedDescEv
FN:631,_ZN7testing8internal9EqMatcherImE11NegatedDescEv
FN:631,_ZN7testing8internal9EqMatcherIhE11NegatedDescEv
FN:631,_ZN7testing8internal9EqMatcherIiE11NegatedDescEv
FN:631,_ZN7testing8internal9EqMatcherISsE11NegatedDescEv
FN:754,_ZN7testing2EqISsEENS_8internal9EqMatcherIT_EES3_
FN:754,_ZN7testing2EqIiEENS_8internal9EqMatcherIT_EES3_
FN:754,_ZN7testing2EqIjEENS_8internal9EqMatcherIT_EES3_
FN:754,_ZN7testing2EqImEENS_8internal9EqMatcherIT_EES3_
FN:754,_ZN7testing2EqIhEENS_8internal9EqMatcherIT_EES3_
FN:759,_ZN7testing7MatcherIiEC2Ei
FN:759,_ZN7testing7MatcherImEC2Em
FN:759,_ZN7testing7MatcherIhEC2Eh
FN:759,_ZN7testing7MatcherIjEC2Ej
FNDA:30,_ZN7testing8internal14ComparisonBaseINS0_9EqMatcherIjEEjNS0_5AnyEqEE4ImplIRKjED2Ev
FNDA:30,_ZN7testing7MatcherIRKSt5tupleIJjEEED2Ev
FNDA:0,_ZN7testing7MatcherIRKSsED0Ev
FNDA:550,_ZN7testing8internal14ComparisonBaseINS0_9EqMatcherIhEEhNS0_5AnyEqEE4ImplIRKhED2Ev
FNDA:350,_ZN7testing8internal11MatcherBaseIiEC2Ev
FNDA:0,_ZN7testing16MatcherInterfaceIRKhED0Ev
FNDA:335,_ZN7testing7MatcherIRKSt5tupleIJhEEED2Ev
FNDA:0,_ZN7testing7MatcherIRKSt5tupleIJjEEED0Ev
FNDA:0,_ZN7testing7MatcherISsED0Ev
FNDA:40270,_ZN7testing19MatchResultListenerC2EPSo
FNDA:0,_ZNK7testing8internal14ComparisonBaseINS0_9EqMatcherISsEESsNS0_5AnyEqEE4ImplIRKSsE15MatchAndExplainES8_PNS_19MatchResultListenerE
FNDA:4780,_ZN7testing25MatcherDescriberInterfaceC2Ev
FNDA:0,_ZN7testing8internal9EqMatcherImE11NegatedDescEv
FNDA:5,_ZN7testing7MatcherIRKSt5tupleIJmEEEC2EPKNS_16MatcherInterfaceIS4_EE
FNDA:0,_ZNK7testing19MatchResultListener12IsInterestedEv
FNDA:0,_ZNK7testing8internal11MatcherBaseIRKSt5tupleIJhhmEEE10DescribeToEPSo
FNDA:720,_ZN7testing7MatcherIhEC2EOS1_
FNDA:0,_ZN7testing8internal9EqMatcherIhE11NegatedDescEv
FNDA:35,_ZN7testing8internal11MatcherBaseIRKSt5tupleIJiiEEED2Ev
FNDA:0,_ZNK7testing8internal14ComparisonBaseINS0_9EqMatcherISsEESsNS0_5AnyEqEE4ImplIRKSsE10DescribeToEPSo
FNDA:0,_ZN7testing8internal11MatcherBaseIRKSsED0Ev
FNDA:30,_ZN7testing16MatcherInterfaceIRKSt5tupleIJhhmEEEC2Ev
FNDA:485,_ZN7testing16MatcherInterfaceIRKSt5tupleIJiEEED2Ev
FNDA:550,_ZNK7testing8internal14ComparisonBaseINS0_9EqMatcherIhEEhNS0_5AnyEqEEcvNS_7MatcherIT_EEIhEEv
FNDA:30,_ZN7testing8internal11MatcherBaseIjEC2EOS2_
FNDA:480,_ZNK7testing8internal11MatcherBaseIRKSt5tupleIJiEEE7MatchesES5_
FNDA:25,_ZNK7testing8internal14ComparisonBaseINS0_9EqMatcherImEEmNS0_5AnyEqEEcvNS_7MatcherIT_EEImEEv
FNDA:0,_ZN7testing8internal9EqMatcherISsED2Ev
FNDA:0,_ZN7testing8internal9EqMatcherIjE11NegatedDescEv
FNDA:25,_ZN7testing8internal14ComparisonBaseINS0_9EqMatcherImEEmNS0_5AnyEqEE4ImplIRKmED2Ev
FNDA:0,_ZN7testing8internal11MatcherBaseISsEC2EPKNS_16MatcherInterfaceIRKSsEE
FNDA:0,_ZN7testing8internal11MatcherBaseIRKSt5tupleIJhEEED0Ev
FNDA:10,_ZN7testing7MatcherIRKSt5tupleIJhPFvvEiEEED2Ev
FNDA:350,_ZN7testing7MatcherIiEC2Ei
FNDA:560,_ZNK7testing8internal11MatcherBaseIiE15MatchAndExplainERKiPNS_19MatchResultListenerE
FNDA:0,_ZN7testing7MatcherIRKSsEC2EPKNS_16MatcherInterfaceIS2_EE
FNDA:485,_ZN7testing7MatcherIRKSt5tupleIJiEEEC2EPKNS_16MatcherInterfaceIS4_EE
FNDA:0,_ZN7testing7MatcherImED0Ev
FNDA:5,_ZN7testing16MatcherInterfaceIRKSt5tupleIJhiiEEEC2Ev
FNDA:2290,_ZN7testing8internal11MatcherBaseIRKSt5tupleIJEEED2Ev
FNDA:25,_ZN7testing7MatcherImEC2Em
FNDA:30,_ZN7testing8internal11MatcherBaseIjEC2Ev
FNDA:0,_ZN7testing8internal11MatcherBaseISsED0Ev
FNDA:550,_ZN7testing8internal14ComparisonBaseINS0_9EqMatcherIhEEhNS0_5AnyEqEE4ImplIRKhED0Ev
FNDA:350,_ZN7testing8internal14ComparisonBaseINS0_9EqMatcherIiEEiNS0_5AnyEqEE4ImplIRKiEC2ES8_
FNDA:0,_ZN7testing8internal14ComparisonBaseINS0_9EqMatcherISsEESsNS0_5AnyEqEE4ImplIRKSsED0Ev
FNDA:35,_ZN7testing16MatcherInterfaceIRKSt5tupleIJiiEEEC2Ev
FNDA:30,_ZN7testing7MatcherIRKSt5tupleIJhhmEEEC2EPKNS_16MatcherInterfaceIS4_EE
FNDA:560,_ZNK7testing8internal11MatcherBaseIiE7MatchesERKi
FNDA:0,_ZN7testing16MatcherInterfaceIRKmED0Ev
FNDA:3325,_ZN7testing7MatcherIiED2Ev
FNDA:335,_ZN7testing8internal11MatcherBaseIRKSt5tupleIJhEEED2Ev
FNDA:595,_ZN7testing16MatcherInterfaceIRKiEC2Ev
FNDA:30,_ZN7testing8internal11MatcherBaseIjEC2EPKNS_16MatcherInterfaceIRKjEE
FNDA:150,_ZNK7testing8internal11MatcherBaseIRKSt5tupleIJhhEEE7MatchesES5_
FNDA:145,_ZN7testing8internal11MatcherBaseIRKSt5tupleIJhhEEEC2EPKNS_16MatcherInterfaceIS5_EE
FNDA:0,_ZNK7testing8internal11MatcherBaseIRKSt5tupleIJEEE10DescribeToEPSo
FNDA:20,_ZNK7testing8internal11MatcherBaseIRKSt5tupleIJhiEEE15MatchAndExplainES5_PNS_19MatchResultListenerE
FNDA:0,_ZN7testing16MatcherInterfaceIRKSsED0Ev
FNDA:20,_ZN7testing7MatcherIRKSt5tupleIJhiEEEC2EPKNS_16MatcherInterfaceIS4_EE
FNDA:0,_ZN7testing8internal9EqMatcherISsEC2ERKSs
FNDA:0,_ZNK7testing8internal11MatcherBaseIhE10DescribeToEPSo
FNDA:40270,_ZN7testing19MatchResultListenerD2Ev
FNDA:0,_ZN7testing7MatcherIjED0Ev
FNDA:30,_ZNK7testing8internal14ComparisonBaseINS0_9EqMatcherIjEEjNS0_5AnyEqEEcvNS_7MatcherIT_EEIjEEv
FNDA:145,_ZN7testing8internal11MatcherBaseIRKSt5tupleIJhhEEED2Ev
FNDA:35,_ZN7testing8internal11MatcherBaseImEC2EOS2_
FNDA:0,_ZN7testing8internal9EqMatcherIhE4DescEv
FNDA:9400,_ZNK7testing8internal11MatcherBaseIRKSt5tupleIJhEEE7MatchesES5_
FNDA:0,_ZNK7testing8internal11MatcherBaseIRKSsE15MatchAndExplainES3_PNS_19MatchResultListenerE
FNDA:30,_ZN7testing7MatcherIRKSt5tupleIJhhmEEED2Ev
FNDA:10,_ZN7testing8internal11MatcherBaseIPFvvEEC2EPKNS_16MatcherInterfaceIRKS3_EE
FNDA:145,_ZN7testing16MatcherInterfaceIRKSt5tupleIJhhEEEC2Ev
FNDA:0,_ZNK7testing8internal11MatcherBaseIiE10DescribeToEPSo
FNDA:0,_ZN7testing7MatcherIRKSt5tupleIJEEED0Ev
FNDA:720,_ZN7testing8internal11MatcherBaseIhEC2EPKNS_16MatcherInterfaceIRKhEE
FNDA:19185,_ZNK7testing8internal11MatcherBaseIRKSt5tupleIJEEE7MatchesES5_
FNDA:10,_ZN7testing16MatcherInterfaceIRKSt5tupleIJhPFvvEiEEED2Ev
FNDA:720,_ZN7testing16MatcherInterfaceIRKhED2Ev
FNDA:145,_ZN7testing7MatcherIRKSt5tupleIJhhEEEC2EPKNS_16MatcherInterfaceIS4_EE
FNDA:40270,_ZN7testing8internal24DummyMatchResultListenerC2Ev
FNDA:200,_ZN7testing7MatcherImED2Ev
FNDA:50,_ZNK7testing8internal11MatcherBaseIRKSt5tupleIJmEEE15MatchAndExplainES5_PNS_19MatchResultListenerE
FNDA:0,_ZN7testing8internal11MatcherBaseIRKSt5tupleIJhPFvvEiEEED0Ev
FNDA:0,_ZN7testing7MatcherIRKSt5tupleIJmEEED0Ev
FNDA:350,_ZN7testing8internal11MatcherBaseIiEaSEOS2_
FNDA:0,_ZNK7testing8internal14ComparisonBaseINS0_9EqMatcherIjEEjNS0_5AnyEqEE4ImplIRKjE10DescribeToEPSo
FNDA:0,_ZNK7testing8internal11MatcherBaseIRKSt5tupleIJhPFvvEiEEE10DescribeToEPSo
FNDA:30,_ZN7testing8internal11MatcherBaseIRKSt5tupleIJhhmEEEC2EPKNS_16MatcherInterfaceIS5_EE
FNDA:5,_ZNK7testing8internal11MatcherBaseIRKSt5tupleIJhiiEEE7MatchesES5_
FNDA:2290,_ZN7testing16MatcherInterfaceIRKSt5tupleIJEEEC2Ev
FNDA:30,_ZN7testing16MatcherInterfaceIRKSt5tupleIJhhmEEED2Ev
FNDA:0,_ZNK7testing25MatcherDescriberInterface18DescribeNegationToEPSo
FNDA:9875,_ZNK7testing8internal5AnyEqclIhhEEbRKT_RKT0_
FNDA:0,_ZN7testing19MatchResultListenerlsIA5_cEERS0_RKT_
FNDA:25,_ZN7testing8internal11MatcherBaseImEC2Ev
FNDA:3325,_ZN7testing8internal11MatcherBaseIiED2Ev
FNDA:0,_ZN7testing8internal11MatcherBaseIRKSt5tupleIJhiiEEED0Ev
FNDA:30,_ZNK7testing8internal11MatcherBaseIjE7MatchesERKj
FNDA:9400,_ZNK7testing8internal11MatcherBaseIRKSt5tupleIJhEEE15MatchAndExplainES5_PNS_19MatchResultListenerE
FNDA:0,_ZNK7testing8internal11MatcherBaseIRKSt5tupleIJhiiEEE10DescribeToEPSo
FNDA:30,_ZN7testing8internal11MatcherBaseIPFvvEEC2ERKS4_
FNDA:25,_ZN7testing8internal11MatcherBaseImEaSEOS2_
FNDA:1785,_ZN7testing8internal11MatcherBaseIiEC2ERKS2_
FNDA:0,_ZN7testing16MatcherInterfaceIRKSt5tupleIJEEED0Ev
FNDA:30,_ZN7testing16MatcherInterfaceIRKjED2Ev
FNDA:0,_ZN7testing8internal11MatcherBaseIRKSsEC2Ev
FNDA:35,_ZN7testing16MatcherInterfaceIRKmED2Ev
FNDA:0,_ZN7testing8internal11MatcherBaseIRKSsEC2EPKNS_16MatcherInterfaceIS3_EE
FNDA:30,_ZN7testing8internal14ComparisonBaseINS0_9EqMatcherIjEEjNS0_5AnyEqEE4ImplIRKjED0Ev
FNDA:0,_ZN7testing8internal9EqMatcherIiE4DescEv
FNDA:0,_ZN7testing8internal11MatcherBaseISsEaSEOS2_
FNDA:0,_ZN7testing7MatcherIhED0Ev
FNDA:0,_ZN7testing8internal9EqMatcherISsE4DescEv
FNDA:335,_ZN7testing16MatcherInterfaceIRKSt5tupleIJhEEED2Ev
FNDA:485,_ZN7testing8internal11MatcherBaseIRKSt5tupleIJiEEED2Ev
FNDA:0,_ZN7testing16MatcherInterfaceIRKSsEC2Ev
FNDA:0,_ZN7testing8internal9EqMatcherIiE11NegatedDescEv
FNDA:0,_ZN7testing16MatcherInterfaceIRKPFvvEED0Ev
FNDA:30,_ZN7testing7MatcherIjEaSEOS1_
FNDA:0,_ZNK7testing8internal11MatcherBaseIRKSt5tupleIJhhEEE10DescribeToEPSo
FNDA:0,_ZN7testing7MatcherISsEaSEOS1_
FNDA:0,_ZN7testing19MatchResultListenerlsIA3_cEERS0_RKT_
FNDA:0,_ZN7testing8internal11MatcherBaseIRKSt5tupleIJEEED0Ev
FNDA:20,_ZNK7testing8internal11MatcherBaseIRKSt5tupleIJiiEEE15MatchAndExplainES5_PNS_19MatchResultListenerE
FNDA:5,_ZNK7testing8internal11MatcherBaseIRKSt5tupleIJhPFvvEiEEE15MatchAndExplainES7_PNS_19MatchResultListenerE
FNDA:0,_ZN7testing8internal11MatcherBaseIhED0Ev
FNDA:0,_ZN7testing8internal11MatcherBaseIPFvvEED0Ev
FNDA:0,_ZN7testing8internal9EqMatcherImE4DescEv
FNDA:20,_ZNK7testing8internal11MatcherBaseIRKSt5tupleIJiiEEE7MatchesES5_
FNDA:720,_ZN7testing8internal11MatcherBaseIhEC2EOS2_
FNDA:595,_ZN7testing16MatcherInterfaceIRKiED2Ev
FNDA:30,_ZN7testing16MatcherInterfaceIRKjEC2Ev
FNDA:25,_ZN7testing8internal14ComparisonBaseINS0_9EqMatcherImEEmNS0_5AnyEqEE4ImplIRKmED0Ev
FNDA:10,_ZN7testing16MatcherInterfaceIRKSt5tupleIJhPFvvEiEEEC2Ev
FNDA:30,_ZN7testing8internal14ComparisonBaseINS0_9EqMatcherIjEEjNS0_5AnyEqEE4ImplIRKjEC2ES8_
FNDA:2290,_ZN7testing7MatcherIRKSt5tupleIJEEED2Ev
FNDA:4780,_ZN7testing25MatcherDescriberInterfaceD2Ev
FNDA:2290,_ZN7testing16MatcherInterfaceIRKSt5tupleIJEEED2Ev
FNDA:35,_ZN7testing7MatcherIRKSt5tupleIJiiEEED2Ev
FNDA:0,_ZN7testing16MatcherInterfaceIRKSt5tupleIJiEEED0Ev
FNDA:10,_ZN7testing8internal11MatcherBaseIPFvvEEC2EOS4_
FNDA:0,_ZN7testing19MatchResultListenerlsIA30_cEERS0_RKT_
FNDA:0,_ZN7testing7MatcherIPFvvEED0Ev
FNDA:120,_ZNK7testing8internal11MatcherBaseImE15MatchAndExplainERKmPNS_19MatchResultListenerE
FNDA:1785,_ZN7testing7MatcherIiEC2ERKS1_
FNDA:150,_ZNK7testing8internal11MatcherBaseIRKSt5tupleIJhhEEE15MatchAndExplainES5_PNS_19MatchResultListenerE
FNDA:20,_ZN7testing8internal11MatcherBaseIRKSt5tupleIJhiEEED2Ev
FNDA:30,_ZN7testing8internal11MatcherBaseIRKSt5tupleIJhhmEEED2Ev
FNDA:0,_ZNK7testing8internal14ComparisonBaseINS0_9EqMatcherIjEEjNS0_5AnyEqEE4ImplIRKjE18DescribeNegationToEPSo
FNDA:335,_ZN7testing7MatcherIRKSt5tupleIJhEEEC2EPKNS_16MatcherInterfaceIS4_EE
FNDA:0,_ZN7testing16MatcherInterfaceIRKSt5tupleIJiiEEED0Ev
FNDA:0,_ZN7testing19MatchResultListenerlsIA25_cEERS0_RKT_
FNDA:335,_ZN7testing16MatcherInterfaceIRKSt5tupleIJhEEEC2Ev
FNDA:30,_ZN7testing8internal11MatcherBaseIRKSt5tupleIJjEEEC2EPKNS_16MatcherInterfaceIS5_EE
FNDA:10,_ZN7testing7MatcherIRKSt5tupleIJhPFvvEiEEEC2EPKNS_16MatcherInterfaceIS6_EE
FNDA:0,_ZN7testing16MatcherInterfaceIRKSt5tupleIJmEEED0Ev
FNDA:0,_ZN7testing16MatcherInterfaceIRKSt5tupleIJhEEED0Ev
FNDA:30,_ZNK7testing8internal11MatcherBaseIRKSt5tupleIJjEEE7MatchesES5_
FNDA:0,_ZN7testing7MatcherIRKSt5tupleIJhiEEED0Ev
FNDA:485,_ZN7testing7MatcherIRKSt5tupleIJiEEED2Ev
FNDA:0,_ZN7testing7MatcherIRKSt5tupleIJhPFvvEiEEED0Ev
FNDA:0,_ZN7testing7MatcherISsEC2EPKNS_16MatcherInterfaceIRKSsEE
FNDA:145,_ZN7testing7MatcherIRKSt5tupleIJhhEEED2Ev
FNDA:30,_ZN7testing8internal11MatcherBaseIRKSt5tupleIJjEEED2Ev
FNDA:2160,_ZN7testing7MatcherIhEC2ERKS1_
FNDA:0,_ZN7testing7MatcherIRKSsEC2EOS3_
FNDA:10,_ZN7testing8internal11MatcherBaseIRKSt5tupleIJhPFvvEiEEED2Ev
FNDA:0,_ZN7testing16MatcherInterfaceIRKSt5tupleIJhiEEED0Ev
FNDA:0,_ZN7testing16MatcherInterfaceIRKSt5tupleIJhhmEEED0Ev
FNDA:0,_ZN7testing16MatcherInterfaceIRKSt5tupleIJhPFvvEiEEED0Ev
FNDA:350,_ZN7testing8internal14ComparisonBaseINS0_9EqMatcherIiEEiNS0_5AnyEqEE4ImplIRKiED0Ev
FNDA:30,_ZN7testing16MatcherInterfaceIRKSt5tupleIJjEEED2Ev
FNDA:360,_ZNK7testing8internal14ComparisonBaseINS0_9EqMatcherIiEEiNS0_5AnyEqEE4ImplIRKiE15MatchAndExplainES8_PNS_19MatchResultListenerE
FNDA:0,_ZNK7testing8internal14ComparisonBaseINS0_9EqMatcherImEEmNS0_5AnyEqEE4ImplIRKmE18DescribeNegationToEPSo
FNDA:0,_ZN7testing16MatcherInterfaceIRKSt5tupleIJhiiEEED0Ev
FNDA:50,_ZN7testing7MatcherIPFvvEED2Ev
FNDA:0,_ZNK7testing8internal11MatcherBaseIRKSt5tupleIJhiEEE10DescribeToEPSo
FNDA:0,_ZN7testing19MatchResultListenerlsIA13_cEERS0_RKT_
FNDA:10,_ZN7testing7MatcherIPFvvEEC2EPKNS_16MatcherInterfaceIRKS2_EE
FNDA:0,_ZN7testing8internal11MatcherBaseIiED0Ev
FNDA:5,_ZN7testing7MatcherIRKSt5tupleIJmEEED2Ev
FNDA:595,_ZN7testing7MatcherIiEC2EOS1_
FNDA:0,_ZN7testing8internal11MatcherBaseIRKSsEC2EOS4_
FNDA:0,_ZN7testing8internal14ComparisonBaseINS0_9EqMatcherISsEESsNS0_5AnyEqEE4ImplIRKSsED2Ev
FNDA:0,_ZNK7testing8internal14ComparisonBaseINS0_9EqMatcherIiEEiNS0_5AnyEqEE4ImplIRKiE10DescribeToEPSo
FNDA:485,_ZN7testing16MatcherInterfaceIRKSt5tupleIJiEEEC2Ev
FNDA:0,_ZN7testing8internal11MatcherBaseIRKSt5tupleIJjEEED0Ev
FNDA:350,_ZN7testing2EqIiEENS_8internal9EqMatcherIT_EES3_
FNDA:550,_ZN7testing7MatcherIhEC2Eh
FNDA:0,_ZNK7testing8internal14ComparisonBaseINS0_9EqMatcherIhEEhNS0_5AnyEqEE4ImplIRKhE18DescribeNegationToEPSo
FNDA:30,_ZN7testing7MatcherIjEC2EOS1_
FNDA:0,_ZN7testing7MatcherIiED0Ev
FNDA:0,_ZNK7testing8internal11MatcherBaseIRKSsE7MatchesES3_
FNDA:360,_ZNK7testing8internal5AnyEqclIiiEEbRKT_RKT0_
FNDA:0,_ZN7testing19MatchResultListenerD0Ev
FNDA:550,_ZN7testing8internal14ComparisonBaseINS0_9EqMatcherIhEEhNS0_5AnyEqEEC2ERKh
FNDA:0,_ZN7testing7MatcherISsED2Ev
FNDA:5,_ZN7testing16MatcherInterfaceIRKSt5tupleIJmEEEC2Ev
FNDA:595,_ZN7testing8internal11MatcherBaseIiEC2EOS2_
FNDA:0,_ZN7testing7MatcherIRKSt5tupleIJiiEEED0Ev
FNDA:70,_ZNK7testing8internal11MatcherBaseIRKSt5tupleIJhhmEEE15MatchAndExplainES5_PNS_19MatchResultListenerE
FNDA:485,_ZN7testing8internal11MatcherBaseIRKSt5tupleIJiEEEC2EPKNS_16MatcherInterfaceIS5_EE
FNDA:10140,_ZNK7testing8internal11MatcherBaseIhE15MatchAndExplainERKhPNS_19MatchResultListenerE
FNDA:0,_ZNK7testing8internal14ComparisonBaseINS0_9EqMatcherISsEESsNS0_5AnyEqEE4ImplIRKSsE18DescribeNegationToEPSo
FNDA:0,_ZN7testing2EqISsEENS_8internal9EqMatcherIT_EES3_
FNDA:10,_ZN7testing8internal11MatcherBaseIRKSt5tupleIJhPFvvEiEEEC2EPKNS_16MatcherInterfaceIS7_EE
FNDA:0,_ZN7testing7MatcherIRKSt5tupleIJhhEEED0Ev
FNDA:0,_ZN7testing8internal11MatcherBaseIRKSsED2Ev
FNDA:0,_ZN7testing7MatcherIRKSt5tupleIJhiiEEED0Ev
FNDA:0,_ZNK7testing8internal14ComparisonBaseINS0_9EqMatcherISsEESsNS0_5AnyEqEEcvNS_7MatcherIT_EEIRKSsEEv
FNDA:2290,_ZN7testing7MatcherIRKSt5tupleIJEEEC2EPKNS_16MatcherInterfaceIS4_EE
FNDA:30,_ZN7testing2EqIjEENS_8internal9EqMatcherIT_EES3_
FNDA:0,_ZN7testing16MatcherInterfaceIRKjED0Ev
FNDA:10140,_ZNK7testing8internal11MatcherBaseIhE7MatchesERKh
FNDA:0,_ZN7testing19MatchResultListenerlsIA10_cEERS0_RKT_
FNDA:5,_ZN7testing8internal11MatcherBaseIRKSt5tupleIJhiiEEED2Ev
FNDA:35,_ZN7testing16MatcherInterfaceIRKmEC2Ev
FNDA:30,_ZNK7testing8internal14ComparisonBaseINS0_9EqMatcherIjEEjNS0_5AnyEqEE4ImplIRKjE15MatchAndExplainES8_PNS_19MatchResultListenerE
FNDA:0,_ZNK7testing8internal11MatcherBaseIRKSt5tupleIJjEEE10DescribeToEPSo
FNDA:0,_ZN7testing8internal11MatcherBaseISsEC2Ev
FNDA:35,_ZN7testing8internal11MatcherBaseIRKSt5tupleIJiiEEEC2EPKNS_16MatcherInterfaceIS5_EE
FNDA:5,_ZNK7testing8internal11MatcherBaseIRKSt5tupleIJhiiEEE15MatchAndExplainES5_PNS_19MatchResultListenerE
FNDA:0,_ZNK7testing8internal14ComparisonBaseINS0_9EqMatcherIhEEhNS0_5AnyEqEE4ImplIRKhE10DescribeToEPSo
FNDA:30,_ZN7testing7MatcherIPFvvEEC2ERKS3_
FNDA:595,_ZN7testing7MatcherIiEC2EPKNS_16MatcherInterfaceIRKiEE
FNDA:90,_ZN7testing8internal11MatcherBaseIjEC2ERKS2_
FNDA:50,_ZN7testing8internal11MatcherBaseIPFvvEED2Ev
FNDA:0,_ZN7testing16MatcherInterfaceIRKiED0Ev
FNDA:200,_ZN7testing8internal11MatcherBaseImED2Ev
FNDA:350,_ZN7testing8internal14ComparisonBaseINS0_9EqMatcherIiEEiNS0_5AnyEqEE4ImplIRKiED2Ev
FNDA:30,_ZN7testing7MatcherIjEC2Ej
FNDA:105,_ZN7testing8internal11MatcherBaseImEC2ERKS2_
FNDA:350,_ZN7testing7MatcherIiEaSEOS1_
FNDA:0,_ZN7testing8internal11MatcherBaseIRKSt5tupleIJhhEEED0Ev
FNDA:0,_ZN7testing8internal11MatcherBaseIRKSt5tupleIJhhmEEED0Ev
FNDA:550,_ZN7testing7MatcherIhEaSEOS1_
FNDA:20,_ZN7testing7MatcherIRKSt5tupleIJhiEEED2Ev
FNDA:40270,_ZN7testing8internal24DummyMatchResultListenerD2Ev
FNDA:105,_ZN7testing7MatcherImEC2ERKS1_
FNDA:0,_ZN7testing8internal9EqMatcherIjE4DescEv
FNDA:30,_ZNK7testing8internal11MatcherBaseIjE15MatchAndExplainERKjPNS_19MatchResultListenerE
FNDA:2290,_ZN7testing8internal11MatcherBaseIRKSt5tupleIJEEEC2EPKNS_16MatcherInterfaceIS5_EE
FNDA:0,_ZN7testing7MatcherIRKSt5tupleIJhhmEEED0Ev
FNDA:5,_ZN7testing8internal11MatcherBaseIRKSt5tupleIJhiiEEEC2EPKNS_16MatcherInterfaceIS5_EE
FNDA:350,_ZNK7testing8internal14ComparisonBaseINS0_9EqMatcherIiEEiNS0_5AnyEqEEcvNS_7MatcherIT_EEIiEEv
FNDA:0,_ZNK7testing8internal11MatcherBaseIRKSt5tupleIJiiEEE10DescribeToEPSo
FNDA:30,_ZN7testing8internal14ComparisonBaseINS0_9EqMatcherIjEEjNS0_5AnyEqEEC2ERKj
FNDA:5,_ZN7testing16MatcherInterfaceIRKSt5tupleIJmEEED2Ev
FNDA:9875,_ZNK7testing8internal14ComparisonBaseINS0_9EqMatcherIhEEhNS0_5AnyEqEE4ImplIRKhE15MatchAndExplainES8_PNS_19MatchResultListenerE
FNDA:0,_ZNK7testing8internal14ComparisonBaseINS0_9EqMatcherISsEESsNS0_5AnyEqEEcvNS_7MatcherIT_EEISsEEv
FNDA:0,_ZN7testing7MatcherIRKSsEaSEOS3_
FNDA:0,_ZN7testing19MatchResultListenerlsISsEERS0_RKT_
FNDA:0,_ZNK7testing8internal14ComparisonBaseINS0_9EqMatcherIiEEiNS0_5AnyEqEE4ImplIRKiE18DescribeNegationToEPSo
FNDA:0,_ZN7testing8internal11MatcherBaseIRKSsEaSEOS4_
FNDA:0,_ZN7testing19MatchResultListenerlsIA65_cEERS0_RKT_
FNDA:720,_ZN7testing16MatcherInterfaceIRKhEC2Ev
FNDA:30,_ZNK7testing8internal11MatcherBaseIRKSt5tupleIJjEEE15MatchAndExplainES5_PNS_19MatchResultListenerE
FNDA:5,_ZN7testing8internal11MatcherBaseIRKSt5tupleIJmEEEC2EPKNS_16MatcherInterfaceIS5_EE
FNDA:90,_ZN7testing7MatcherIjEC2ERKS1_
FNDA:0,_ZNK7testing8internal11MatcherBaseIPFvvEE10DescribeToEPSo
FNDA:25,_ZN7testing8internal14ComparisonBaseINS0_9EqMatcherImEEmNS0_5AnyEqEEC2ERKm
FNDA:120,_ZNK7testing8internal11MatcherBaseImE7MatchesERKm
FNDA:180,_ZN7testing8internal11MatcherBaseIjED2Ev
FNDA:0,_ZN7testing8internal11MatcherBaseIRKSt5tupleIJiiEEED0Ev
FNDA:30,_ZNK7testing8internal5AnyEqclIjjEEbRKT_RKT0_
FNDA:0,_ZNK7testing8internal5AnyEqclISsSsEEbRKT_RKT0_
FNDA:0,_ZN7testing8internal14ComparisonBaseINS0_9EqMatcherISsEESsNS0_5AnyEqEEC2ERKSs
FNDA:0,_ZNK7testing8internal11MatcherBaseIRKSsE10DescribeToEPSo
FNDA:4150,_ZN7testing8internal11MatcherBaseIhED2Ev
FNDA:2160,_ZN7testing8internal11MatcherBaseIhEC2ERKS2_
FNDA:0,_ZN7testing19MatchResultListenerlsImEERS0_RKT_
FNDA:10,_ZN7testing16MatcherInterfaceIRKPFvvEEC2Ev
FNDA:0,_ZNK7testing8internal11MatcherBaseIRKSt5tupleIJmEEE10DescribeToEPSo
FNDA:145,_ZN7testing16MatcherInterfaceIRKSt5tupleIJhhEEED2Ev
FNDA:35,_ZN7testing7MatcherImEC2EPKNS_16MatcherInterfaceIRKmEE
FNDA:480,_ZNK7testing8internal11MatcherBaseIRKSt5tupleIJiEEE15MatchAndExplainES5_PNS_19MatchResultListenerE
FNDA:0,_ZN7testing8internal11MatcherBaseImED0Ev
FNDA:5,_ZNK7testing8internal11MatcherBaseIPFvvEE15MatchAndExplainERKS3_PNS_19MatchResultListenerE
FNDA:35,_ZN7testing16MatcherInterfaceIRKSt5tupleIJiiEEED2Ev
FNDA:335,_ZN7testing8internal11MatcherBaseIRKSt5tupleIJhEEEC2EPKNS_16MatcherInterfaceIS5_EE
FNDA:30,_ZN7testing7MatcherIjEC2EPKNS_16MatcherInterfaceIRKjEE
FNDA:0,_ZN7testing16MatcherInterfaceIRKSt5tupleIJjEEED0Ev
FNDA:0,_ZN7testing16MatcherInterfaceIRKSt5tupleIJhhEEED0Ev
FNDA:0,_ZN7testing8internal9EqMatcherISsE11NegatedDescEv
FNDA:0,_ZN7testing7MatcherIRKSsED2Ev
FNDA:30,_ZN7testing8internal11MatcherBaseIjEaSEOS2_
FNDA:0,_ZNK7testing8internal11MatcherBaseImE10DescribeToEPSo
FNDA:50,_ZNK7testing8internal11MatcherBaseIRKSt5tupleIJmEEE7MatchesES5_
FNDA:20,_ZN7testing16MatcherInterfaceIRKSt5tupleIJhiEEED2Ev
FNDA:550,_ZN7testing8internal9EqMatcherIhEC2ERKh
FNDA:350,_ZN7testing8internal9EqMatcherIiEC2ERKi
FNDA:30,_ZN7testing7MatcherIRKSt5tupleIJjEEEC2EPKNS_16MatcherInterfaceIS4_EE
FNDA:5,_ZNK7testing8internal11MatcherBaseIRKSt5tupleIJhPFvvEiEEE7MatchesES7_
FNDA:595,_ZN7testing8internal11MatcherBaseIiEC2EPKNS_16MatcherInterfaceIRKiEE
FNDA:25,_ZN7testing7MatcherImEaSEOS1_
FNDA:550,_ZN7testing8internal11MatcherBaseIhEC2Ev
FNDA:70,_ZNK7testing8internal11MatcherBaseIRKSt5tupleIJhhmEEE7MatchesES5_
FNDA:35,_ZN7testing7MatcherIRKSt5tupleIJiiEEEC2EPKNS_16MatcherInterfaceIS4_EE
FNDA:25,_ZN7testing8internal14ComparisonBaseINS0_9EqMatcherImEEmNS0_5AnyEqEE4ImplIRKmEC2ES8_
FNDA:0,_ZN7testing19MatchResultListener6streamEv
FNDA:20,_ZNK7testing8internal11MatcherBaseIRKSt5tupleIJhiEEE7MatchesES5_
FNDA:0,_ZN7testing8internal11MatcherBaseIRKSt5tupleIJiEEED0Ev
FNDA:0,_ZNK7testing8internal11MatcherBaseIRKSt5tupleIJiEEE10DescribeToEPSo
FNDA:0,_ZN7testing8internal11MatcherBaseIjED0Ev
FNDA:0,_ZN7testing7MatcherIRKSt5tupleIJhEEED0Ev
FNDA:550,_ZN7testing8internal14ComparisonBaseINS0_9EqMatcherIhEEhNS0_5AnyEqEE4ImplIRKhEC2ES8_
FNDA:4150,_ZN7testing7MatcherIhED2Ev
FNDA:550,_ZN7testing2EqIhEENS_8internal9EqMatcherIT_EES3_
FNDA:70,_ZNK7testing8internal5AnyEqclImmEEbRKT_RKT0_
FNDA:20,_ZN7testing16MatcherInterfaceIRKSt5tupleIJhiEEEC2Ev
FNDA:0,_ZN7testing8internal11MatcherBaseIRKSt5tupleIJhiEEED0Ev
FNDA:0,_ZN7testing19MatchResultListenerlsIPKcEERS0_RKT_
FNDA:0,_ZNK7testing8internal11MatcherBaseIRKSt5tupleIJhEEE10DescribeToEPSo
FNDA:0,_ZN7testing19MatchResultListenerlsIA89_cEERS0_RKT_
FNDA:5,_ZNK7testing8internal11MatcherBaseIPFvvEE7MatchesERKS3_
FNDA:20,_ZN7testing8internal11MatcherBaseIRKSt5tupleIJhiEEEC2EPKNS_16MatcherInterfaceIS5_EE
FNDA:5,_ZN7testing16MatcherInterfaceIRKSt5tupleIJhiiEEED2Ev
FNDA:5,_ZN7testing8internal11MatcherBaseIRKSt5tupleIJmEEED2Ev
FNDA:19185,_ZNK7testing8internal11MatcherBaseIRKSt5tupleIJEEE15MatchAndExplainES5_PNS_19MatchResultListenerE
FNDA:0,_ZN7testing7MatcherIRKSt5tupleIJiEEED0Ev
FNDA:30,_ZN7testing8internal9EqMatcherIjEC2ERKj
FNDA:350,_ZN7testing8internal14ComparisonBaseINS0_9EqMatcherIiEEiNS0_5AnyEqEEC2ERKi
FNDA:5,_ZN7testing7MatcherIRKSt5tupleIJhiiEEED2Ev
FNDA:0,_ZN7testing25MatcherDescriberInterfaceD0Ev
FNDA:10,_ZN7testing7MatcherIPFvvEEC2EOS3_
FNDA:0,_ZN7testing8internal11MatcherBaseIRKSt5tupleIJmEEED0Ev
FNDA:0,_ZNK7testing8internal14ComparisonBaseINS0_9EqMatcherImEEmNS0_5AnyEqEE4ImplIRKmE10DescribeToEPSo
FNDA:10,_ZN7testing16MatcherInterfaceIRKPFvvEED2Ev
FNDA:720,_ZN7testing7MatcherIhEC2EPKNS_16MatcherInterfaceIRKhEE
FNDA:0,_ZN7testing8internal11MatcherBaseISsED2Ev
FNDA:0,_ZN7testing16MatcherInterfaceIRKSsED2Ev
FNDA:5,_ZN7testing7MatcherIRKSt5tupleIJhiiEEEC2EPKNS_16MatcherInterfaceIS4_EE
FNDA:0,_ZN7testing8internal14ComparisonBaseINS0_9EqMatcherISsEESsNS0_5AnyEqEED2Ev
FNDA:550,_ZN7testing8internal11MatcherBaseIhEaSEOS2_
FNDA:35,_ZN7testing7MatcherImEC2EOS1_
FNDA:30,_ZN7testing16MatcherInterfaceIRKSt5tupleIJjEEEC2Ev
FNDA:70,_ZNK7testing8internal14ComparisonBaseINS0_9EqMatcherImEEmNS0_5AnyEqEE4ImplIRKmE15MatchAndExplainES8_PNS_19MatchResultListenerE
FNDA:35,_ZN7testing8internal11MatcherBaseImEC2EPKNS_16MatcherInterfaceIRKmEE
FNDA:25,_ZN7testing8internal9EqMatcherImEC2ERKm
FNDA:180,_ZN7testing7MatcherIjED2Ev
FNDA:0,_ZNK7testing8internal11MatcherBaseIjE10DescribeToEPSo
FNDA:0,_ZN7testing8internal14ComparisonBaseINS0_9EqMatcherISsEESsNS0_5AnyEqEE4ImplIRKSsEC2ES8_
FNDA:0,_ZN7testing8internal24DummyMatchResultListenerD0Ev
FNDA:25,_ZN7testing2EqImEENS_8internal9EqMatcherIT_EES3_
FNF:345
FNH:206
DA:77,40270
DA:83,0
DA:84,0
DA:85,0
DA:89,0
DA:95,0
DA:103,40270
DA:104,40270
DA:108,4780
DA:110,4780
DA:125,0
DA:126,0
DA:127,0
DA:128,0
DA:129,0
DA:134,9560
DA:203,10335
DA:227,40270
DA:229,40270
DA:251,955
DA:255,40270
DA:256,40270
DA:260,40270
DA:261,80540
DA:262,80540
DA:266,0
DA:287,955
DA:290,4780
DA:299,4170
DA:301,1390
DA:304,11295
DA:317,17810
DA:325,4780
DA:326,4780
DA:343,0
DA:348,0
DA:349,0
DA:366,0
DA:371,0
DA:372,0
DA:593,0
DA:595,955
DA:597,955
DA:598,955
DA:603,1910
DA:605,955
DA:606,10335
DA:608,10335
DA:610,0
DA:611,0
DA:612,0
DA:613,0
DA:614,0
DA:615,0
DA:616,0
DA:617,0
DA:626,0
DA:628,955
DA:629,955
DA:630,0
DA:631,0
DA:754,955
DA:759,955
LF:63
LH:34
end_of_record
TN:
SF:/home/travis/build/platisd/smartcar_shield/test/build/googletest-src/googletest/include/gtest/gtest-message.h
FN:90,_ZN7testing7MessageD2Ev
FN:101,_ZN7testing7MessageC2ERKS0_
FN:112,_ZN7testing7MessagelsIA9_cEERS0_RKT_
FN:112,_ZN7testing7MessagelsIA33_cEERS0_RKT_
FN:112,_ZN7testing7MessagelsIxEERS0_RKT_
FN:112,_ZN7testing7MessagelsIA39_cEERS0_RKT_
FN:112,_ZN7testing7MessagelsIA24_cEERS0_RKT_
FN:112,_ZN7testing7MessagelsIA5_cEERS0_RKT_
FN:112,_ZN7testing7MessagelsINS_14TestPartResultEEERS0_RKT_
FN:112,_ZN7testing7MessagelsIA62_cEERS0_RKT_
FN:112,_ZN7testing7MessagelsIA40_cEERS0_RKT_
FN:112,_ZN7testing7MessagelsIA11_cEERS0_RKT_
FN:112,_ZN7testing7MessagelsIA12_cEERS0_RKT_
FN:112,_ZN7testing7MessagelsIA30_cEERS0_RKT_
FN:112,_ZN7testing7MessagelsIA53_cEERS0_RKT_
FN:112,_ZN7testing7MessagelsIA48_cEERS0_RKT_
FN:112,_ZN7testing7MessagelsIA52_cEERS0_RKT_
FN:112,_ZN7testing7MessagelsIA60_cEERS0_RKT_
FN:112,_ZN7testing7MessagelsIA63_cEERS0_RKT_
FN:112,_ZN7testing7MessagelsIA28_cEERS0_RKT_
FN:112,_ZN7testing7MessagelsIA47_cEERS0_RKT_
FN:112,_ZN7testing7MessagelsIA25_cEERS0_RKT_
FN:112,_ZN7testing7MessagelsIA2_cEERS0_RKT_
FN:112,_ZN7testing7MessagelsIA21_cEERS0_RKT_
FN:112,_ZN7testing7MessagelsIA19_cEERS0_RKT_
FN:112,_ZN7testing7MessagelsIA29_cEERS0_RKT_
FN:112,_ZN7testing7MessagelsIA20_cEERS0_RKT_
FN:112,_ZN7testing7MessagelsIA7_cEERS0_RKT_
FN:112,_ZN7testing7MessagelsIA32_cEERS0_RKT_
FN:112,_ZN7testing7MessagelsIA6_cEERS0_RKT_
FN:112,_ZN7testing7MessagelsIA14_cEERS0_RKT_
FN:112,_ZN7testing7MessagelsIA16_cEERS0_RKT_
FN:112,_ZN7testing7MessagelsIA106_cEERS0_RKT_
FN:112,_ZN7testing7MessagelsIA15_cEERS0_RKT_
FN:112,_ZN7testing7MessagelsIA61_cEERS0_RKT_
FN:112,_ZN7testing7MessagelsIiEERS0_RKT_
FN:112,_ZN7testing7MessagelsIA51_cEERS0_RKT_
FN:112,_ZN7testing7MessagelsIA35_cEERS0_RKT_
FN:112,_ZN7testing7MessagelsIA50_cEERS0_RKT_
FN:112,_ZN7testing7MessagelsIA256_cEERS0_RKT_
FN:112,_ZN7testing7MessagelsISsEERS0_RKT_
FN:112,_ZN7testing7MessagelsIS0_EERS0_RKT_
FN:112,_ZN7testing7MessagelsIA8_cEERS0_RKT_
FN:112,_ZN7testing7MessagelsIA10_cEERS0_RKT_
FN:112,_ZN7testing7MessagelsIA65_cEERS0_RKT_
FN:112,_ZN7testing7MessagelsIA4_cEERS0_RKT_
FN:112,_ZN7testing7MessagelsIcEERS0_RKT_
FN:112,_ZN7testing7MessagelsImEERS0_RKT_
FN:112,_ZN7testing7MessagelsIA3_cEERS0_RKT_
FN:112,_ZN7testing7MessagelsIdEERS0_RKT_
FN:112,_ZN7testing7MessagelsIA68_cEERS0_RKT_
FN:112,_ZN7testing7MessagelsIA41_cEERS0_RKT_
FN:112,_ZN7testing7MessagelsIA17_cEERS0_RKT_
FN:112,_ZN7testing7MessagelsIA22_cEERS0_RKT_
FN:112,_ZN7testing7MessagelsIA13_cEERS0_RKT_
FN:112,_ZN7testing7MessagelsIA38_cEERS0_RKT_
FN:112,_ZN7testing7MessagelsIA18_cEERS0_RKT_
FN:146,_ZN7testing7MessagelsIKcEERS0_RKPT_
FN:146,_ZN7testing7MessagelsIcEERS0_RKPT_
FN:204,_ZN7testinglsERSoRKNS_7MessageE
FN:215,_ZN7testing8internal18StreamableToStringIPcEESsRKT_
FN:215,_ZN7testing8internal18StreamableToStringIPwEESsRKT_
FN:215,_ZN7testing8internal18StreamableToStringIxEESsRKT_
FN:215,_ZN7testing8internal18StreamableToStringIiEESsRKT_
FNDA:0,_ZN7testing7MessagelsIS0_EERS0_RKT_
FNDA:0,_ZN7testing7MessagelsISsEERS0_RKT_
FNDA:0,_ZN7testing7MessagelsIA256_cEERS0_RKT_
FNDA:0,_ZN7testing7MessagelsIA50_cEERS0_RKT_
FNDA:0,_ZN7testing7MessagelsIA35_cEERS0_RKT_
FNDA:0,_ZN7testing7MessagelsIA51_cEERS0_RKT_
FNDA:11840,_ZN7testing7MessagelsIiEERS0_RKT_
FNDA:0,_ZN7testing7MessagelsIA61_cEERS0_RKT_
FNDA:0,_ZN7testing7MessagelsIA15_cEERS0_RKT_
FNDA:0,_ZN7testing7MessagelsIA18_cEERS0_RKT_
FNDA:0,_ZN7testing7MessagelsIA38_cEERS0_RKT_
FNDA:0,_ZN7testing7MessagelsIA13_cEERS0_RKT_
FNDA:0,_ZN7testing7MessagelsIA22_cEERS0_RKT_
FNDA:1792,_ZN7testing7MessagelsIcEERS0_RKPT_
FNDA:0,_ZN7testing7MessagelsIA68_cEERS0_RKT_
FNDA:0,_ZN7testing7MessagelsIdEERS0_RKT_
FNDA:0,_ZN7testing7MessagelsIA41_cEERS0_RKT_
FNDA:0,_ZN7testing7MessagelsIA17_cEERS0_RKT_
FNDA:0,_ZN7testing7MessagelsIA3_cEERS0_RKT_
FNDA:0,_ZN7testing7MessagelsImEERS0_RKT_
FNDA:88576,_ZN7testing7MessagelsIcEERS0_RKT_
FNDA:12624,_ZN7testing7MessageD2Ev
FNDA:0,_ZN7testing7MessagelsIA4_cEERS0_RKT_
FNDA:0,_ZN7testing7MessagelsIA65_cEERS0_RKT_
FNDA:0,_ZN7testing7MessagelsIA10_cEERS0_RKT_
FNDA:0,_ZN7testing7MessagelsIA8_cEERS0_RKT_
FNDA:0,_ZN7testing7MessagelsIA63_cEERS0_RKT_
FNDA:0,_ZN7testing7MessagelsIA28_cEERS0_RKT_
FNDA:0,_ZN7testing7MessagelsIA60_cEERS0_RKT_
FNDA:16850,_ZN7testing8internal18StreamableToStringIxEESsRKT_
FNDA:0,_ZN7testing7MessagelsIA52_cEERS0_RKT_
FNDA:0,_ZN7testing7MessagelsIA48_cEERS0_RKT_
FNDA:0,_ZN7testing7MessagelsIA53_cEERS0_RKT_
FNDA:0,_ZN7testing7MessagelsIA30_cEERS0_RKT_
FNDA:4294,_ZN7testing7MessagelsIKcEERS0_RKPT_
FNDA:0,_ZN7testing7MessagelsIA12_cEERS0_RKT_
FNDA:0,_ZN7testing7MessagelsIA11_cEERS0_RKT_
FNDA:0,_ZN7testing7MessagelsIA40_cEERS0_RKT_
FNDA:0,_ZN7testing7MessagelsINS_14TestPartResultEEERS0_RKT_
FNDA:0,_ZN7testing7MessagelsIA62_cEERS0_RKT_
FNDA:0,_ZN7testing8internal18StreamableToStringIPwEESsRKT_
FNDA:0,_ZN7testing7MessagelsIA5_cEERS0_RKT_
FNDA:0,_ZN7testing7MessagelsIA24_cEERS0_RKT_
FNDA:0,_ZN7testing7MessagelsIA39_cEERS0_RKT_
FNDA:1792,_ZN7testing8internal18StreamableToStringIPcEESsRKT_
FNDA:16850,_ZN7testing7MessagelsIxEERS0_RKT_
FNDA:0,_ZN7testing7MessagelsIA33_cEERS0_RKT_
FNDA:0,_ZN7testing7MessagelsIA9_cEERS0_RKT_
FNDA:0,_ZN7testing7MessagelsIA106_cEERS0_RKT_
FNDA:0,_ZN7testing7MessagelsIA16_cEERS0_RKT_
FNDA:0,_ZN7testing7MessagelsIA14_cEERS0_RKT_
FNDA:0,_ZN7testing7MessagelsIA6_cEERS0_RKT_
FNDA:0,_ZN7testing7MessagelsIA32_cEERS0_RKT_
FNDA:4608,_ZN7testing7MessagelsIA7_cEERS0_RKT_
FNDA:0,_ZN7testing7MessagelsIA20_cEERS0_RKT_
FNDA:0,_ZN7testing7MessagelsIA29_cEERS0_RKT_
FNDA:0,_ZN7testing7MessageC2ERKS0_
FNDA:0,_ZN7testing7MessagelsIA19_cEERS0_RKT_
FNDA:256,_ZN7testing7MessagelsIA21_cEERS0_RKT_
FNDA:0,_ZN7testing7MessagelsIA2_cEERS0_RKT_
FNDA:11840,_ZN7testing8internal18StreamableToStringIiEESsRKT_
FNDA:0,_ZN7testinglsERSoRKNS_7MessageE
FNDA:0,_ZN7testing7MessagelsIA25_cEERS0_RKT_
FNDA:0,_ZN7testing7MessagelsIA47_cEERS0_RKT_
FNF:64
FNH:11
DA:90,12624
DA:101,0
DA:102,0
DA:103,0
DA:112,122130
DA:128,122130
DA:129,122130
DA:146,6086
DA:147,6086
DA:148,0
DA:150,6086
DA:152,6086
DA:204,0
DA:205,0
DA:215,30482
DA:216,30482
LF:16
LH:10
end_of_record
TN:
SF:/home/travis/build/platisd/smartcar_shield/test/build/googletest-src/googletest/include/gtest/gtest-printers.h
FN:259,_ZN16testing_internal26DefaultPrintNonContainerToImEEvRKT_PSo
FN:259,_ZN16testing_internal26DefaultPrintNonContainerToIfEEvRKT_PSo
FN:259,_ZN16testing_internal26DefaultPrintNonContainerToIlEEvRKT_PSo
FN:259,_ZN16testing_internal26DefaultPrintNonContainerToIiEEvRKT_PSo
FN:259,_ZN16testing_internal26DefaultPrintNonContainerToIjEEvRKT_PSo
FN:259,_ZN16testing_internal26DefaultPrintNonContainerToIxEEvRKT_PSo
FN:312,_ZN7testing8internal19FormatForComparisonIliE6FormatERKl
FN:312,_ZN7testing8internal19FormatForComparisonIjiE6FormatERKj
FN:312,_ZN7testing8internal19FormatForComparisonIaaE6FormatERKa
FN:312,_ZN7testing8internal19FormatForComparisonIijE6FormatERKi
FN:312,_ZN7testing8internal19FormatForComparisonIilE6FormatERKi
FN:312,_ZN7testing8internal19FormatForComparisonIjhE6FormatERKj
FN:312,_ZN7testing8internal19FormatForComparisonIxxE6FormatERKx
FN:312,_ZN7testing8internal19FormatForComparisonIiiE6FormatERKi
FN:312,_ZN7testing8internal19FormatForComparisonIffE6FormatERKf
FN:312,_ZN7testing8internal19FormatForComparisonIlmE6FormatERKl
FN:312,_ZN7testing8internal19FormatForComparisonIhjE6FormatERKh
FN:312,_ZN7testing8internal19FormatForComparisonIhhE6FormatERKh
FN:312,_ZN7testing8internal19FormatForComparisonIllE6FormatERKl
FN:312,_ZN7testing8internal19FormatForComparisonImlE6FormatERKm
FN:312,_ZN7testing8internal19FormatForComparisonImmE6FormatERKm
FN:312,_ZN7testing8internal19FormatForComparisonIjjE6FormatERKj
FN:386,_ZN7testing8internal33FormatForComparisonFailureMessageIliEESsRKT_RKT0_
FN:386,_ZN7testing8internal33FormatForComparisonFailureMessageImlEESsRKT_RKT0_
FN:386,_ZN7testing8internal33FormatForComparisonFailureMessageIaaEESsRKT_RKT0_
FN:386,_ZN7testing8internal33FormatForComparisonFailureMessageIijEESsRKT_RKT0_
FN:386,_ZN7testing8internal33FormatForComparisonFailureMessageIhjEESsRKT_RKT0_
FN:386,_ZN7testing8internal33FormatForComparisonFailureMessageIjhEESsRKT_RKT0_
FN:386,_ZN7testing8internal33FormatForComparisonFailureMessageIxxEESsRKT_RKT0_
FN:386,_ZN7testing8internal33FormatForComparisonFailureMessageIjjEESsRKT_RKT0_
FN:386,_ZN7testing8internal33FormatForComparisonFailureMessageIffEESsRKT_RKT0_
FN:386,_ZN7testing8internal33FormatForComparisonFailureMessageIilEESsRKT_RKT0_
FN:386,_ZN7testing8internal33FormatForComparisonFailureMessageIiiEESsRKT_RKT0_
FN:386,_ZN7testing8internal33FormatForComparisonFailureMessageIllEESsRKT_RKT0_
FN:386,_ZN7testing8internal33FormatForComparisonFailureMessageIhhEESsRKT_RKT0_
FN:386,_ZN7testing8internal33FormatForComparisonFailureMessageIlmEESsRKT_RKT0_
FN:386,_ZN7testing8internal33FormatForComparisonFailureMessageImmEESsRKT_RKT0_
FN:386,_ZN7testing8internal33FormatForComparisonFailureMessageIjiEESsRKT_RKT0_
FN:460,_ZN7testing8internal14DefaultPrintToIFvvEEEvNS0_15WrapPrinterTypeILNS0_18DefaultPrinterTypeE2EEEPT_PSo
FN:475,_ZN7testing8internal14DefaultPrintToIfEEvNS0_15WrapPrinterTypeILNS0_18DefaultPrinterTypeE3EEERKT_PSo
FN:475,_ZN7testing8internal14DefaultPrintToIjEEvNS0_15WrapPrinterTypeILNS0_18DefaultPrinterTypeE3EEERKT_PSo
FN:475,_ZN7testing8internal14DefaultPrintToIlEEvNS0_15WrapPrinterTypeILNS0_18DefaultPrinterTypeE3EEERKT_PSo
FN:475,_ZN7testing8internal14DefaultPrintToIiEEvNS0_15WrapPrinterTypeILNS0_18DefaultPrinterTypeE3EEERKT_PSo
FN:475,_ZN7testing8internal14DefaultPrintToImEEvNS0_15WrapPrinterTypeILNS0_18DefaultPrinterTypeE3EEERKT_PSo
FN:475,_ZN7testing8internal14DefaultPrintToIxEEvNS0_15WrapPrinterTypeILNS0_18DefaultPrinterTypeE3EEERKT_PSo
FN:492,_ZN7testing8internal7PrintToIlEEvRKT_PSo
FN:492,_ZN7testing8internal7PrintToImEEvRKT_PSo
FN:492,_ZN7testing8internal7PrintToIiEEvRKT_PSo
FN:492,_ZN7testing8internal7PrintToIjEEvRKT_PSo
FN:492,_ZN7testing8internal7PrintToIxEEvRKT_PSo
FN:492,_ZN7testing8internal7PrintToIfEEvRKT_PSo
FN:492,_ZN7testing8internal7PrintToIPFvvEEEvRKT_PSo
FN:540,_ZN7testing8internal7PrintToEbPSo
FN:610,_ZN7testing8internal7PrintToERKSsPSo
FN:624,_ZN7testing8internal7PrintToERKSbIwSt11char_traitsIwESaIwEEPSo
FN:646,_ZN7testing8internal12PrintTupleToISt5tupleIJEEEEvRKT_St17integral_constantImLm0EEPSo
FN:646,_ZN7testing8internal12PrintTupleToISt5tupleIJjEEEEvRKT_St17integral_constantImLm0EEPSo
FN:646,_ZN7testing8internal12PrintTupleToISt5tupleIJhhmEEEEvRKT_St17integral_constantImLm0EEPSo
FN:646,_ZN7testing8internal12PrintTupleToISt5tupleIJhiEEEEvRKT_St17integral_constantImLm0EEPSo
FN:646,_ZN7testing8internal12PrintTupleToISt5tupleIJiEEEEvRKT_St17integral_constantImLm0EEPSo
FN:646,_ZN7testing8internal12PrintTupleToISt5tupleIJmEEEEvRKT_St17integral_constantImLm0EEPSo
FN:646,_ZN7testing8internal12PrintTupleToISt5tupleIJhiiEEEEvRKT_St17integral_constantImLm0EEPSo
FN:646,_ZN7testing8internal12PrintTupleToISt5tupleIJhPFvvEiEEEEvRKT_St17integral_constantImLm0EEPSo
FN:646,_ZN7testing8internal12PrintTupleToISt5tupleIJhEEEEvRKT_St17integral_constantImLm0EEPSo
FN:646,_ZN7testing8internal12PrintTupleToISt5tupleIJhhEEEEvRKT_St17integral_constantImLm0EEPSo
FN:646,_ZN7testing8internal12PrintTupleToISt5tupleIJiiEEEEvRKT_St17integral_constantImLm0EEPSo
FN:650,_ZN7testing8internal12PrintTupleToISt5tupleIJhiEELm2EEEvRKT_St17integral_constantImXT0_EEPSo
FN:650,_ZN7testing8internal12PrintTupleToISt5tupleIJhhEELm1EEEvRKT_St17integral_constantImXT0_EEPSo
FN:650,_ZN7testing8internal12PrintTupleToISt5tupleIJiiEELm2EEEvRKT_St17integral_constantImXT0_EEPSo
FN:650,_ZN7testing8internal12PrintTupleToISt5tupleIJhiiEELm1EEEvRKT_St17integral_constantImXT0_EEPSo
FN:650,_ZN7testing8internal12PrintTupleToISt5tupleIJhiiEELm2EEEvRKT_St17integral_constantImXT0_EEPSo
FN:650,_ZN7testing8internal12PrintTupleToISt5tupleIJhiEELm1EEEvRKT_St17integral_constantImXT0_EEPSo
FN:650,_ZN7testing8internal12PrintTupleToISt5tupleIJhhmEELm3EEEvRKT_St17integral_constantImXT0_EEPSo
FN:650,_ZN7testing8internal12PrintTupleToISt5tupleIJhiiEELm3EEEvRKT_St17integral_constantImXT0_EEPSo
FN:650,_ZN7testing8internal12PrintTupleToISt5tupleIJiEELm1EEEvRKT_St17integral_constantImXT0_EEPSo
FN:650,_ZN7testing8internal12PrintTupleToISt5tupleIJhPFvvEiEELm1EEEvRKT_St17integral_constantImXT0_EEPSo
FN:650,_ZN7testing8internal12PrintTupleToISt5tupleIJmEELm1EEEvRKT_St17integral_constantImXT0_EEPSo
FN:650,_ZN7testing8internal12PrintTupleToISt5tupleIJhPFvvEiEELm2EEEvRKT_St17integral_constantImXT0_EEPSo
FN:650,_ZN7testing8internal12PrintTupleToISt5tupleIJhPFvvEiEELm3EEEvRKT_St17integral_constantImXT0_EEPSo
FN:650,_ZN7testing8internal12PrintTupleToISt5tupleIJhhEELm2EEEvRKT_St17integral_constantImXT0_EEPSo
FN:650,_ZN7testing8internal12PrintTupleToISt5tupleIJhhmEELm2EEEvRKT_St17integral_constantImXT0_EEPSo
FN:650,_ZN7testing8internal12PrintTupleToISt5tupleIJjEELm1EEEvRKT_St17integral_constantImXT0_EEPSo
FN:650,_ZN7testing8internal12PrintTupleToISt5tupleIJhEELm1EEEvRKT_St17integral_constantImXT0_EEPSo
FN:650,_ZN7testing8internal12PrintTupleToISt5tupleIJhhmEELm1EEEvRKT_St17integral_constantImXT0_EEPSo
FN:650,_ZN7testing8internal12PrintTupleToISt5tupleIJiiEELm1EEEvRKT_St17integral_constantImXT0_EEPSo
FN:663,_ZN7testing8internal7PrintToIJhiEEEvRKSt5tupleIJDpT_EEPSo
FN:663,_ZN7testing8internal7PrintToIJiiEEEvRKSt5tupleIJDpT_EEPSo
FN:663,_ZN7testing8internal7PrintToIJjEEEvRKSt5tupleIJDpT_EEPSo
FN:663,_ZN7testing8internal7PrintToIJhEEEvRKSt5tupleIJDpT_EEPSo
FN:663,_ZN7testing8internal7PrintToIJiEEEvRKSt5tupleIJDpT_EEPSo
FN:663,_ZN7testing8internal7PrintToIJEEEvRKSt5tupleIJDpT_EEPSo
FN:663,_ZN7testing8internal7PrintToIJhPFvvEiEEEvRKSt5tupleIJDpT_EEPSo
FN:663,_ZN7testing8internal7PrintToIJmEEEvRKSt5tupleIJDpT_EEPSo
FN:663,_ZN7testing8internal7PrintToIJhiiEEEvRKSt5tupleIJDpT_EEPSo
FN:663,_ZN7testing8internal7PrintToIJhhEEEvRKSt5tupleIJDpT_EEPSo
FN:663,_ZN7testing8internal7PrintToIJhhmEEEvRKSt5tupleIJDpT_EEPSo
FN:693,_ZN7testing8internal16UniversalPrinterISt5tupleIJEEE5PrintERKS3_PSo
FN:693,_ZN7testing8internal16UniversalPrinterIjE5PrintERKjPSo
FN:693,_ZN7testing8internal16UniversalPrinterISt5tupleIJjEEE5PrintERKS3_PSo
FN:693,_ZN7testing8internal16UniversalPrinterISt5tupleIJhEEE5PrintERKS3_PSo
FN:693,_ZN7testing8internal16UniversalPrinterISbIwSt11char_traitsIwESaIwEEE5PrintERKS5_PSo
FN:693,_ZN7testing8internal16UniversalPrinterIPFvvEE5PrintERKS3_PSo
FN:693,_ZN7testing8internal16UniversalPrinterISt5tupleIJiiEEE5PrintERKS3_PSo
FN:693,_ZN7testing8internal16UniversalPrinterISt5tupleIJmEEE5PrintERKS3_PSo
FN:693,_ZN7testing8internal16UniversalPrinterIlE5PrintERKlPSo
FN:693,_ZN7testing8internal16UniversalPrinterISt5tupleIJhhmEEE5PrintERKS3_PSo
FN:693,_ZN7testing8internal16UniversalPrinterIhE5PrintERKhPSo
FN:693,_ZN7testing8internal16UniversalPrinterISt5tupleIJiEEE5PrintERKS3_PSo
FN:693,_ZN7testing8internal16UniversalPrinterISt5tupleIJhiiEEE5PrintERKS3_PSo
FN:693,_ZN7testing8internal16UniversalPrinterISsE5PrintERKSsPSo
FN:693,_ZN7testing8internal16UniversalPrinterIbE5PrintERKbPSo
FN:693,_ZN7testing8internal16UniversalPrinterISt5tupleIJhiEEE5PrintERKS3_PSo
FN:693,_ZN7testing8internal16UniversalPrinterImE5PrintERKmPSo
FN:693,_ZN7testing8internal16UniversalPrinterIiE5PrintERKiPSo
FN:693,_ZN7testing8internal16UniversalPrinterISt5tupleIJhhEEE5PrintERKS3_PSo
FN:693,_ZN7testing8internal16UniversalPrinterISt5tupleIJhPFvvEiEEE5PrintERKS5_PSo
FN:693,_ZN7testing8internal16UniversalPrinterIaE5PrintERKaPSo
FN:693,_ZN7testing8internal16UniversalPrinterIfE5PrintERKfPSo
FN:693,_ZN7testing8internal16UniversalPrinterIxE5PrintERKxPSo
FN:819,_ZN7testing8internal21UniversalTersePrinterIhE5PrintERKhPSo
FN:819,_ZN7testing8internal21UniversalTersePrinterImE5PrintERKmPSo
FN:819,_ZN7testing8internal21UniversalTersePrinterIfE5PrintERKfPSo
FN:819,_ZN7testing8internal21UniversalTersePrinterIxE5PrintERKxPSo
FN:819,_ZN7testing8internal21UniversalTersePrinterIaE5PrintERKaPSo
FN:819,_ZN7testing8internal21UniversalTersePrinterIlE5PrintERKlPSo
FN:819,_ZN7testing8internal21UniversalTersePrinterIjE5PrintERKjPSo
FN:819,_ZN7testing8internal21UniversalTersePrinterIiE5PrintERKiPSo
FN:840,_ZN7testing8internal21UniversalTersePrinterIPKcE5PrintES3_PSo
FN:860,_ZN7testing8internal21UniversalTersePrinterIPKwE5PrintES3_PSo
FN:888,_ZN7testing8internal14UniversalPrintISsEEvRKT_PSo
FN:888,_ZN7testing8internal14UniversalPrintImEEvRKT_PSo
FN:888,_ZN7testing8internal14UniversalPrintISbIwSt11char_traitsIwESaIwEEEEvRKT_PSo
FN:888,_ZN7testing8internal14UniversalPrintIxEEvRKT_PSo
FN:888,_ZN7testing8internal14UniversalPrintISt5tupleIJhEEEEvRKT_PSo
FN:888,_ZN7testing8internal14UniversalPrintISt5tupleIJhiiEEEEvRKT_PSo
FN:888,_ZN7testing8internal14UniversalPrintISt5tupleIJhhEEEEvRKT_PSo
FN:888,_ZN7testing8internal14UniversalPrintIfEEvRKT_PSo
FN:888,_ZN7testing8internal14UniversalPrintIaEEvRKT_PSo
FN:888,_ZN7testing8internal14UniversalPrintISt5tupleIJEEEEvRKT_PSo
FN:888,_ZN7testing8internal14UniversalPrintIiEEvRKT_PSo
FN:888,_ZN7testing8internal14UniversalPrintISt5tupleIJhiEEEEvRKT_PSo
FN:888,_ZN7testing8internal14UniversalPrintISt5tupleIJhPFvvEiEEEEvRKT_PSo
FN:888,_ZN7testing8internal14UniversalPrintISt5tupleIJiEEEEvRKT_PSo
FN:888,_ZN7testing8internal14UniversalPrintIPFvvEEEvRKT_PSo
FN:888,_ZN7testing8internal14UniversalPrintIjEEvRKT_PSo
FN:888,_ZN7testing8internal14UniversalPrintISt5tupleIJiiEEEEvRKT_PSo
FN:888,_ZN7testing8internal14UniversalPrintISt5tupleIJhhmEEEEvRKT_PSo
FN:888,_ZN7testing8internal14UniversalPrintIlEEvRKT_PSo
FN:888,_ZN7testing8internal14UniversalPrintIhEEvRKT_PSo
FN:888,_ZN7testing8internal14UniversalPrintISt5tupleIJmEEEEvRKT_PSo
FN:888,_ZN7testing8internal14UniversalPrintISt5tupleIJjEEEEvRKT_PSo
FN:938,_ZN7testing13PrintToStringIfEESsRKT_
FN:938,_ZN7testing13PrintToStringIjEESsRKT_
FN:938,_ZN7testing13PrintToStringIlEESsRKT_
FN:938,_ZN7testing13PrintToStringIaEESsRKT_
FN:938,_ZN7testing13PrintToStringIPKcEESsRKT_
FN:938,_ZN7testing13PrintToStringIPKwEESsRKT_
FN:938,_ZN7testing13PrintToStringImEESsRKT_
FN:938,_ZN7testing13PrintToStringIiEESsRKT_
FN:938,_ZN7testing13PrintToStringIhEESsRKT_
FN:938,_ZN7testing13PrintToStringIxEESsRKT_
FNDA:0,_ZN7testing8internal7PrintToIlEEvRKT_PSo
FNDA:0,_ZN7testing8internal14DefaultPrintToIfEEvNS0_15WrapPrinterTypeILNS0_18DefaultPrinterTypeE3EEERKT_PSo
FNDA:0,_ZN7testing8internal14DefaultPrintToIFvvEEEvNS0_15WrapPrinterTypeILNS0_18DefaultPrinterTypeE2EEEPT_PSo
FNDA:0,_ZN7testing8internal7PrintToERKSbIwSt11char_traitsIwESaIwEEPSo
FNDA:0,_ZN7testing13PrintToStringIjEESsRKT_
FNDA:0,_ZN7testing8internal12PrintTupleToISt5tupleIJiiEELm2EEEvRKT_St17integral_constantImXT0_EEPSo
FNDA:0,_ZN7testing8internal19FormatForComparisonIaaE6FormatERKa
FNDA:0,_ZN7testing8internal16UniversalPrinterISt5tupleIJEEE5PrintERKS3_PSo
FNDA:0,_ZN7testing8internal12PrintTupleToISt5tupleIJhhEELm1EEEvRKT_St17integral_constantImXT0_EEPSo
FNDA:0,_ZN7testing8internal14UniversalPrintISsEEvRKT_PSo
FNDA:0,_ZN7testing8internal33FormatForComparisonFailureMessageIliEESsRKT_RKT0_
FNDA:0,_ZN16testing_internal26DefaultPrintNonContainerToImEEvRKT_PSo
FNDA:0,_ZN7testing8internal19FormatForComparisonIjiE6FormatERKj
FNDA:0,_ZN7testing8internal7PrintToIJiiEEEvRKSt5tupleIJDpT_EEPSo
FNDA:0,_ZN7testing13PrintToStringIfEESsRKT_
FNDA:0,_ZN7testing8internal12PrintTupleToISt5tupleIJhiEELm2EEEvRKT_St17integral_constantImXT0_EEPSo
FNDA:0,_ZN7testing8internal7PrintToIJhiEEEvRKSt5tupleIJDpT_EEPSo
FNDA:0,_ZN7testing8internal19FormatForComparisonIliE6FormatERKl
FNDA:0,_ZN7testing8internal33FormatForComparisonFailureMessageIijEESsRKT_RKT0_
FNDA:0,_ZN7testing8internal33FormatForComparisonFailureMessageIhjEESsRKT_RKT0_
FNDA:0,_ZN7testing8internal7PrintToIJjEEEvRKSt5tupleIJDpT_EEPSo
FNDA:0,_ZN7testing8internal16UniversalPrinterISt5tupleIJhEEE5PrintERKS3_PSo
FNDA:0,_ZN7testing8internal7PrintToIJhEEEvRKSt5tupleIJDpT_EEPSo
FNDA:0,_ZN7testing8internal16UniversalPrinterISt5tupleIJjEEE5PrintERKS3_PSo
FNDA:0,_ZN7testing8internal33FormatForComparisonFailureMessageIaaEESsRKT_RKT0_
FNDA:0,_ZN7testing8internal12PrintTupleToISt5tupleIJEEEEvRKT_St17integral_constantImLm0EEPSo
FNDA:0,_ZN7testing8internal21UniversalTersePrinterImE5PrintERKmPSo
FNDA:0,_ZN7testing8internal14UniversalPrintISt5tupleIJhEEEEvRKT_PSo
FNDA:0,_ZN7testing8internal12PrintTupleToISt5tupleIJhhmEELm3EEEvRKT_St17integral_constantImXT0_EEPSo
FNDA:0,_ZN7testing8internal16UniversalPrinterIjE5PrintERKjPSo
FNDA:0,_ZN7testing8internal21UniversalTersePrinterIhE5PrintERKhPSo
FNDA:0,_ZN7testing8internal14UniversalPrintIxEEvRKT_PSo
FNDA:0,_ZN7testing13PrintToStringIaEESsRKT_
FNDA:0,_ZN7testing8internal14UniversalPrintISbIwSt11char_traitsIwESaIwEEEEvRKT_PSo
FNDA:25,_ZN7testing8internal12PrintTupleToISt5tupleIJhiiEELm2EEEvRKT_St17integral_constantImXT0_EEPSo
FNDA:0,_ZN16testing_internal26DefaultPrintNonContainerToIfEEvRKT_PSo
FNDA:0,_ZN7testing8internal12PrintTupleToISt5tupleIJhiEELm1EEEvRKT_St17integral_constantImXT0_EEPSo
FNDA:0,_ZN7testing13PrintToStringIlEESsRKT_
FNDA:0,_ZN7testing8internal19FormatForComparisonIijE6FormatERKi
FNDA:25,_ZN7testing8internal12PrintTupleToISt5tupleIJhiiEELm1EEEvRKT_St17integral_constantImXT0_EEPSo
FNDA:0,_ZN7testing8internal14UniversalPrintImEEvRKT_PSo
FNDA:0,_ZN7testing8internal33FormatForComparisonFailureMessageImlEESsRKT_RKT0_
FNDA:0,_ZN7testing8internal33FormatForComparisonFailureMessageIjhEESsRKT_RKT0_
FNDA:25,_ZN7testing8internal12PrintTupleToISt5tupleIJhiiEELm3EEEvRKT_St17integral_constantImXT0_EEPSo
FNDA:0,_ZN7testing8internal14UniversalPrintISt5tupleIJhhEEEEvRKT_PSo
FNDA:0,_ZN7testing8internal12PrintTupleToISt5tupleIJhiEEEEvRKT_St17integral_constantImLm0EEPSo
FNDA:0,_ZN7testing8internal19FormatForComparisonIiiE6FormatERKi
FNDA:55,_ZN16testing_internal26DefaultPrintNonContainerToIiEEvRKT_PSo
FNDA:0,_ZN7testing8internal7PrintToImEEvRKT_PSo
FNDA:0,_ZN7testing8internal19FormatForComparisonIxxE6FormatERKx
FNDA:25,_ZN7testing8internal14UniversalPrintISt5tupleIJhiiEEEEvRKT_PSo
FNDA:5,_ZN7testing8internal7PrintToIJiEEEvRKSt5tupleIJDpT_EEPSo
FNDA:0,_ZN16testing_internal26DefaultPrintNonContainerToIlEEvRKT_PSo
FNDA:0,_ZN7testing8internal19FormatForComparisonIjhE6FormatERKj
FNDA:0,_ZN7testing8internal19FormatForComparisonIilE6FormatERKi
FNDA:0,_ZN7testing8internal12PrintTupleToISt5tupleIJhhmEEEEvRKT_St17integral_constantImLm0EEPSo
FNDA:0,_ZN7testing8internal7PrintToEbPSo
FNDA:0,_ZN7testing8internal12PrintTupleToISt5tupleIJjEEEEvRKT_St17integral_constantImLm0EEPSo
FNDA:0,_ZN7testing13PrintToStringIPKwEESsRKT_
FNDA:0,_ZN7testing13PrintToStringIPKcEESsRKT_
FNDA:0,_ZN7testing8internal14DefaultPrintToIjEEvNS0_15WrapPrinterTypeILNS0_18DefaultPrinterTypeE3EEERKT_PSo
FNDA:0,_ZN7testing8internal16UniversalPrinterISbIwSt11char_traitsIwESaIwEEE5PrintERKS5_PSo
FNDA:0,_ZN7testing8internal21UniversalTersePrinterIxE5PrintERKxPSo
FNDA:0,_ZN7testing8internal21UniversalTersePrinterIfE5PrintERKfPSo
FNDA:5,_ZN7testing8internal16UniversalPrinterISt5tupleIJiEEE5PrintERKS3_PSo
FNDA:25,_ZN7testing8internal16UniversalPrinterISt5tupleIJhiiEEE5PrintERKS3_PSo
FNDA:5,_ZN7testing8internal12PrintTupleToISt5tupleIJiEEEEvRKT_St17integral_constantImLm0EEPSo
FNDA:0,_ZN7testing8internal33FormatForComparisonFailureMessageIjjEESsRKT_RKT0_
FNDA:0,_ZN7testing8internal33FormatForComparisonFailureMessageIxxEESsRKT_RKT0_
FNDA:25,_ZN7testing8internal16UniversalPrinterIhE5PrintERKhPSo
FNDA:5,_ZN7testing8internal12PrintTupleToISt5tupleIJiEELm1EEEvRKT_St17integral_constantImXT0_EEPSo
FNDA:0,_ZN7testing8internal16UniversalPrinterIlE5PrintERKlPSo
FNDA:0,_ZN7testing13PrintToStringImEESsRKT_
FNDA:0,_ZN7testing13PrintToStringIiEESsRKT_
FNDA:0,_ZN7testing8internal16UniversalPrinterISt5tupleIJhhmEEE5PrintERKS3_PSo
FNDA:0,_ZN7testing8internal7PrintToIJEEEvRKSt5tupleIJDpT_EEPSo
FNDA:0,_ZN7testing8internal14UniversalPrintISt5tupleIJEEEEvRKT_PSo
FNDA:0,_ZN7testing8internal16UniversalPrinterISt5tupleIJmEEE5PrintERKS3_PSo
FNDA:0,_ZN7testing8internal21UniversalTersePrinterIPKwE5PrintES3_PSo
FNDA:0,_ZN7testing8internal16UniversalPrinterISt5tupleIJiiEEE5PrintERKS3_PSo
FNDA:0,_ZN7testing8internal14UniversalPrintIaEEvRKT_PSo
FNDA:0,_ZN7testing8internal14UniversalPrintIfEEvRKT_PSo
FNDA:0,_ZN7testing8internal16UniversalPrinterIPFvvEE5PrintERKS3_PSo
FNDA:0,_ZN7testing8internal7PrintToIJmEEEvRKSt5tupleIJDpT_EEPSo
FNDA:0,_ZN7testing8internal16UniversalPrinterISt5tupleIJhiEEE5PrintERKS3_PSo
FNDA:5,_ZN7testing8internal14UniversalPrintISt5tupleIJiEEEEvRKT_PSo
FNDA:0,_ZN7testing8internal12PrintTupleToISt5tupleIJhPFvvEiEELm1EEEvRKT_St17integral_constantImXT0_EEPSo
FNDA:0,_ZN7testing8internal16UniversalPrinterIbE5PrintERKbPSo
FNDA:0,_ZN7testing8internal12PrintTupleToISt5tupleIJmEEEEvRKT_St17integral_constantImLm0EEPSo
FNDA:0,_ZN7testing8internal14UniversalPrintISt5tupleIJhPFvvEiEEEEvRKT_PSo
FNDA:55,_ZN7testing8internal7PrintToIiEEvRKT_PSo
FNDA:0,_ZN7testing8internal33FormatForComparisonFailureMessageIllEESsRKT_RKT0_
FNDA:0,_ZN7testing8internal7PrintToIJhPFvvEiEEEvRKSt5tupleIJDpT_EEPSo
FNDA:0,_ZN7testing8internal21UniversalTersePrinterIaE5PrintERKaPSo
FNDA:0,_ZN7testing8internal33FormatForComparisonFailureMessageIiiEESsRKT_RKT0_
FNDA:0,_ZN7testing8internal21UniversalTersePrinterIlE5PrintERKlPSo
FNDA:0,_ZN7testing8internal14UniversalPrintIiEEvRKT_PSo
FNDA:0,_ZN7testing8internal16UniversalPrinterISsE5PrintERKSsPSo
FNDA:0,_ZN7testing8internal14UniversalPrintISt5tupleIJhiEEEEvRKT_PSo
FNDA:0,_ZN7testing8internal19FormatForComparisonIffE6FormatERKf
FNDA:0,_ZN7testing8internal19FormatForComparisonIlmE6FormatERKl
FNDA:0,_ZN7testing8internal33FormatForComparisonFailureMessageIilEESsRKT_RKT0_
FNDA:0,_ZN7testing8internal33FormatForComparisonFailureMessageIffEESsRKT_RKT0_
FNDA:0,_ZN7testing8internal33FormatForComparisonFailureMessageIhhEESsRKT_RKT0_
FNDA:0,_ZN7testing8internal19FormatForComparisonIhjE6FormatERKh
FNDA:0,_ZN7testing8internal14UniversalPrintISt5tupleIJiiEEEEvRKT_PSo
FNDA:55,_ZN7testing8internal16UniversalPrinterIiE5PrintERKiPSo
FNDA:55,_ZN7testing8internal14DefaultPrintToIiEEvNS0_15WrapPrinterTypeILNS0_18DefaultPrinterTypeE3EEERKT_PSo
FNDA:0,_ZN7testing8internal12PrintTupleToISt5tupleIJhPFvvEiEELm3EEEvRKT_St17integral_constantImXT0_EEPSo
FNDA:0,_ZN7testing8internal14UniversalPrintIjEEvRKT_PSo
FNDA:0,_ZN7testing8internal12PrintTupleToISt5tupleIJmEELm1EEEvRKT_St17integral_constantImXT0_EEPSo
FNDA:0,_ZN7testing8internal14DefaultPrintToIlEEvNS0_15WrapPrinterTypeILNS0_18DefaultPrinterTypeE3EEERKT_PSo
FNDA:0,_ZN7testing8internal12PrintTupleToISt5tupleIJhPFvvEiEELm2EEEvRKT_St17integral_constantImXT0_EEPSo
FNDA:0,_ZN7testing8internal7PrintToIjEEvRKT_PSo
FNDA:0,_ZN7testing8internal16UniversalPrinterImE5PrintERKmPSo
FNDA:0,_ZN7testing8internal14UniversalPrintIPFvvEEEvRKT_PSo
FNDA:0,_ZN7testing8internal12PrintTupleToISt5tupleIJhEELm1EEEvRKT_St17integral_constantImXT0_EEPSo
FNDA:0,_ZN7testing8internal7PrintToIJhhmEEEvRKSt5tupleIJDpT_EEPSo
FNDA:0,_ZN7testing8internal12PrintTupleToISt5tupleIJjEELm1EEEvRKT_St17integral_constantImXT0_EEPSo
FNDA:0,_ZN7testing8internal12PrintTupleToISt5tupleIJhhmEELm2EEEvRKT_St17integral_constantImXT0_EEPSo
FNDA:0,_ZN7testing8internal16UniversalPrinterIaE5PrintERKaPSo
FNDA:0,_ZN7testing8internal7PrintToIJhhEEEvRKSt5tupleIJDpT_EEPSo
FNDA:0,_ZN7testing8internal16UniversalPrinterIfE5PrintERKfPSo
FNDA:0,_ZN7testing8internal14UniversalPrintIlEEvRKT_PSo
FNDA:0,_ZN16testing_internal26DefaultPrintNonContainerToIjEEvRKT_PSo
FNDA:0,_ZN7testing8internal12PrintTupleToISt5tupleIJiiEEEEvRKT_St17integral_constantImLm0EEPSo
FNDA:0,_ZN7testing8internal33FormatForComparisonFailureMessageImmEESsRKT_RKT0_
FNDA:0,_ZN7testing8internal21UniversalTersePrinterIjE5PrintERKjPSo
FNDA:0,_ZN7testing8internal14UniversalPrintISt5tupleIJhhmEEEEvRKT_PSo
FNDA:0,_ZN7testing8internal7PrintToIxEEvRKT_PSo
FNDA:0,_ZN7testing8internal14DefaultPrintToImEEvNS0_15WrapPrinterTypeILNS0_18DefaultPrinterTypeE3EEERKT_PSo
FNDA:0,_ZN7testing8internal16UniversalPrinterISt5tupleIJhPFvvEiEEE5PrintERKS5_PSo
FNDA:0,_ZN7testing8internal12PrintTupleToISt5tupleIJhhEELm2EEEvRKT_St17integral_constantImXT0_EEPSo
FNDA:0,_ZN7testing8internal12PrintTupleToISt5tupleIJhhEEEEvRKT_St17integral_constantImLm0EEPSo
FNDA:25,_ZN7testing8internal12PrintTupleToISt5tupleIJhiiEEEEvRKT_St17integral_constantImLm0EEPSo
FNDA:0,_ZN7testing8internal16UniversalPrinterISt5tupleIJhhEEE5PrintERKS3_PSo
FNDA:0,_ZN7testing8internal12PrintTupleToISt5tupleIJhPFvvEiEEEEvRKT_St17integral_constantImLm0EEPSo
FNDA:0,_ZN7testing8internal12PrintTupleToISt5tupleIJhEEEEvRKT_St17integral_constantImLm0EEPSo
FNDA:0,_ZN7testing8internal33FormatForComparisonFailureMessageIlmEESsRKT_RKT0_
FNDA:0,_ZN7testing8internal19FormatForComparisonIhhE6FormatERKh
FNDA:0,_ZN7testing8internal7PrintToERKSsPSo
FNDA:25,_ZN7testing8internal7PrintToIJhiiEEEvRKSt5tupleIJDpT_EEPSo
FNDA:0,_ZN7testing13PrintToStringIxEESsRKT_
FNDA:0,_ZN7testing8internal14DefaultPrintToIxEEvNS0_15WrapPrinterTypeILNS0_18DefaultPrinterTypeE3EEERKT_PSo
FNDA:0,_ZN16testing_internal26DefaultPrintNonContainerToIxEEvRKT_PSo
FNDA:0,_ZN7testing8internal19FormatForComparisonIjjE6FormatERKj
FNDA:0,_ZN7testing8internal14UniversalPrintISt5tupleIJmEEEEvRKT_PSo
FNDA:0,_ZN7testing8internal21UniversalTersePrinterIiE5PrintERKiPSo
FNDA:0,_ZN7testing8internal7PrintToIPFvvEEEvRKT_PSo
FNDA:0,_ZN7testing8internal14UniversalPrintISt5tupleIJjEEEEvRKT_PSo
FNDA:0,_ZN7testing8internal7PrintToIfEEvRKT_PSo
FNDA:0,_ZN7testing8internal16UniversalPrinterIxE5PrintERKxPSo
FNDA:0,_ZN7testing8internal19FormatForComparisonImmE6FormatERKm
FNDA:0,_ZN7testing8internal19FormatForComparisonImlE6FormatERKm
FNDA:0,_ZN7testing8internal21UniversalTersePrinterIPKcE5PrintES3_PSo
FNDA:0,_ZN7testing8internal12PrintTupleToISt5tupleIJiiEELm1EEEvRKT_St17integral_constantImXT0_EEPSo
FNDA:0,_ZN7testing8internal14UniversalPrintIhEEvRKT_PSo
FNDA:0,_ZN7testing8internal33FormatForComparisonFailureMessageIjiEESsRKT_RKT0_
FNDA:0,_ZN7testing8internal19FormatForComparisonIllE6FormatERKl
FNDA:0,_ZN7testing13PrintToStringIhEESsRKT_
FNDA:0,_ZN7testing8internal12PrintTupleToISt5tupleIJhhmEELm1EEEvRKT_St17integral_constantImXT0_EEPSo
FNF:161
FNH:17
DA:259,55
DA:286,55
DA:287,55
DA:312,0
DA:313,0
DA:386,0
DA:388,0
DA:460,0
DA:462,0
DA:463,0
DA:468,0
DA:470,0
DA:475,55
DA:477,55
DA:478,55
DA:492,55
DA:512,55
DA:523,55
DA:540,0
DA:541,0
DA:542,0
DA:610,0
DA:611,0
DA:612,0
DA:624,0
DA:625,0
DA:626,0
DA:646,30
DA:647,30
DA:650,80
DA:652,80
DA:656,50
DA:658,80
DA:659,80
DA:660,80
DA:663,30
DA:664,30
DA:665,30
DA:666,30
DA:667,30
DA:693,110
DA:702,110
DA:703,110
DA:819,0
DA:820,0
DA:821,0
DA:840,0
DA:841,0
DA:842,0
DA:844,0
DA:846,0
DA:860,0
DA:861,0
DA:862,0
DA:864,0
DA:866,0
DA:888,30
DA:892,30
DA:893,30
DA:938,0
DA:939,0
DA:940,0
DA:941,0
LF:63
LH:28
end_of_record
TN:
SF:/home/travis/build/platisd/smartcar_shield/test/build/googletest-src/googletest/include/gtest/gtest-test-part.h
FN:49,_ZN7testing14TestPartResultC2EOS0_
FN:49,_ZN7testing14TestPartResultC2ERKS0_
FN:49,_ZN7testing14TestPartResultD2Ev
FN:63,_ZN7testing14TestPartResultC2ENS0_4TypeEPKciS3_
FN:72,_ZNK7testing14TestPartResult4typeEv
FN:76,_ZNK7testing14TestPartResult9file_nameEv
FN:82,_ZNK7testing14TestPartResult11line_numberEv
FN:85,_ZNK7testing14TestPartResult7summaryEv
FN:88,_ZNK7testing14TestPartResult7messageEv
FN:91,_ZNK7testing14TestPartResult7skippedEv
FN:97,_ZNK7testing14TestPartResult17nonfatally_failedEv
FN:100,_ZNK7testing14TestPartResult14fatally_failedEv
FN:103,_ZNK7testing14TestPartResult6failedEv
FN:149,_ZN7testing31TestPartResultReporterInterfaceC2Ev
FN:151,_ZN7testing31TestPartResultReporterInterfaceD2Ev
FN:151,_ZN7testing31TestPartResultReporterInterfaceD0Ev
FNDA:0,_ZNK7testing14TestPartResult9file_nameEv
FNDA:0,_ZN7testing14TestPartResultC2ERKS0_
FNDA:0,_ZN7testing14TestPartResultC2ENS0_4TypeEPKciS3_
FNDA:0,_ZNK7testing14TestPartResult11line_numberEv
FNDA:0,_ZNK7testing14TestPartResult7messageEv
FNDA:0,_ZNK7testing14TestPartResult7summaryEv
FNDA:0,_ZN7testing14TestPartResultD2Ev
FNDA:0,_ZNK7testing14TestPartResult4typeEv
FNDA:512,_ZN7testing31TestPartResultReporterInterfaceC2Ev
FNDA:0,_ZN7testing31TestPartResultReporterInterfaceD0Ev
FNDA:480,_ZN7testing31TestPartResultReporterInterfaceD2Ev
FNDA:0,_ZN7testing14TestPartResultC2EOS0_
FNDA:0,_ZNK7testing14TestPartResult14fatally_failedEv
FNDA:0,_ZNK7testing14TestPartResult17nonfatally_failedEv
FNDA:0,_ZNK7testing14TestPartResult7skippedEv
FNDA:0,_ZNK7testing14TestPartResult6failedEv
FNF:16
FNH:2
DA:49,0
DA:63,0
DA:69,0
DA:72,0
DA:76,0
DA:77,0
DA:82,0
DA:85,0
DA:88,0
DA:91,0
DA:97,0
DA:100,0
DA:103,0
DA:149,512
DA:151,480
LF:15
LH:2
end_of_record
TN:
SF:/home/travis/build/platisd/smartcar_shield/test/build/googletest-src/googletest/include/gtest/gtest.h
FN:288,_ZN7testing15AssertionResultD2Ev
FN:306,_ZN7testing15AssertionResultC2IbEERKT_PNS_8internal8EnableIfIXntsrSt14is_convertibleIS2_S0_E5valueEE4typeE
FN:325,_ZNK7testing15AssertionResultcvbEv
FN:334,_ZNK7testing15AssertionResult7messageEv
FN:338,_ZNK7testing15AssertionResult15failure_messageEv
FN:341,_ZN7testing15AssertionResultlsISsEERS0_RKT_
FN:341,_ZN7testing15AssertionResultlsIdEERS0_RKT_
FN:341,_ZN7testing15AssertionResultlsIA7_cEERS0_RKT_
FN:341,_ZN7testing15AssertionResultlsIA15_cEERS0_RKT_
FN:341,_ZN7testing15AssertionResultlsIA29_cEERS0_RKT_
FN:341,_ZN7testing15AssertionResultlsINS_7MessageEEERS0_RKT_
FN:341,_ZN7testing15AssertionResultlsISbIwSt11char_traitsIwESaIwEEEERS0_RKT_
FN:341,_ZN7testing15AssertionResultlsIA14_cEERS0_RKT_
FN:341,_ZN7testing15AssertionResultlsIPKwEERS0_RKT_
FN:341,_ZN7testing15AssertionResultlsIA13_cEERS0_RKT_
FN:341,_ZN7testing15AssertionResultlsIA5_cEERS0_RKT_
FN:341,_ZN7testing15AssertionResultlsINS_14TestPartResultEEERS0_RKT_
FN:341,_ZN7testing15AssertionResultlsIA17_cEERS0_RKT_
FN:341,_ZN7testing15AssertionResultlsIA12_cEERS0_RKT_
FN:341,_ZN7testing15AssertionResultlsIA24_cEERS0_RKT_
FN:341,_ZN7testing15AssertionResultlsIA6_cEERS0_RKT_
FN:341,_ZN7testing15AssertionResultlsIA2_cEERS0_RKT_
FN:341,_ZN7testing15AssertionResultlsIA9_cEERS0_RKT_
FN:341,_ZN7testing15AssertionResultlsIA3_cEERS0_RKT_
FN:341,_ZN7testing15AssertionResultlsIA11_cEERS0_RKT_
FN:341,_ZN7testing15AssertionResultlsIPKcEERS0_RKT_
FN:341,_ZN7testing15AssertionResultlsIA16_cEERS0_RKT_
FN:356,_ZN7testing15AssertionResult13AppendMessageERKNS_7MessageE
FN:428,_ZN7testing4Test14SetUpTestSuiteEv
FN:436,_ZN7testing4Test17TearDownTestSuiteEv
FN:440,_ZN7testing4Test16TearDownTestCaseEv
FN:441,_ZN7testing4Test13SetUpTestCaseEv
FN:501,_ZN7testing4Test11DeleteSelf_Ev
FN:522,_ZN7testing4Test5SetupEv
FN:534,_ZN7testing12TestPropertyC2ERKS0_
FN:534,_ZN7testing12TestPropertyC2EOS0_
FN:534,_ZN7testing12TestPropertyD2Ev
FN:539,_ZN7testing12TestPropertyC2ERKSsS2_
FN:544,_ZNK7testing12TestProperty3keyEv
FN:549,_ZNK7testing12TestProperty5valueEv
FN:554,_ZN7testing12TestProperty8SetValueERKSs
FN:587,_ZNK7testing10TestResult6PassedEv
FN:602,_ZNK7testing10TestResult12elapsed_timeEv
FN:635,_ZN7testing10TestResult16set_elapsed_timeEx
FN:656,_ZNK7testing10TestResult16death_test_countEv
FN:659,_ZN7testing10TestResult26increment_death_test_countEv
FN:702,_ZNK7testing8TestInfo15test_suite_nameEv
FN:710,_ZNK7testing8TestInfo4nameEv
FN:714,_ZNK7testing8TestInfo10type_paramEv
FN:721,_ZNK7testing8TestInfo11value_paramEv
FN:727,_ZNK7testing8TestInfo4fileEv
FN:730,_ZNK7testing8TestInfo4lineEv
FN:733,_ZNK7testing8TestInfo19is_in_another_shardEv
FN:751,_ZNK7testing8TestInfo10should_runEv
FN:754,_ZNK7testing8TestInfo13is_reportableEv
FN:761,_ZNK7testing8TestInfo6resultEv
FN:789,_ZN7testing8TestInfo26increment_death_test_countEv
FN:797,_ZN7testing8TestInfo15ClearTestResultEPS0_
FN:852,_ZNK7testing9TestSuite4nameEv
FN:856,_ZNK7testing9TestSuite10type_paramEv
FN:862,_ZNK7testing9TestSuite10should_runEv
FN:889,_ZNK7testing9TestSuite6PassedEv
FN:892,_ZNK7testing9TestSuite6FailedEv
FN:895,_ZNK7testing9TestSuite12elapsed_timeEv
FN:903,_ZNK7testing9TestSuite18ad_hoc_test_resultEv
FN:910,_ZN7testing9TestSuite14test_info_listEv
FN:913,_ZNK7testing9TestSuite14test_info_listEv
FN:922,_ZN7testing9TestSuite14set_should_runEb
FN:932,_ZN7testing9TestSuite20ClearTestSuiteResultEPS0_
FN:941,_ZN7testing9TestSuite17RunSetUpTestSuiteEv
FN:949,_ZN7testing9TestSuite20RunTearDownTestSuiteEv
FN:956,_ZN7testing9TestSuite10TestPassedEPKNS_8TestInfoE
FN:961,_ZN7testing9TestSuite11TestSkippedEPKNS_8TestInfoE
FN:966,_ZN7testing9TestSuite10TestFailedEPKNS_8TestInfoE
FN:972,_ZN7testing9TestSuite22TestReportableDisabledEPKNS_8TestInfoE
FN:977,_ZN7testing9TestSuite12TestDisabledEPKNS_8TestInfoE
FN:982,_ZN7testing9TestSuite14TestReportableEPKNS_8TestInfoE
FN:987,_ZN7testing9TestSuite13ShouldRunTestEPKNS_8TestInfoE
FN:1070,_ZN7testing17TestEventListenerC2Ev
FN:1072,_ZN7testing17TestEventListenerD2Ev
FN:1072,_ZN7testing17TestEventListenerD0Ev
FN:1090,_ZN7testing17TestEventListener16OnTestSuiteStartERKNS_9TestSuiteE
FN:1094,_ZN7testing17TestEventListener15OnTestCaseStartERKNS_9TestSuiteE
FN:1109,_ZN7testing17TestEventListener14OnTestSuiteEndERKNS_9TestSuiteE
FN:1113,_ZN7testing17TestEventListener13OnTestCaseEndERKNS_9TestSuiteE
FN:1135,_ZN7testing22EmptyTestEventListenerD0Ev
FN:1135,_ZN7testing22EmptyTestEventListenerC2Ev
FN:1135,_ZN7testing22EmptyTestEventListenerD2Ev
FN:1137,_ZN7testing22EmptyTestEventListener18OnTestProgramStartERKNS_8UnitTestE
FN:1138,_ZN7testing22EmptyTestEventListener20OnTestIterationStartERKNS_8UnitTestEi
FN:1140,_ZN7testing22EmptyTestEventListener24OnEnvironmentsSetUpStartERKNS_8UnitTestE
FN:1141,_ZN7testing22EmptyTestEventListener22OnEnvironmentsSetUpEndERKNS_8UnitTestE
FN:1142,_ZN7testing22EmptyTestEventListener16OnTestSuiteStartERKNS_9TestSuiteE
FN:1145,_ZN7testing22EmptyTestEventListener15OnTestCaseStartERKNS_9TestSuiteE
FN:1148,_ZN7testing22EmptyTestEventListener11OnTestStartERKNS_8TestInfoE
FN:1149,_ZN7testing22EmptyTestEventListener16OnTestPartResultERKNS_14TestPartResultE
FN:1150,_ZN7testing22EmptyTestEventListener9OnTestEndERKNS_8TestInfoE
FN:1151,_ZN7testing22EmptyTestEventListener14OnTestSuiteEndERKNS_9TestSuiteE
FN:1153,_ZN7testing22EmptyTestEventListener13OnTestCaseEndERKNS_9TestSuiteE
FN:1156,_ZN7testing22EmptyTestEventListener27OnEnvironmentsTearDownStartERKNS_8UnitTestE
FN:1157,_ZN7testing22EmptyTestEventListener25OnEnvironmentsTearDownEndERKNS_8UnitTestE
FN:1158,_ZN7testing22EmptyTestEventListener18OnTestIterationEndERKNS_8UnitTestEi
FN:1160,_ZN7testing22EmptyTestEventListener16OnTestProgramEndERKNS_8UnitTestE
FN:1405,_ZN7testing8UnitTest4implEv
FN:1406,_ZNK7testing8UnitTest4implEv
FN:1493,_ZN7testing8internal18CmpHelperEQFailureIffEENS_15AssertionResultEPKcS4_RKT_RKT0_
FN:1493,_ZN7testing8internal18CmpHelperEQFailureImmEENS_15AssertionResultEPKcS4_RKT_RKT0_
FN:1493,_ZN7testing8internal18CmpHelperEQFailureIjhEENS_15AssertionResultEPKcS4_RKT_RKT0_
FN:1493,_ZN7testing8internal18CmpHelperEQFailureIiiEENS_15AssertionResultEPKcS4_RKT_RKT0_
FN:1493,_ZN7testing8internal18CmpHelperEQFailureIjiEENS_15AssertionResultEPKcS4_RKT_RKT0_
FN:1493,_ZN7testing8internal18CmpHelperEQFailureIlmEENS_15AssertionResultEPKcS4_RKT_RKT0_
FN:1493,_ZN7testing8internal18CmpHelperEQFailureIhhEENS_15AssertionResultEPKcS4_RKT_RKT0_
FN:1493,_ZN7testing8internal18CmpHelperEQFailureIjjEENS_15AssertionResultEPKcS4_RKT_RKT0_
FN:1493,_ZN7testing8internal18CmpHelperEQFailureIaaEENS_15AssertionResultEPKcS4_RKT_RKT0_
FN:1493,_ZN7testing8internal18CmpHelperEQFailureIijEENS_15AssertionResultEPKcS4_RKT_RKT0_
FN:1493,_ZN7testing8internal18CmpHelperEQFailureIliEENS_15AssertionResultEPKcS4_RKT_RKT0_
FN:1493,_ZN7testing8internal18CmpHelperEQFailureIllEENS_15AssertionResultEPKcS4_RKT_RKT0_
FN:1512,_ZN7testing8internal11CmpHelperEQIlmEENS_15AssertionResultEPKcS4_RKT_RKT0_
FN:1512,_ZN7testing8internal11CmpHelperEQIffEENS_15AssertionResultEPKcS4_RKT_RKT0_
FN:1512,_ZN7testing8internal11CmpHelperEQImmEENS_15AssertionResultEPKcS4_RKT_RKT0_
FN:1512,_ZN7testing8internal11CmpHelperEQIaaEENS_15AssertionResultEPKcS4_RKT_RKT0_
FN:1512,_ZN7testing8internal11CmpHelperEQIiiEENS_15AssertionResultEPKcS4_RKT_RKT0_
FN:1512,_ZN7testing8internal11CmpHelperEQIjjEENS_15AssertionResultEPKcS4_RKT_RKT0_
FN:1512,_ZN7testing8internal11CmpHelperEQIijEENS_15AssertionResultEPKcS4_RKT_RKT0_
FN:1512,_ZN7testing8internal11CmpHelperEQIhhEENS_15AssertionResultEPKcS4_RKT_RKT0_
FN:1512,_ZN7testing8internal11CmpHelperEQIjhEENS_15AssertionResultEPKcS4_RKT_RKT0_
FN:1512,_ZN7testing8internal11CmpHelperEQIllEENS_15AssertionResultEPKcS4_RKT_RKT0_
FN:1512,_ZN7testing8internal11CmpHelperEQIliEENS_15AssertionResultEPKcS4_RKT_RKT0_
FN:1512,_ZN7testing8internal11CmpHelperEQIjiEENS_15AssertionResultEPKcS4_RKT_RKT0_
FN:1540,_ZN7testing8internal8EqHelperILb0EE7CompareIijEENS_15AssertionResultEPKcS6_RKT_RKT0_
FN:1540,_ZN7testing8internal8EqHelperILb0EE7CompareIhhEENS_15AssertionResultEPKcS6_RKT_RKT0_
FN:1540,_ZN7testing8internal8EqHelperILb0EE7CompareIffEENS_15AssertionResultEPKcS6_RKT_RKT0_
FN:1540,_ZN7testing8internal8EqHelperILb0EE7CompareIaaEENS_15AssertionResultEPKcS6_RKT_RKT0_
FN:1540,_ZN7testing8internal8EqHelperILb0EE7CompareIlmEENS_15AssertionResultEPKcS6_RKT_RKT0_
FN:1540,_ZN7testing8internal8EqHelperILb0EE7CompareImmEENS_15AssertionResultEPKcS6_RKT_RKT0_
FN:1540,_ZN7testing8internal8EqHelperILb0EE7CompareIjhEENS_15AssertionResultEPKcS6_RKT_RKT0_
FN:1540,_ZN7testing8internal8EqHelperILb0EE7CompareIiiEENS_15AssertionResultEPKcS6_RKT_RKT0_
FN:1540,_ZN7testing8internal8EqHelperILb0EE7CompareIliEENS_15AssertionResultEPKcS6_RKT_RKT0_
FN:1540,_ZN7testing8internal8EqHelperILb0EE7CompareIllEENS_15AssertionResultEPKcS6_RKT_RKT0_
FN:1540,_ZN7testing8internal8EqHelperILb0EE7CompareIjjEENS_15AssertionResultEPKcS6_RKT_RKT0_
FN:1540,_ZN7testing8internal8EqHelperILb0EE7CompareIjiEENS_15AssertionResultEPKcS6_RKT_RKT0_
FN:1571,_ZN7testing8internal8EqHelperILb1EE7CompareIijEENS_15AssertionResultEPKcS6_RKT_RKT0_PNS0_8EnableIfIXntsrSt10is_pointerISA_E5valueEE4typeE
FN:1607,_ZN7testing8internal18CmpHelperOpFailureIliEENS_15AssertionResultEPKcS4_RKT_RKT0_S4_
FN:1607,_ZN7testing8internal18CmpHelperOpFailureIiiEENS_15AssertionResultEPKcS4_RKT_RKT0_S4_
FN:1647,_ZN7testing8internal11CmpHelperLTIliEENS_15AssertionResultEPKcS4_RKT_RKT0_
FN:1651,_ZN7testing8internal11CmpHelperGTIiiEENS_15AssertionResultEPKcS4_RKT_RKT0_
FN:1651,_ZN7testing8internal11CmpHelperGTIliEENS_15AssertionResultEPKcS4_RKT_RKT0_
FN:1752,_ZN7testing8internal24CmpHelperFloatingPointEQIfEENS_15AssertionResultEPKcS4_T_S5_
FN:1807,_ZN7testing8internal12AssertHelper16AssertHelperDataD2Ev
FN:1808,_ZN7testing8internal12AssertHelper16AssertHelperDataC2ENS_14TestPartResult4TypeEPKciS6_
FN:2498,_Z13RUN_ALL_TESTSv
FNDA:0,_ZN7testing15AssertionResult13AppendMessageERKNS_7MessageE
FNDA:45,_ZN7testing8internal8EqHelperILb0EE7CompareIjhEENS_15AssertionResultEPKcS6_RKT_RKT0_
FNDA:0,_ZN7testing15AssertionResultlsIA24_cEERS0_RKT_
FNDA:95,_ZN7testing8internal8EqHelperILb0EE7CompareIiiEENS_15AssertionResultEPKcS6_RKT_RKT0_
FNDA:0,_ZN7testing12TestPropertyC2ERKS0_
FNDA:0,_ZN7testing22EmptyTestEventListenerC2Ev
FNDA:40,_ZN7testing8internal11CmpHelperEQIliEENS_15AssertionResultEPKcS4_RKT_RKT0_
FNDA:10,_ZN7testing8internal8EqHelperILb1EE7CompareIijEENS_15AssertionResultEPKcS6_RKT_RKT0_PNS0_8EnableIfIXntsrSt10is_pointerISA_E5valueEE4typeE
FNDA:40,_ZN7testing8internal8EqHelperILb0EE7CompareIliEENS_15AssertionResultEPKcS6_RKT_RKT0_
FNDA:0,_ZN7testing8internal18CmpHelperEQFailureIijEENS_15AssertionResultEPKcS4_RKT_RKT0_
FNDA:10,_ZN7testing8internal8EqHelperILb0EE7CompareIllEENS_15AssertionResultEPKcS6_RKT_RKT0_
FNDA:2720,_ZN7testing17TestEventListener14OnTestSuiteEndERKNS_9TestSuiteE
FNDA:0,_ZN7testing8internal18CmpHelperEQFailureIliEENS_15AssertionResultEPKcS4_RKT_RKT0_
FNDA:12850,_ZN7testing10TestResult16set_elapsed_timeEx
FNDA:0,_ZN7testing15AssertionResultlsIA2_cEERS0_RKT_
FNDA:0,_ZN7testing15AssertionResultlsIA6_cEERS0_RKT_
FNDA:0,_ZN7testing8internal18CmpHelperEQFailureIaaEENS_15AssertionResultEPKcS4_RKT_RKT0_
FNDA:0,_ZN7testing15AssertionResultlsIA9_cEERS0_RKT_
FNDA:150,_ZN7testing8internal11CmpHelperGTIiiEENS_15AssertionResultEPKcS4_RKT_RKT0_
FNDA:5684,_ZN7testing9TestSuite14test_info_listEv
FNDA:0,_ZNK7testing8TestInfo11value_paramEv
FNDA:0,_ZN7testing15AssertionResultlsIA3_cEERS0_RKT_
FNDA:2720,_ZNK7testing9TestSuite12elapsed_timeEv
FNDA:0,_ZNK7testing15AssertionResult15failure_messageEv
FNDA:0,_ZN7testing22EmptyTestEventListener27OnEnvironmentsTearDownStartERKNS_8UnitTestE
FNDA:0,_ZN7testing8internal18CmpHelperOpFailureIliEENS_15AssertionResultEPKcS4_RKT_RKT0_S4_
FNDA:0,_ZN7testing17TestEventListenerD0Ev
FNDA:12850,_ZNK7testing8TestInfo13is_reportableEv
FNDA:0,_ZN7testing8internal12AssertHelper16AssertHelperDataD2Ev
FNDA:2720,_ZN7testing17TestEventListener16OnTestSuiteStartERKNS_9TestSuiteE
FNDA:112,_Z13RUN_ALL_TESTSv
FNDA:0,_ZN7testing22EmptyTestEventListener20OnTestIterationStartERKNS_8UnitTestEi
FNDA:0,_ZN7testing22EmptyTestEventListener25OnEnvironmentsTearDownEndERKNS_8UnitTestE
FNDA:0,_ZN7testing22EmptyTestEventListener16OnTestPartResultERKNS_14TestPartResultE
FNDA:0,_ZN7testing22EmptyTestEventListener18OnTestIterationEndERKNS_8UnitTestEi
FNDA:0,_ZN7testing22EmptyTestEventListener16OnTestSuiteStartERKNS_9TestSuiteE
FNDA:0,_ZN7testing9TestSuite12TestDisabledEPKNS_8TestInfoE
FNDA:0,_ZN7testing15AssertionResultlsIA11_cEERS0_RKT_
FNDA:0,_ZN7testing22EmptyTestEventListenerD2Ev
FNDA:625,_ZNK7testing15AssertionResultcvbEv
FNDA:12850,_ZN7testing4Test11DeleteSelf_Ev
FNDA:2720,_ZN7testing9TestSuite20RunTearDownTestSuiteEv
FNDA:0,_ZNK7testing15AssertionResult7messageEv
FNDA:12850,_ZNK7testing9TestSuite14test_info_listEv
FNDA:0,_ZN7testing15AssertionResultlsIPKcEERS0_RKT_
FNDA:625,_ZN7testing15AssertionResultD2Ev
FNDA:0,_ZN7testing22EmptyTestEventListener9OnTestEndERKNS_8TestInfoE
FNDA:69540,_ZNK7testing8TestInfo4nameEv
FNDA:5440,_ZNK7testing9TestSuite6FailedEv
FNDA:2720,_ZN7testing9TestSuite17RunSetUpTestSuiteEv
FNDA:38550,_ZN7testing9TestSuite10TestFailedEPKNS_8TestInfoE
FNDA:12850,_ZN7testing9TestSuite11TestSkippedEPKNS_8TestInfoE
FNDA:0,_ZN7testing12TestPropertyC2EOS0_
FNDA:5,_ZN7testing8internal11CmpHelperEQIjiEENS_15AssertionResultEPKcS4_RKT_RKT0_
FNDA:0,_ZN7testing15AssertionResultlsIA16_cEERS0_RKT_
FNDA:0,_ZNK7testing9TestSuite18ad_hoc_test_resultEv
FNDA:43840,_ZNK7testing8TestInfo15test_suite_nameEv
FNDA:115650,_ZNK7testing8TestInfo10should_runEv
FNDA:0,_ZN7testing22EmptyTestEventListener16OnTestProgramEndERKNS_8UnitTestE
FNDA:2720,_ZN7testing9TestSuite20ClearTestSuiteResultEPS0_
FNDA:5,_ZN7testing8internal11CmpHelperGTIliEENS_15AssertionResultEPKcS4_RKT_RKT0_
FNDA:0,_ZN7testing22EmptyTestEventListener14OnTestSuiteEndERKNS_9TestSuiteE
FNDA:0,_ZNK7testing8TestInfo4lineEv
FNDA:70,_ZN7testing8internal8EqHelperILb0EE7CompareIjjEENS_15AssertionResultEPKcS6_RKT_RKT0_
FNDA:5,_ZN7testing8internal8EqHelperILb0EE7CompareIjiEENS_15AssertionResultEPKcS6_RKT_RKT0_
FNDA:0,_ZN7testing4Test13SetUpTestCaseEv
FNDA:0,_ZN7testing8internal18CmpHelperEQFailureIllEENS_15AssertionResultEPKcS4_RKT_RKT0_
FNDA:0,_ZN7testing4Test16TearDownTestCaseEv
FNDA:0,_ZN7testing12TestPropertyD2Ev
FNDA:0,_ZN7testing10TestResult26increment_death_test_countEv
FNDA:12850,_ZNK7testing10TestResult12elapsed_timeEv
FNDA:0,_ZN7testing8internal18CmpHelperOpFailureIiiEENS_15AssertionResultEPKcS4_RKT_RKT0_S4_
FNDA:5,_ZN7testing8internal11CmpHelperLTIliEENS_15AssertionResultEPKcS4_RKT_RKT0_
FNDA:0,_ZN7testing12TestPropertyC2ERKSsS2_
FNDA:0,_ZN7testing8internal18CmpHelperEQFailureIffEENS_15AssertionResultEPKcS4_RKT_RKT0_
FNDA:0,_ZN7testing15AssertionResultlsIdEERS0_RKT_
FNDA:0,_ZN7testing15AssertionResultlsISsEERS0_RKT_
FNDA:9002,_ZNK7testing9TestSuite4nameEv
FNDA:0,_ZN7testing12TestProperty8SetValueERKSs
FNDA:2570,_ZNK7testing8TestInfo10type_paramEv
FNDA:12850,_ZN7testing9TestSuite22TestReportableDisabledEPKNS_8TestInfoE
FNDA:0,_ZN7testing8internal18CmpHelperEQFailureImmEENS_15AssertionResultEPKcS4_RKT_RKT0_
FNDA:182804,_ZN7testing8UnitTest4implEv
FNDA:13450,_ZNK7testing9TestSuite10should_runEv
FNDA:15,_ZN7testing8internal11CmpHelperEQIlmEENS_15AssertionResultEPKcS4_RKT_RKT0_
FNDA:102800,_ZNK7testing8TestInfo6resultEv
FNDA:25700,_ZNK7testing10TestResult6PassedEv
FNDA:0,_ZNK7testing8TestInfo4fileEv
FNDA:0,_ZN7testing22EmptyTestEventListener11OnTestStartERKNS_8TestInfoE
FNDA:12850,_ZN7testing9TestSuite10TestPassedEPKNS_8TestInfoE
FNDA:0,_ZN7testing8internal18CmpHelperEQFailureIiiEENS_15AssertionResultEPKcS4_RKT_RKT0_
FNDA:5,_ZN7testing8internal11CmpHelperEQImmEENS_15AssertionResultEPKcS4_RKT_RKT0_
FNDA:0,_ZN7testing8internal18CmpHelperEQFailureIjhEENS_15AssertionResultEPKcS4_RKT_RKT0_
FNDA:20,_ZN7testing8internal11CmpHelperEQIffEENS_15AssertionResultEPKcS4_RKT_RKT0_
FNDA:0,_ZN7testing22EmptyTestEventListener22OnEnvironmentsSetUpEndERKNS_8UnitTestE
FNDA:0,_ZN7testing15AssertionResultlsIA29_cEERS0_RKT_
FNDA:512,_ZN7testing17TestEventListenerC2Ev
FNDA:95,_ZN7testing8internal11CmpHelperEQIiiEENS_15AssertionResultEPKcS4_RKT_RKT0_
FNDA:10,_ZN7testing8internal11CmpHelperEQIaaEENS_15AssertionResultEPKcS4_RKT_RKT0_
FNDA:0,_ZNK7testing12TestProperty5valueEv
FNDA:0,_ZNK7testing12TestProperty3keyEv
FNDA:0,_ZNK7testing8TestInfo19is_in_another_shardEv
FNDA:3114,_ZN7testing9TestSuite14set_should_runEb
FNDA:0,_ZN7testing9TestSuite14TestReportableEPKNS_8TestInfoE
FNDA:0,_ZN7testing15AssertionResultlsIA15_cEERS0_RKT_
FNDA:0,_ZN7testing22EmptyTestEventListener15OnTestCaseStartERKNS_9TestSuiteE
FNDA:0,_ZN7testing15AssertionResultlsIA7_cEERS0_RKT_
FNDA:15,_ZN7testing8internal8EqHelperILb0EE7CompareIijEENS_15AssertionResultEPKcS6_RKT_RKT0_
FNDA:12800,_ZNK7testing8UnitTest4implEv
FNDA:15,_ZN7testing8internal11CmpHelperEQIhhEENS_15AssertionResultEPKcS4_RKT_RKT0_
FNDA:70,_ZN7testing8internal11CmpHelperEQIjjEENS_15AssertionResultEPKcS4_RKT_RKT0_
FNDA:25,_ZN7testing8internal11CmpHelperEQIijEENS_15AssertionResultEPKcS4_RKT_RKT0_
FNDA:0,_ZN7testing8internal18CmpHelperEQFailureIjiEENS_15AssertionResultEPKcS4_RKT_RKT0_
FNDA:12850,_ZN7testing8TestInfo15ClearTestResultEPS0_
FNDA:0,_ZN7testing15AssertionResultlsINS_7MessageEEERS0_RKT_
FNDA:15,_ZN7testing8internal8EqHelperILb0EE7CompareIhhEENS_15AssertionResultEPKcS6_RKT_RKT0_
FNDA:0,_ZN7testing15AssertionResultlsISbIwSt11char_traitsIwESaIwEEEERS0_RKT_
FNDA:20,_ZN7testing8internal8EqHelperILb0EE7CompareIffEENS_15AssertionResultEPKcS6_RKT_RKT0_
FNDA:0,_ZN7testing8internal12AssertHelper16AssertHelperDataC2ENS_14TestPartResult4TypeEPKciS6_
FNDA:2720,_ZNK7testing9TestSuite10type_paramEv
FNDA:0,_ZN7testing22EmptyTestEventListener24OnEnvironmentsSetUpStartERKNS_8UnitTestE
FNDA:10,_ZN7testing8internal11CmpHelperEQIllEENS_15AssertionResultEPKcS4_RKT_RKT0_
FNDA:10,_ZN7testing8internal8EqHelperILb0EE7CompareIaaEENS_15AssertionResultEPKcS6_RKT_RKT0_
FNDA:51400,_ZN7testing9TestSuite13ShouldRunTestEPKNS_8TestInfoE
FNDA:0,_ZN7testing4Test5SetupEv
FNDA:0,_ZN7testing4Test17TearDownTestSuiteEv
FNDA:45,_ZN7testing8internal11CmpHelperEQIjhEENS_15AssertionResultEPKcS4_RKT_RKT0_
FNDA:0,_ZN7testing8internal18CmpHelperEQFailureIlmEENS_15AssertionResultEPKcS4_RKT_RKT0_
FNDA:480,_ZN7testing17TestEventListenerD2Ev
FNDA:0,_ZN7testing8internal18CmpHelperEQFailureIhhEENS_15AssertionResultEPKcS4_RKT_RKT0_
FNDA:0,_ZN7testing15AssertionResultlsIA13_cEERS0_RKT_
FNDA:0,_ZN7testing15AssertionResultlsIA5_cEERS0_RKT_
FNDA:0,_ZN7testing17TestEventListener13OnTestCaseEndERKNS_9TestSuiteE
FNDA:0,_ZN7testing15AssertionResultlsINS_14TestPartResultEEERS0_RKT_
FNDA:0,_ZN7testing15AssertionResultlsIA14_cEERS0_RKT_
FNDA:0,_ZN7testing15AssertionResultlsIPKwEERS0_RKT_
FNDA:6520,_ZN7testing15AssertionResultC2IbEERKT_PNS_8internal8EnableIfIXntsrSt14is_convertibleIS2_S0_E5valueEE4typeE
FNDA:0,_ZN7testing22EmptyTestEventListenerD0Ev
FNDA:0,_ZN7testing17TestEventListener15OnTestCaseStartERKNS_9TestSuiteE
FNDA:0,_ZN7testing15AssertionResultlsIA12_cEERS0_RKT_
FNDA:0,_ZN7testing8internal18CmpHelperEQFailureIjjEENS_15AssertionResultEPKcS4_RKT_RKT0_
FNDA:55,_ZN7testing8internal24CmpHelperFloatingPointEQIfEENS_15AssertionResultEPKcS4_T_S5_
FNDA:5,_ZN7testing8internal8EqHelperILb0EE7CompareImmEENS_15AssertionResultEPKcS6_RKT_RKT0_
FNDA:0,_ZN7testing15AssertionResultlsIA17_cEERS0_RKT_
FNDA:0,_ZN7testing22EmptyTestEventListener18OnTestProgramStartERKNS_8UnitTestE
FNDA:0,_ZNK7testing9TestSuite6PassedEv
FNDA:15,_ZN7testing8internal8EqHelperILb0EE7CompareIlmEENS_15AssertionResultEPKcS6_RKT_RKT0_
FNDA:0,_ZN7testing8TestInfo26increment_death_test_countEv
FNDA:0,_ZN7testing4Test14SetUpTestSuiteEv
FNDA:0,_ZN7testing22EmptyTestEventListener13OnTestCaseEndERKNS_9TestSuiteE
FNDA:0,_ZNK7testing10TestResult16death_test_countEv
FNF:151
FNH:66
DA:288,625
DA:306,6520
DA:312,6520
DA:325,625
DA:334,0
DA:335,0
DA:338,0
DA:341,0
DA:342,0
DA:343,0
DA:356,0
DA:357,0
DA:358,0
DA:359,0
DA:428,0
DA:436,0
DA:440,0
DA:441,0
DA:501,12850
DA:522,0
DA:534,0
DA:539,0
DA:540,0
DA:541,0
DA:544,0
DA:545,0
DA:549,0
DA:550,0
DA:554,0
DA:555,0
DA:556,0
DA:587,25700
DA:602,12850
DA:635,12850
DA:656,0
DA:659,0
DA:702,43840
DA:710,69540
DA:714,2570
DA:715,2570
DA:716,2570
DA:721,0
DA:722,0
DA:723,0
DA:727,0
DA:730,0
DA:733,0
DA:751,115650
DA:754,12850
DA:757,12850
DA:761,102800
DA:789,0
DA:790,0
DA:797,12850
DA:798,12850
DA:799,12850
DA:852,9002
DA:856,2720
DA:857,2720
DA:858,2720
DA:862,13450
DA:889,0
DA:892,5440
DA:895,2720
DA:903,0
DA:910,5684
DA:913,12850
DA:914,12850
DA:922,3114
DA:932,2720
DA:933,2720
DA:934,2720
DA:941,2720
DA:942,2720
DA:943,0
DA:945,2720
DA:949,2720
DA:950,2720
DA:951,0
DA:953,2720
DA:956,12850
DA:957,12850
DA:961,12850
DA:962,12850
DA:966,38550
DA:967,38550
DA:972,12850
DA:973,12850
DA:977,0
DA:978,0
DA:982,0
DA:983,0
DA:987,51400
DA:988,51400
DA:1070,512
DA:1072,480
DA:1090,2720
DA:1094,0
DA:1109,2720
DA:1113,0
DA:1135,0
DA:1137,0
DA:1138,0
DA:1139,0
DA:1140,0
DA:1141,0
DA:1142,0
DA:1145,0
DA:1148,0
DA:1149,0
DA:1150,0
DA:1151,0
DA:1153,0
DA:1156,0
DA:1157,0
DA:1158,0
DA:1159,0
DA:1160,0
DA:1405,182804
DA:1406,12800
DA:1493,0
DA:1500,0
DA:1512,355
DA:1516,355
DA:1517,355
DA:1520,0
DA:1540,345
DA:1544,345
DA:1571,10
DA:1580,10
DA:1607,0
DA:1611,0
DA:1612,0
DA:1613,0
DA:1647,5
DA:1651,155
DA:1752,55
DA:1756,55
DA:1758,55
DA:1759,55
DA:1762,0
DA:1763,0
DA:1766,0
DA:1767,0
DA:1774,0
DA:1807,0
DA:1808,0
DA:1812,0
DA:2498,112
DA:2499,112
LF:150
LH:71
end_of_record
TN:
SF:/home/travis/build/platisd/smartcar_shield/test/build/googletest-src/googletest/include/gtest/internal/gtest-death-test-internal.h
FN:86,_ZN7testing8internal9DeathTestD2Ev
FN:86,_ZN7testing8internal9DeathTestD0Ev
FN:146,_ZN7testing8internal16DeathTestFactoryC2Ev
FN:148,_ZN7testing8internal16DeathTestFactoryD2Ev
FN:148,_ZN7testing8internal16DeathTestFactoryD0Ev
FN:155,_ZN7testing8internal23DefaultDeathTestFactoryC2Ev
FN:155,_ZN7testing8internal23DefaultDeathTestFactoryD2Ev
FN:155,_ZN7testing8internal23DefaultDeathTestFactoryD0Ev
FN:274,_ZN7testing8internal24InternalRunDeathTestFlagC2ERKSsiii
FN:281,_ZN7testing8internal24InternalRunDeathTestFlagD2Ev
FN:286,_ZNK7testing8internal24InternalRunDeathTestFlag4fileEv
FN:287,_ZNK7testing8internal24InternalRunDeathTestFlag4lineEv
FN:288,_ZNK7testing8internal24InternalRunDeathTestFlag5indexEv
FN:289,_ZNK7testing8internal24InternalRunDeathTestFlag8write_fdEv
FNDA:0,_ZNK7testing8internal24InternalRunDeathTestFlag4fileEv
FNDA:0,_ZNK7testing8internal24InternalRunDeathTestFlag5indexEv
FNDA:256,_ZN7testing8internal23DefaultDeathTestFactoryC2Ev
FNDA:0,_ZN7testing8internal24InternalRunDeathTestFlagC2ERKSsiii
FNDA:240,_ZN7testing8internal23DefaultDeathTestFactoryD2Ev
FNDA:0,_ZN7testing8internal9DeathTestD0Ev
FNDA:240,_ZN7testing8internal23DefaultDeathTestFactoryD0Ev
FNDA:0,_ZNK7testing8internal24InternalRunDeathTestFlag8write_fdEv
FNDA:0,_ZN7testing8internal9DeathTestD2Ev
FNDA:256,_ZN7testing8internal16DeathTestFactoryC2Ev
FNDA:0,_ZNK7testing8internal24InternalRunDeathTestFlag4lineEv
FNDA:240,_ZN7testing8internal16DeathTestFactoryD2Ev
FNDA:0,_ZN7testing8internal16DeathTestFactoryD0Ev
FNDA:0,_ZN7testing8internal24InternalRunDeathTestFlagD2Ev
FNF:14
FNH:5
DA:86,0
DA:146,256
DA:148,240
DA:155,736
DA:274,0
DA:279,0
DA:281,0
DA:282,0
DA:283,0
DA:284,0
DA:286,0
DA:287,0
DA:288,0
DA:289,0
LF:14
LH:3
end_of_record
TN:
SF:/home/travis/build/platisd/smartcar_shield/test/build/googletest-src/googletest/include/gtest/internal/gtest-filepath.h
FN:62,_ZN7testing8internal8FilePathD2Ev
FN:64,_ZN7testing8internal8FilePathC2Ev
FN:65,_ZN7testing8internal8FilePathC2ERKS1_
FN:67,_ZN7testing8internal8FilePathC2ERKSs
FN:71,_ZN7testing8internal8FilePathaSERKS1_
FN:76,_ZN7testing8internal8FilePath3SetERKS1_
FN:80,_ZNK7testing8internal8FilePath6stringEv
FN:81,_ZNK7testing8internal8FilePath5c_strEv
FN:114,_ZNK7testing8internal8FilePath7IsEmptyEv
FNDA:256,_ZN7testing8internal8FilePathC2Ev
FNDA:0,_ZN7testing8internal8FilePathaSERKS1_
FNDA:256,_ZN7testing8internal8FilePath3SetERKS1_
FNDA:2826,_ZNK7testing8internal8FilePath7IsEmptyEv
FNDA:496,_ZN7testing8internal8FilePathD2Ev
FNDA:0,_ZNK7testing8internal8FilePath6stringEv
FNDA:0,_ZNK7testing8internal8FilePath5c_strEv
FNDA:256,_ZN7testing8internal8FilePathC2ERKSs
FNDA:0,_ZN7testing8internal8FilePathC2ERKS1_
FNF:9
FNH:5
DA:62,496
DA:64,256
DA:65,0
DA:67,256
DA:68,256
DA:69,256
DA:71,0
DA:72,0
DA:73,0
DA:76,256
DA:77,256
DA:78,256
DA:80,0
DA:81,0
DA:114,2826
LF:15
LH:9
end_of_record
TN:
SF:/home/travis/build/platisd/smartcar_shield/test/build/googletest-src/googletest/include/gtest/internal/gtest-internal.h
FN:173,_ZN7testing8internal26GoogleTestFailureExceptionD2Ev
FN:173,_ZN7testing8internal26GoogleTestFailureExceptionD0Ev
FN:318,_ZN7testing8internal13FloatingPointIdEC2ERKd
FN:318,_ZN7testing8internal13FloatingPointIfEC2ERKf
FN:345,_ZNK7testing8internal13FloatingPointIdE13exponent_bitsEv
FN:345,_ZNK7testing8internal13FloatingPointIfE13exponent_bitsEv
FN:348,_ZNK7testing8internal13FloatingPointIdE13fraction_bitsEv
FN:348,_ZNK7testing8internal13FloatingPointIfE13fraction_bitsEv
FN:354,_ZNK7testing8internal13FloatingPointIfE6is_nanEv
FN:354,_ZNK7testing8internal13FloatingPointIdE6is_nanEv
FN:366,_ZNK7testing8internal13FloatingPointIfE12AlmostEqualsERKS2_
FN:366,_ZNK7testing8internal13FloatingPointIdE12AlmostEqualsERKS2_
FN:397,_ZN7testing8internal13FloatingPointIdE24SignAndMagnitudeToBiasedERKy
FN:397,_ZN7testing8internal13FloatingPointIfE24SignAndMagnitudeToBiasedERKj
FN:409,_ZN7testing8internal13FloatingPointIfE38DistanceBetweenSignAndMagnitudeNumbersERKjS4_
FN:409,_ZN7testing8internal13FloatingPointIdE38DistanceBetweenSignAndMagnitudeNumbersERKyS4_
FN:455,_ZN7testing8internal9GetTypeIdI23SmartCarOneOdometerTestEEPKvv
FN:455,_ZN7testing8internal9GetTypeIdI12GP2Y0A21TestEEPKvv
FN:455,_ZN7testing8internal9GetTypeIdI13GY50BasicTestEEPKvv
FN:455,_ZN7testing8internal9GetTypeIdI14ServoMotorTestEEPKvv
FN:455,_ZN7testing8internal9GetTypeIdI28DifferentialControlSpeedTestEEPKvv
FN:455,_ZN7testing8internal9GetTypeIdI33DirectionlessOdometerAttachedTestEEPKvv
FN:455,_ZN7testing8internal9GetTypeIdI9SRF08TestEEPKvv
FN:455,_ZN7testing8internal9GetTypeIdI13SimpleCarTestEEPKvv
FN:455,_ZN7testing8internal9GetTypeIdI16BrushedMotorTestEEPKvv
FN:455,_ZN7testing8internal9GetTypeIdI28DifferentialControlBasicTestEEPKvv
FN:455,_ZN7testing8internal9GetTypeIdI16GY50AttachedTestEEPKvv
FN:455,_ZN7testing8internal9GetTypeIdI15DistanceCarTestEEPKvv
FN:455,_ZN7testing8internal9GetTypeIdINS_4TestEEEPKvv
FN:455,_ZN7testing8internal9GetTypeIdI24InfraredAnalogSensorTestEEPKvv
FN:455,_ZN7testing8internal9GetTypeIdI8SR04TestEEPKvv
FN:455,_ZN7testing8internal9GetTypeIdI12SmartCarTestEEPKvv
FN:455,_ZN7testing8internal9GetTypeIdI30DirectionlessOdometerBasicTestEEPKvv
FN:455,_ZN7testing8internal9GetTypeIdI36DirectionlessOdometerNotAttachedTestEEPKvv
FN:455,_ZN7testing8internal9GetTypeIdI28DistanceCarCruiseControlTestEEPKvv
FN:455,_ZN7testing8internal9GetTypeIdI22SR04BadMaxDistanceTestEEPKvv
FN:455,_ZN7testing8internal9GetTypeIdI14HeadingCarTestEEPKvv
FN:455,_ZN7testing8internal9GetTypeIdI19AckerManControlTestEEPKvv
FN:455,_ZN7testing8internal9GetTypeIdI31DirectionalOdometerAttachedTestEEPKvv
FN:455,_ZN7testing8internal9GetTypeIdI11GP2D120TestEEPKvv
FN:455,_ZN7testing8internal9GetTypeIdI32DistanceCarOdometersAttachedTestEEPKvv
FN:455,_ZN7testing8internal9GetTypeIdI38DirectionlessOdometerBadPulsesPerMeterEEPKvv
FN:455,_ZN7testing8internal9GetTypeIdI20GY50ZeroIntervalTestEEPKvv
FN:455,_ZN7testing8internal9GetTypeIdI28DirectionalOdometerBasicTestEEPKvv
FN:455,_ZN7testing8internal9GetTypeIdI12GP2Y0A02TestEEPKvv
FN:455,_ZN7testing8internal9GetTypeIdI29DistanceCarSingleOdometerTestEEPKvv
FN:474,_ZN7testing8internal15TestFactoryBaseD0Ev
FN:474,_ZN7testing8internal15TestFactoryBaseD2Ev
FN:481,_ZN7testing8internal15TestFactoryBaseC2Ev
FN:490,_ZN7testing8internal15TestFactoryImplI100DirectionlessOdometerAttachedTest_update_WhenFirstPulseArrives_WillCalculateDistanceButNotSpeed_TestED0Ev
FN:490,_ZN7testing8internal15TestFactoryImplI73DistanceCarTest_getDistance_WhenOdometersNotAttached_WillReturnError_TestED2Ev
FN:490,_ZN7testing8internal15TestFactoryImplI72SRF08Test_changeAddress_WhenI2cNotInitialized_WillInitializeBusOnce_TestED2Ev
FN:490,_ZN7testing8internal15TestFactoryImplI73DistanceCarOdometersAttachedTest_setSpeed_WhenNotMoving_WillNotBrake_TestED0Ev
FN:490,_ZN7testing8internal15TestFactoryImplI87DifferentialControlSpeedTest_setAngle_WhenTooLowAngle_WillSetSpeedOnlyToRightMotor_TestED2Ev
FN:490,_ZN7testing8internal15TestFactoryImplI73SimpleCarTest_overrideMotorSpeed_WhenOutOfBounds_WillSetCorrectSpeed_TestEC2Ev
FN:490,_ZN7testing8internal15TestFactoryImplI89DirectionlessOdometerBasicTest_attach_WhenValidInterruptPin_WillSetUpPinAndInterrupt_TestEC2Ev
FN:490,_ZN7testing8internal15TestFactoryImplI87DifferentialControlBasicTest_setAngle_WhenSpeedNotSet_WillNotTakeEffectImmediately_TestED0Ev
FN:490,_ZN7testing8internal15TestFactoryImplI81SmartCarOneOdometerTest_constructor_WhenOneOdometerSupplied_WillTreatItAsTwo_TestEC2Ev
FN:490,_ZN7testing8internal15TestFactoryImplI70SRF08Test_getLightReading_WhenBusAvailable_WillReturnLightReading_TestEC2Ev
FN:490,_ZN7testing8internal15TestFactoryImplI87AckerManControlTest_setSpeed_WhenSpeedInRange_WillSetCorrectSpeedToThrottlingMotor_TestED0Ev
FN:490,_ZN7testing8internal15TestFactoryImplI67GY50AttachedTest_getOffset_WhenInvalidArgument_WillReturnError_TestED0Ev
FN:490,_ZN7testing8internal15TestFactoryImplI71ServoMotorTest_setSpeed_WhenIdleSpeed_WillWriteCorrectMicroseconds_TestED2Ev
FN:490,_ZN7testing8internal15TestFactoryImplI72SR04Test_getDistance_WhenSensorNotAttached_WillSetPinDirectionsOnce_TestED2Ev
FN:490,_ZN7testing8internal15TestFactoryImplI66SRF08Test_setGain_WhenI2cNotInitialized_WillInitializeBusOnce_TestEC2Ev
FN:490,_ZN7testing8internal15TestFactoryImplI62GP2Y0A02Test_getDistance_WhenReadingTooLow_WillReturnZero_TestED2Ev
FN:490,_ZN7testing8internal15TestFactoryImplI56GY50BasicTest_update_WhenNotTimeToRun_WillDoNothing_TestED0Ev
FN:490,_ZN7testing8internal15TestFactoryImplI82GY50AttachedTest_getHeading_WhenAngularVelocityRead_WillReturnCorrectDistance_TestED2Ev
FN:490,_ZN7testing8internal15TestFactoryImplI79AckerManControlTest_setAngle_WhenIdleAngle_WillSetIdleSpeedToSteeringMotor_TestED0Ev
FN:490,_ZN7testing8internal15TestFactoryImplI73BrushedMotorTest_setSpeed_WhenNegativeSpeed_WillSetDirectionBackward_TestED0Ev
FN:490,_ZN7testing8internal15TestFactoryImplI71MedianTest_getMedian_WhenCalledWithAscendingArray_WillReturnMedian_TestED0Ev
FN:490,_ZN7testing8internal15TestFactoryImplI68AbsoluteTest_getAbsolute_WhenNonNegativeNumber_WillReturnNumber_TestED2Ev
FN:490,_ZN7testing8internal15TestFactoryImplI75BrushedMotorTest_setSpeed_WhenSpeedUnderBounds_WillSetMaxSpeedBackward_TestEC2Ev
FN:490,_ZN7testing8internal15TestFactoryImplI56GY50BasicTest_update_WhenNotTimeToRun_WillDoNothing_TestED2Ev
FN:490,_ZN7testing8internal15TestFactoryImplI77DirectionalOdometerBasicTest_providesDirection_WhenCalled_WillReturnTrue_TestED2Ev
FN:490,_ZN7testing8internal15TestFactoryImplI64MapTest_getMap_WhenFloatArguments_WillReturnValidFloatValue_TestED0Ev
FN:490,_ZN7testing8internal15TestFactoryImplI64MapTest_getMap_WhenFloatArguments_WillReturnValidFloatValue_TestED2Ev
FN:490,_ZN7testing8internal15TestFactoryImplI91GY50AttachedTest_getHeading_WhenNegativeAngularVelocity_WillReturnComplimentaryDegrees_TestED0Ev
FN:490,_ZN7testing8internal15TestFactoryImplI62SRF08Test_getDistance_WhenBusNotAvailable_WillReturnError_TestEC2Ev
FN:490,_ZN7testing8internal15TestFactoryImplI83GY50AttachedTest_getHeading_WhenTooLowAngularVelocityRead_WillNotUpdateHeading_TestED0Ev
FN:490,_ZN7testing8internal15TestFactoryImplI86DirectionalOdometerBasicTest_getDirection_WhenPinStateBackward_WillReturnBackward_TestED2Ev
FN:490,_ZN7testing8internal15TestFactoryImplI74DistanceCarTest_update_WhenOdometersNotAttached_WillReturnImmediately_TestED2Ev
FN:490,_ZN7testing8internal15TestFactoryImplI94DistanceCarOdometersAttachedTest_update_WhenCruiseControlNotEnabled_WillReturnImmediately_TestED0Ev
FN:490,_ZN7testing8internal15TestFactoryImplI70DirectionalOdometerBasicTest_update_WhenNotAttached_WillDoNothing_TestEC2Ev
FN:490,_ZN7testing8internal15TestFactoryImplI95DirectionalOdometerAttachedTest_update_WhenPinStateNotForward_WillRegisterNegativeDistance_TestED0Ev
FN:490,_ZN7testing8internal15TestFactoryImplI47SRF08Test_setRange_WhenCalled_WillSetRange_TestED0Ev
FN:490,_ZN7testing8internal15TestFactoryImplI80DistanceCarTest_overrideMotorSpeed_WhenCruiseControlEnabled_WillNotSetSpeed_TestEC2Ev
FN:490,_ZN7testing8internal15TestFactoryImplI74GY50AttachedTest_getHeading_WhenI2CNotAvailable_WillReturnZeroDegrees_TestED0Ev
FN:490,_ZN7testing8internal15TestFactoryImplI62SRF08Test_getDistance_WhenBusNotAvailable_WillReturnError_TestED2Ev
FN:490,_ZN7testing8internal15TestFactoryImplI82DirectionlessOdometerNotAttachedTest_getSpeed_WhenNotAttached_WillReturnError_TestED0Ev
FN:490,_ZN7testing8internal15TestFactoryImplI81DifferentialControlBasicTest_setSpeed_WhenIdleSpeed_WillSetIdleSpeedToMotors_TestED0Ev
FN:490,_ZN7testing8internal15TestFactoryImplI86DirectionlessOdometerAttachedTest_getSpeed_WhenNoPulses_WillNotCrashAndReturnZero_TestED0Ev
FN:490,_ZN7testing8internal15TestFactoryImplI103DistanceCarOdometersAttachedTest_update_WhenOdometersNotDirectionalAndIdleSpeed_WillNotUpdateSpeed_TestED0Ev
FN:490,_ZN7testing8internal15TestFactoryImplI72BrushedMotorTest_setSpeed_WhenPositiveSpeed_WillSetDirectionForward_TestED2Ev
FN:490,_ZN7testing8internal15TestFactoryImplI73DistanceCarTest_getDistance_WhenOdometersNotAttached_WillReturnError_TestED0Ev
FN:490,_ZN7testing8internal15TestFactoryImplI81DirectionlessOdometerAttachedTest_update_WhenPulsesTooClose_WillIgnorePulses_TestED0Ev
FN:490,_ZN7testing8internal15TestFactoryImplI63GP2Y0A21Test_getDistance_WhenReadingTooHigh_WillReturnZero_TestEC2Ev
FN:490,_ZN7testing8internal15TestFactoryImplI69SRF08Test_getDistance_WhenBusAvailable_WillReturnCorrectDistance_TestEC2Ev
FN:490,_ZN7testing8internal15TestFactoryImplI74DistanceCarOdometersAttachedTest_setSpeed_WhenCarShouldStop_WillBrake_TestED0Ev
FN:490,_ZN7testing8internal15TestFactoryImplI85DirectionalOdometerAttachedTest_getDistance_WhenCalled_WillReturnCorrectDistance_TestED0Ev
FN:490,_ZN7testing8internal15TestFactoryImplI73BrushedMotorTest_setSpeed_WhenNegativeSpeed_WillSetDirectionBackward_TestED2Ev
FN:490,_ZN7testing8internal15TestFactoryImplI112DistanceCarCruiseControlTest_update_WhenGroundSpeedAboveTargetAndOdometersAreDirectionless_WillSetIdleSpeed_TestED0Ev
FN:490,_ZN7testing8internal15TestFactoryImplI68MapTest_getMap_WhenInvalidRange_WillReturnLowerTargetRangeLimit_TestEC2Ev
FN:490,_ZN7testing8internal15TestFactoryImplI89DistanceCarOdometersAttachedTest_setSpeed_WhenNoCruiseControlAndNoBrake_WillSetSpeed_TestED0Ev
FN:490,_ZN7testing8internal15TestFactoryImplI94InfraredAnalogSensorTest_getMedianDistance_WhenCalled_WillMakeCorrectNumberOfMeasurements_TestED2Ev
FN:490,_ZN7testing8internal15TestFactoryImplI71GY50AttachedTest_update_WhenTimeToRun_WillGetAngularVelocityViaI2C_TestEC2Ev
FN:490,_ZN7testing8internal15TestFactoryImplI69SRF08Test_getDistance_WhenBusAvailable_WillReturnCorrectDistance_TestED0Ev
FN:490,_ZN7testing8internal15TestFactoryImplI73DistanceCarOdometersAttachedTest_setSpeed_WhenNotMoving_WillNotBrake_TestED2Ev
FN:490,_ZN7testing8internal15TestFactoryImplI78DirectionlessOdometerNotAttachedTest_update_WhenNotAttached_WillDoNothing_TestED0Ev
FN:490,_ZN7testing8internal15TestFactoryImplI71DistanceCarTest_getSpeed_WhenOdometersNotAttaached_WillReturnError_TestED2Ev
FN:490,_ZN7testing8internal15TestFactoryImplI89DistanceCarTest_setSpeed_WhenNotAttached_WillNotConsiderCruiseControlAndSetOnlySpeed_TestEC2Ev
FN:490,_ZN7testing8internal15TestFactoryImplI62SimpleCarTest_setSpeed_WhenValidSpeed_WillSetCorrectSpeed_TestED2Ev
FN:490,_ZN7testing8internal15TestFactoryImplI71ConstrainTest_getConstrain_WhenLargerThanMaximum_WillReturnMaximum_TestED0Ev
FN:490,_ZN7testing8internal15TestFactoryImplI82GY50AttachedTest_getHeading_WhenAngularVelocityRead_WillReturnCorrectDistance_TestEC2Ev
FN:490,_ZN7testing8internal15TestFactoryImplI74SRF08Test_getLightReading_WhenI2cNotInitialized_WillInitializeBusOnce_TestEC2Ev
FN:490,_ZN7testing8internal15TestFactoryImplI88DifferentialControlBasicTest_overrideMotorSpeed_WhenValidSpeed_WillSetSpeedToMotors_TestEC2Ev
FN:490,_ZN7testing8internal15TestFactoryImplI91DistanceCarOdometersAttachedTest_getSpeed_WhenOdometersAttached_WillReturnAverageSpeed_TestED2Ev
FN:490,_ZN7testing8internal15TestFactoryImplI88DifferentialControlBasicTest_overrideMotorSpeed_WhenValidSpeed_WillSetSpeedToMotors_TestED0Ev
FN:490,_ZN7testing8internal15TestFactoryImplI57SR04Test_getDistance_WhenCalled_WillMeasureCorrectly_TestEC2Ev
FN:490,_ZN7testing8internal15TestFactoryImplI78DirectionlessOdometerNotAttachedTest_update_WhenNotAttached_WillDoNothing_TestED2Ev
FN:490,_ZN7testing8internal15TestFactoryImplI66GY50AttachedTest_update_WhenI2CNotAvailable_WillNotReadViaI2C_TestED0Ev
FN:490,_ZN7testing8internal15TestFactoryImplI78GY50BasicTest_getOffset_WhenCalled_WillReturnCorrectAverageOfMeasurements_TestEC2Ev
FN:490,_ZN7testing8internal15TestFactoryImplI71GY50AttachedTest_update_WhenTimeToRun_WillGetAngularVelocityViaI2C_TestED2Ev
FN:490,_ZN7testing8internal15TestFactoryImplI79DirectionalOdometerAttachedTest_getSpeed_WhenCalled_WillReturnCorrectSpeed_TestED2Ev
FN:490,_ZN7testing8internal15TestFactoryImplI79AckerManControlTest_overrideMotorSpeed_WhenValidSpeed_WillSetSpeedToMotors_TestED0Ev
FN:490,_ZN7testing8internal15TestFactoryImplI104DirectionlessOdometerAttachedTest_update_WhenFirstPulseArrivesFast_WillCalculateDistanceButNotSpeed_TestED0Ev
FN:490,_ZN7testing8internal15TestFactoryImplI85AckerManControlTest_setAngle_WhenAngleInRange_WillSetCorrectSpeedToSteeringMotor_TestED0Ev
FN:490,_ZN7testing8internal15TestFactoryImplI82DirectionalOdometerBasicTest_attach_WhenInvalidPin_WillNotSetAnyPinDirections_TestED0Ev
FN:490,_ZN7testing8internal15TestFactoryImplI70MedianTest_getMedian_WhenCalledWithUnsortedArray_WillReturnMedian_TestED2Ev
FN:490,_ZN7testing8internal15TestFactoryImplI59HeadingCarTest_getHeading_WhenCalled_WillReturnHeading_TestED2Ev
FN:490,_ZN7testing8internal15TestFactoryImplI70SRF08Test_getDistance_WhenI2cNotInitialized_WillInitializeBusOnce_TestED2Ev
FN:490,_ZN7testing8internal15TestFactoryImplI87DirectionlessOdometerAttachedTest_getDistance_WhenCalled_WillReturnCorrectDistance_TestED0Ev
FN:490,_ZN7testing8internal15TestFactoryImplI75GP2D120Test_getDistance_WhenReadingWithinRange_WillReturnCorrectResult_TestEC2Ev
FN:490,_ZN7testing8internal15TestFactoryImplI72SRF08Test_changeAddress_WhenI2cNotInitialized_WillInitializeBusOnce_TestEC2Ev
FN:490,_ZN7testing8internal15TestFactoryImplI83DifferentialControlBasicTest_setSpeed_WhenTooHighSpeed_WillSetMaxSpeedToMotors_TestED2Ev
FN:490,_ZN7testing8internal15TestFactoryImplI81DirectionlessOdometerAttachedTest_update_WhenPulsesTooClose_WillIgnorePulses_TestEC2Ev
FN:490,_ZN7testing8internal15TestFactoryImplI65SRF08Test_getMedianDistance_WhenNoIterations_WillReturnError_TestED2Ev
FN:490,_ZN7testing8internal15TestFactoryImplI82AckerManControlTest_setSpeed_WhenTooLowSpeed_WillSetMinSpeedToThrottlingMotor_TestEC2Ev
FN:490,_ZN7testing8internal15TestFactoryImplI57SRF08Test_changeAddress_WhenCalled_WillChangeAddress_TestED0Ev
FN:490,_ZN7testing8internal15TestFactoryImplI93DistanceCarCruiseControlTest_update_WhenGroundSpeedBelowTarget_WillIncreaseSpeedToMotors_TestEC2Ev
FN:490,_ZN7testing8internal15TestFactoryImplI66SRF08Test_setGain_WhenI2cNotInitialized_WillInitializeBusOnce_TestED2Ev
FN:490,_ZN7testing8internal15TestFactoryImplI75DistanceCarTest_enableCruiseControl_WhenCalled_WillEnableCruiseControl_TestED0Ev
FN:490,_ZN7testing8internal15TestFactoryImplI64ServoMotorTest_setSpeed_WhenCalledAndNotAttached_WillAttach_TestED2Ev
FN:490,_ZN7testing8internal15TestFactoryImplI82DifferentialControlBasicTest_setSpeed_WhenTooLowSpeed_WillSetMinSpeedToMotors_TestED0Ev
FN:490,_ZN7testing8internal15TestFactoryImplI72SR04Test_getDistance_WhenSensorNotAttached_WillSetPinDirectionsOnce_TestEC2Ev
FN:490,_ZN7testing8internal15TestFactoryImplI85DirectionlessOdometerAttachedTest_reset_WhenCalled_WillSetSpeedAndDistanceToZero_TestED0Ev
FN:490,_ZN7testing8internal15TestFactoryImplI80DirectionlessOdometerBasicTest_providesDirection_WhenCalled_WillReturnFalse_TestED0Ev
FN:490,_ZN7testing8internal15TestFactoryImplI79GY50ZeroIntervalTest_update_WhenCalledWithZeroInterval_WillNotDivideByZero_TestED0Ev
FN:490,_ZN7testing8internal15TestFactoryImplI91GY50AttachedTest_getHeading_WhenNegativeAngularVelocity_WillReturnComplimentaryDegrees_TestED2Ev
FN:490,_ZN7testing8internal15TestFactoryImplI87DifferentialControlSpeedTest_setAngle_WhenTooHighAngle_WillSetSpeedOnlyToLeftMotor_TestED0Ev
FN:490,_ZN7testing8internal15TestFactoryImplI87DifferentialControlSpeedTest_setAngle_WhenTooLowAngle_WillSetSpeedOnlyToRightMotor_TestED0Ev
FN:490,_ZN7testing8internal15TestFactoryImplI94InfraredAnalogSensorTest_getMedianDistance_WhenCalled_WillMakeCorrectNumberOfMeasurements_TestEC2Ev
FN:490,_ZN7testing8internal15TestFactoryImplI83DirectionalOdometerAttachedTest_reset_WhenCalled_WillSetSpeedAndDistanceToZero_TestED2Ev
FN:490,_ZN7testing8internal15TestFactoryImplI82DirectionlessOdometerNotAttachedTest_getSpeed_WhenNotAttached_WillReturnError_TestEC2Ev
FN:490,_ZN7testing8internal15TestFactoryImplI83DifferentialControlBasicTest_setSpeed_WhenAngleSet_WillSetCorrectSpeedToMotors_TestED0Ev
FN:490,_ZN7testing8internal15TestFactoryImplI67AbsoluteTest_getAbsolute_WhenNegativeNumber_WillReturnPositive_TestEC2Ev
FN:490,_ZN7testing8internal15TestFactoryImplI62SimpleCarTest_setSpeed_WhenValidSpeed_WillSetCorrectSpeed_TestEC2Ev
FN:490,_ZN7testing8internal15TestFactoryImplI72SRF08Test_changeAddress_WhenI2cNotInitialized_WillInitializeBusOnce_TestED0Ev
FN:490,_ZN7testing8internal15TestFactoryImplI85DirectionlessOdometerNotAttachedTest_getDistance_WhenNotAttached_WillReturnError_TestED0Ev
FN:490,_ZN7testing8internal15TestFactoryImplI91AckerManControlTest_overrideMotorSpeed_WhenSpeedOutOfRange_WillSetCorrectSpeedToMotors_TestEC2Ev
FN:490,_ZN7testing8internal15TestFactoryImplI60SimpleCarTest_setAngle_WhenTooLow_Angle_WillSetMinAngle_TestED0Ev
FN:490,_ZN7testing8internal15TestFactoryImplI75ServoMotorTest_setSpeed_WhenPositiveSpeed_WillWriteCorrectMicroseconds_TestEC2Ev
FN:490,_ZN7testing8internal15TestFactoryImplI103DistanceCarOdometersAttachedTest_update_WhenOdometersNotDirectionalAndIdleSpeed_WillNotUpdateSpeed_TestED2Ev
FN:490,_ZN7testing8internal15TestFactoryImplI62GY50BasicTest_update_WhenCalled_WillSetupSensorViaI2COnce_TestED0Ev
FN:490,_ZN7testing8internal15TestFactoryImplI87AckerManControlTest_setSpeed_WhenSpeedInRange_WillSetCorrectSpeedToThrottlingMotor_TestEC2Ev
FN:490,_ZN7testing8internal15TestFactoryImplI78GY50BasicTest_getOffset_WhenCalled_WillReturnCorrectAverageOfMeasurements_TestED0Ev
FN:490,_ZN7testing8internal15TestFactoryImplI76GP2Y0A02Test_getDistance_WhenReadingWithinRange_WillReturnCorrectResult_TestED2Ev
FN:490,_ZN7testing8internal15TestFactoryImplI67GY50AttachedTest_getOffset_WhenInvalidArgument_WillReturnError_TestED2Ev
FN:490,_ZN7testing8internal15TestFactoryImplI80AckerManControlTest_setAngle_WhenTooLowAngle_WillSetMinSpeedToSteeringMotor_TestED2Ev
FN:490,_ZN7testing8internal15TestFactoryImplI73DistanceCarOdometersAttachedTest_update_WhenCalledTooFast_WillReturn_TestED0Ev
FN:490,_ZN7testing8internal15TestFactoryImplI69SRF08Test_getDistance_WhenBusAvailable_WillReturnCorrectDistance_TestED2Ev
FN:490,_ZN7testing8internal15TestFactoryImplI79AlmostEqualTest_areAlmostEqual_WhenSignedSameAndAlmostEqual_WillReturnTrue_TestED0Ev
FN:490,_ZN7testing8internal15TestFactoryImplI81DifferentialControlSpeedTest_setAngle_WhenIdleAngle_WillSetSameSpeedToMotors_TestED2Ev
FN:490,_ZN7testing8internal15TestFactoryImplI70SRF08Test_getDistance_WhenI2cNotInitialized_WillInitializeBusOnce_TestED0Ev
FN:490,_ZN7testing8internal15TestFactoryImplI70DirectionalOdometerBasicTest_update_WhenNotAttached_WillDoNothing_TestED0Ev
FN:490,_ZN7testing8internal15TestFactoryImplI95DirectionalOdometerAttachedTest_update_WhenPinStateNotForward_WillRegisterNegativeDistance_TestED2Ev
FN:490,_ZN7testing8internal15TestFactoryImplI82DirectionlessOdometerNotAttachedTest_getSpeed_WhenNotAttached_WillReturnError_TestED2Ev
FN:490,_ZN7testing8internal15TestFactoryImplI84ServoMotorTest_setSpeed_WhenHigherThanMaximumSpeed_WillWriteMaximumMicroseconds_TestEC2Ev
FN:490,_ZN7testing8internal15TestFactoryImplI73DirectionlessOdometerBasicTest_attach_WhenInvalidPin_WillReturnFalse_TestEC2Ev
FN:490,_ZN7testing8internal15TestFactoryImplI81DirectionlessOdometerAttachedTest_update_WhenPulsesTooClose_WillIgnorePulses_TestED2Ev
FN:490,_ZN7testing8internal15TestFactoryImplI85AckerManControlTest_setAngle_WhenAngleInRange_WillSetCorrectSpeedToSteeringMotor_TestED2Ev
FN:490,_ZN7testing8internal15TestFactoryImplI83GY50AttachedTest_getHeading_WhenTooLowAngularVelocityRead_WillNotUpdateHeading_TestEC2Ev
FN:490,_ZN7testing8internal15TestFactoryImplI75ServoMotorTest_setSpeed_WhenNegativeSpeed_WillWriteCorrectMicroseconds_TestEC2Ev
FN:490,_ZN7testing8internal15TestFactoryImplI57SR04Test_getDistance_WhenCalled_WillMeasureCorrectly_TestED2Ev
FN:490,_ZN7testing8internal15TestFactoryImplI83DifferentialControlBasicTest_setSpeed_WhenAngleSet_WillSetCorrectSpeedToMotors_TestED2Ev
FN:490,_ZN7testing8internal15TestFactoryImplI91DistanceCarOdometersAttachedTest_getSpeed_WhenOdometersAttached_WillReturnAverageSpeed_TestED0Ev
FN:490,_ZN7testing8internal15TestFactoryImplI77DirectionalOdometerBasicTest_getDistance_WhenNotAttached_WillReturnError_TestED2Ev
FN:490,_ZN7testing8internal15TestFactoryImplI61HeadingCarTest_update_WhenCalled_WillUpdateHeadingSensor_TestEC2Ev
FN:490,_ZN7testing8internal15TestFactoryImplI81DifferentialControlSpeedTest_setAngle_WhenIdleAngle_WillSetSameSpeedToMotors_TestEC2Ev
FN:490,_ZN7testing8internal15TestFactoryImplI83AckerManControlTest_setSpeed_WhenTooHighSpeed_WillSetMaxSpeedToThrottlingMotor_TestED0Ev
FN:490,_ZN7testing8internal15TestFactoryImplI84DirectionalOdometerBasicTest_getDirection_WhenPinStateForward_WillReturnForward_TestED2Ev
FN:490,_ZN7testing8internal15TestFactoryImplI57BrushedMotorTest_setSpeed_WhenNotAttached_WillAttach_TestEC2Ev
FN:490,_ZN7testing8internal15TestFactoryImplI85DifferentialControlSpeedTest_setAngle_WhenValidAngle_WillSetCorrectSpeedToMotors_TestEC2Ev
FN:490,_ZN7testing8internal15TestFactoryImplI119DistanceCarCruiseControlTest_update_WhenGroundSpeedAboveTargetAndOdometersAreDirectional_WillDecreaseSpeedToMotors_TestED0Ev
FN:490,_ZN7testing8internal15TestFactoryImplI86DirectionlessOdometerAttachedTest_getSpeed_WhenNoPulses_WillNotCrashAndReturnZero_TestED2Ev
FN:490,_ZN7testing8internal15TestFactoryImplI87DistanceCarSingleOdometerTest_constructor_WhenOneOdometerSupplied_WillTreatItAsTwo_TestED0Ev
FN:490,_ZN7testing8internal15TestFactoryImplI70SRF08Test_getDistance_WhenI2cNotInitialized_WillInitializeBusOnce_TestEC2Ev
FN:490,_ZN7testing8internal15TestFactoryImplI138DistanceCarOdometersAttachedTest_setSpeed_WhenOdometersAreDirectionalAndCruiseControlIsEnabled_WillNotBrakeWhenChangingSpeedDirection_TestED0Ev
FN:490,_ZN7testing8internal15TestFactoryImplI68MapTest_getMap_WhenInvalidRange_WillReturnLowerTargetRangeLimit_TestED2Ev
FN:490,_ZN7testing8internal15TestFactoryImplI58SRF08Test_setPingDelay_WhenCalled_WillReturnPingDelay_TestED2Ev
FN:490,_ZN7testing8internal15TestFactoryImplI82DirectionalOdometerBasicTest_attach_WhenInvalidPin_WillNotSetAnyPinDirections_TestED2Ev
FN:490,_ZN7testing8internal15TestFactoryImplI81AckerManControlTest_setSpeed_WhenIdleSpeed_WillSetIdleSpeedToThrottlingMotor_TestED2Ev
FN:490,_ZN7testing8internal15TestFactoryImplI92SR04BadMaxDistanceTest_getDistance_WhenBadMaxDistanceSupplied_WillUseDefaultMaxDistance_TestED0Ev
FN:490,_ZN7testing8internal15TestFactoryImplI79DirectionalOdometerAttachedTest_getSpeed_WhenCalled_WillReturnCorrectSpeed_TestED0Ev
FN:490,_ZN7testing8internal15TestFactoryImplI74DirectionalOdometerBasicTest_getSpeed_WhenNotAttached_WillReturnError_TestED2Ev
FN:490,_ZN7testing8internal15TestFactoryImplI59HeadingCarTest_getHeading_WhenCalled_WillReturnHeading_TestED0Ev
FN:490,_ZN7testing8internal15TestFactoryImplI65SRF08Test_getMedianDistance_WhenNoIterations_WillReturnError_TestED0Ev
FN:490,_ZN7testing8internal15TestFactoryImplI100DistanceCarCruiseControlTest_update_WhenBackwardSpeedBelowTarget_WillIncreaseMotorSpeedBackward_TestEC2Ev
FN:490,_ZN7testing8internal15TestFactoryImplI72ConstrainTest_getConstrain_WhenSmallerThanMinimum_WillReturnMinimum_TestEC2Ev
FN:490,_ZN7testing8internal15TestFactoryImplI62SimpleCarTest_setAngle_WhenValidAngle_WillSetCorrectAngle_TestEC2Ev
FN:490,_ZN7testing8internal15TestFactoryImplI80AckerManControlTest_setAngle_WhenTooLowAngle_WillSetMinSpeedToSteeringMotor_TestED0Ev
FN:490,_ZN7testing8internal15TestFactoryImplI68SimpleCarTest_overrideMotorSpeed_WhenCalled_WillSetCorrectSpeed_TestED0Ev
FN:490,_ZN7testing8internal15TestFactoryImplI87DifferentialControlSpeedTest_setAngle_WhenTooLowAngle_WillSetSpeedOnlyToRightMotor_TestEC2Ev
FN:490,_ZN7testing8internal15TestFactoryImplI64ConstrainTest_getConstrain_WhenWithinRange_WillReturnNumber_TestED2Ev
FN:490,_ZN7testing8internal15TestFactoryImplI77DistanceCarTest_disableCruiseControl_WhenCalled_WillDisableCruiseControl_TestED2Ev
FN:490,_ZN7testing8internal15TestFactoryImplI71ServoMotorTest_setSpeed_WhenIdleSpeed_WillWriteCorrectMicroseconds_TestED0Ev
FN:490,_ZN7testing8internal15TestFactoryImplI58SRF08Test_setPingDelay_WhenCalled_WillReturnPingDelay_TestED0Ev
FN:490,_ZN7testing8internal15TestFactoryImplI103DistanceCarOdometersAttachedTest_update_WhenOdometersNotDirectionalAndIdleSpeed_WillNotUpdateSpeed_TestEC2Ev
FN:490,_ZN7testing8internal15TestFactoryImplI62GP2Y0A21Test_getDistance_WhenReadingTooLow_WillReturnZero_TestED0Ev
FN:490,_ZN7testing8internal15TestFactoryImplI74GY50AttachedTest_getHeading_WhenI2CNotAvailable_WillReturnZeroDegrees_TestED2Ev
FN:490,_ZN7testing8internal15TestFactoryImplI88SR04Test_getDistance_WhenCalculatedDistanceEqualToMaxDistance_WillReturnMaxDistance_TestED2Ev
FN:490,_ZN7testing8internal15TestFactoryImplI78GY50BasicTest_getOffset_WhenCalled_WillReturnCorrectAverageOfMeasurements_TestED2Ev
FN:490,_ZN7testing8internal15TestFactoryImplI87DistanceCarSingleOdometerTest_constructor_WhenOneOdometerSupplied_WillTreatItAsTwo_TestEC2Ev
FN:490,_ZN7testing8internal15TestFactoryImplI77DirectionalOdometerBasicTest_providesDirection_WhenCalled_WillReturnTrue_TestED0Ev
FN:490,_ZN7testing8internal15TestFactoryImplI87DistanceCarSingleOdometerTest_constructor_WhenOneOdometerSupplied_WillTreatItAsTwo_TestED2Ev
FN:490,_ZN7testing8internal15TestFactoryImplI61SimpleCarTest_setAngle_WhenTooLargeAngle_WillSetMaxAngle_TestED0Ev
FN:490,_ZN7testing8internal15TestFactoryImplI66GY50AttachedTest_update_WhenI2CNotAvailable_WillNotReadViaI2C_TestEC2Ev
FN:490,_ZN7testing8internal15TestFactoryImplI77DirectionlessOdometerAttachedTest_isAttached_WhenAttached_WillReturnTrue_TestED2Ev
FN:490,_ZN7testing8internal15TestFactoryImplI83DirectionalOdometerAttachedTest_reset_WhenCalled_WillSetSpeedAndDistanceToZero_TestEC2Ev
FN:490,_ZN7testing8internal15TestFactoryImplI57SRF08Test_changeAddress_WhenCalled_WillChangeAddress_TestED2Ev
FN:490,_ZN7testing8internal15TestFactoryImplI87DirectionlessOdometerAttachedTest_getDistance_WhenCalled_WillReturnCorrectDistance_TestEC2Ev
FN:490,_ZN7testing8internal15TestFactoryImplI71GY50AttachedTest_update_WhenTimeToRun_WillGetAngularVelocityViaI2C_TestED0Ev
FN:490,_ZN7testing8internal15TestFactoryImplI95DirectionalOdometerAttachedTest_update_WhenPinStateNotForward_WillRegisterNegativeDistance_TestEC2Ev
FN:490,_ZN7testing8internal15TestFactoryImplI68AbsoluteTest_getAbsolute_WhenNonNegativeNumber_WillReturnNumber_TestEC2Ev
FN:490,_ZN7testing8internal15TestFactoryImplI72MedianTest_getMedian_WhenCalledWithDescendingArray_WillReturnMedian_TestED2Ev
FN:490,_ZN7testing8internal15TestFactoryImplI64ConstrainTest_getConstrain_WhenWithinRange_WillReturnNumber_TestED0Ev
FN:490,_ZN7testing8internal15TestFactoryImplI61GP2D120Test_getDistance_WhenReadingTooLow_WillReturnZero_TestED0Ev
FN:490,_ZN7testing8internal15TestFactoryImplI81AckerManControlTest_setAngle_WhenTooHighAngle_WillSetMaxSpeedToSteeringMotor_TestEC2Ev
FN:490,_ZN7testing8internal15TestFactoryImplI62GY50BasicTest_update_WhenCalled_WillSetupSensorViaI2COnce_TestEC2Ev
FN:490,_ZN7testing8internal15TestFactoryImplI68AbsoluteTest_getAbsolute_WhenNonNegativeNumber_WillReturnNumber_TestED0Ev
FN:490,_ZN7testing8internal15TestFactoryImplI75GP2D120Test_getDistance_WhenReadingWithinRange_WillReturnCorrectResult_TestED0Ev
FN:490,_ZN7testing8internal15TestFactoryImplI79AckerManControlTest_setAngle_WhenIdleAngle_WillSetIdleSpeedToSteeringMotor_TestEC2Ev
FN:490,_ZN7testing8internal15TestFactoryImplI73DirectionlessOdometerBasicTest_attach_WhenInvalidPin_WillReturnFalse_TestED0Ev
FN:490,_ZN7testing8internal15TestFactoryImplI91AckerManControlTest_overrideMotorSpeed_WhenSpeedOutOfRange_WillSetCorrectSpeedToMotors_TestED0Ev
FN:490,_ZN7testing8internal15TestFactoryImplI89DistanceCarOdometersAttachedTest_setSpeed_WhenNoCruiseControlAndNoBrake_WillSetSpeed_TestED2Ev
FN:490,_ZN7testing8internal15TestFactoryImplI85DifferentialControlBasicTest_setSpeed_WhenValidSpeed_WillSetCorrectSpeedToMotors_TestEC2Ev
FN:490,_ZN7testing8internal15TestFactoryImplI85DirectionlessOdometerNotAttachedTest_getDistance_WhenNotAttached_WillReturnError_TestED2Ev
FN:490,_ZN7testing8internal15TestFactoryImplI83AckerManControlTest_setSpeed_WhenTooHighSpeed_WillSetMaxSpeedToThrottlingMotor_TestED2Ev
FN:490,_ZN7testing8internal15TestFactoryImplI72MedianTest_getMedian_WhenCalledWithDescendingArray_WillReturnMedian_TestED0Ev
FN:490,_ZN7testing8internal15TestFactoryImplI90GY50AttachedTest_getHeading_WhenAngularVelocityReadOverTime_WillReturnCorrectDistance_TestED0Ev
FN:490,_ZN7testing8internal15TestFactoryImplI79AlmostEqualTest_areAlmostEqual_WhenSignedSameAndAlmostEqual_WillReturnTrue_TestEC2Ev
FN:490,_ZN7testing8internal15TestFactoryImplI65GY50BasicTest_getOffset_WhenCalled_WillSetupSensorViaI2COnce_TestED2Ev
FN:490,_ZN7testing8internal15TestFactoryImplI94InfraredAnalogSensorTest_getMedianDistance_WhenCalled_WillMakeCorrectNumberOfMeasurements_TestED0Ev
FN:490,_ZN7testing8internal15TestFactoryImplI73BrushedMotorTest_setSpeed_WhenSpeedOverBounds_WillSetMaxSpeedForward_TestED2Ev
FN:490,_ZN7testing8internal15TestFactoryImplI89DistanceCarTest_setSpeed_WhenNotAttached_WillNotConsiderCruiseControlAndSetOnlySpeed_TestED0Ev
FN:490,_ZN7testing8internal15TestFactoryImplI70MedianTest_getMedian_WhenCalledWithUnsortedArray_WillReturnMedian_TestEC2Ev
FN:490,_ZN7testing8internal15TestFactoryImplI65SRF08Test_getMedianDistance_WhenNoIterations_WillReturnError_TestEC2Ev
FN:490,_ZN7testing8internal15TestFactoryImplI60SimpleCarTest_setAngle_WhenTooLow_Angle_WillSetMinAngle_TestEC2Ev
FN:490,_ZN7testing8internal15TestFactoryImplI94DistanceCarOdometersAttachedTest_update_WhenCruiseControlNotEnabled_WillReturnImmediately_TestED2Ev
FN:490,_ZN7testing8internal15TestFactoryImplI74DistanceCarOdometersAttachedTest_setSpeed_WhenCarShouldStop_WillBrake_TestEC2Ev
FN:490,_ZN7testing8internal15TestFactoryImplI73DistanceCarOdometersAttachedTest_setSpeed_WhenNotMoving_WillNotBrake_TestEC2Ev
FN:490,_ZN7testing8internal15TestFactoryImplI86AlmostEqualTest_areAlmostEqual_WhenSignedDifferentlyButAlmostEqual_WillReturnTrue_TestEC2Ev
FN:490,_ZN7testing8internal15TestFactoryImplI79AckerManControlTest_setAngle_WhenIdleAngle_WillSetIdleSpeedToSteeringMotor_TestED2Ev
FN:490,_ZN7testing8internal15TestFactoryImplI89DistanceCarTest_setSpeed_WhenNotAttached_WillNotConsiderCruiseControlAndSetOnlySpeed_TestED2Ev
FN:490,_ZN7testing8internal15TestFactoryImplI87DifferentialControlBasicTest_setAngle_WhenSpeedNotSet_WillNotTakeEffectImmediately_TestED2Ev
FN:490,_ZN7testing8internal15TestFactoryImplI60SimpleCarTest_setSpeed_WhenTooHighSpeed_WillSetMaxSpeed_TestEC2Ev
FN:490,_ZN7testing8internal15TestFactoryImplI64ServoMotorTest_setSpeed_WhenCalledAndNotAttached_WillAttach_TestEC2Ev
FN:490,_ZN7testing8internal15TestFactoryImplI71ServoMotorTest_setSpeed_WhenIdleSpeed_WillWriteCorrectMicroseconds_TestEC2Ev
FN:490,_ZN7testing8internal15TestFactoryImplI81DifferentialControlBasicTest_setSpeed_WhenIdleSpeed_WillSetIdleSpeedToMotors_TestED2Ev
FN:490,_ZN7testing8internal15TestFactoryImplI85DifferentialControlSpeedTest_setAngle_WhenValidAngle_WillSetCorrectSpeedToMotors_TestED0Ev
FN:490,_ZN7testing8internal15TestFactoryImplI59SimpleCarTest_setSpeed_WhenTooLowSpeed_WillSetMinSpeed_TestED2Ev
FN:490,_ZN7testing8internal15TestFactoryImplI85DifferentialControlBasicTest_setSpeed_WhenValidSpeed_WillSetCorrectSpeedToMotors_TestED2Ev
FN:490,_ZN7testing8internal15TestFactoryImplI74SRF08Test_getLightReading_WhenI2cNotInitialized_WillInitializeBusOnce_TestED0Ev
FN:490,_ZN7testing8internal15TestFactoryImplI74DistanceCarTest_update_WhenOdometersNotAttached_WillReturnImmediately_TestED0Ev
FN:490,_ZN7testing8internal15TestFactoryImplI64ConstrainTest_getConstrain_WhenWithinRange_WillReturnNumber_TestEC2Ev
FN:490,_ZN7testing8internal15TestFactoryImplI65MapTest_getMap_WhenValidArguments_WillReturnValidMappedValue_TestED2Ev
FN:490,_ZN7testing8internal15TestFactoryImplI57SRF08Test_changeAddress_WhenCalled_WillChangeAddress_TestEC2Ev
FN:490,_ZN7testing8internal15TestFactoryImplI66SRF08Test_getLightReading_WhenBusNotAvailable_WillReturnError_TestED2Ev
FN:490,_ZN7testing8internal15TestFactoryImplI62GP2D120Test_getDistance_WhenReadingTooHigh_WillReturnZero_TestEC2Ev
FN:490,_ZN7testing8internal15TestFactoryImplI60SimpleCarTest_setSpeed_WhenTooHighSpeed_WillSetMaxSpeed_TestED2Ev
FN:490,_ZN7testing8internal15TestFactoryImplI65MapTest_getMap_WhenValidArguments_WillReturnValidMappedValue_TestED0Ev
FN:490,_ZN7testing8internal15TestFactoryImplI62SimpleCarTest_setAngle_WhenValidAngle_WillSetCorrectAngle_TestED2Ev
FN:490,_ZN7testing8internal15TestFactoryImplI73BrushedMotorTest_setSpeed_WhenSpeedOverBounds_WillSetMaxSpeedForward_TestED0Ev
FN:490,_ZN7testing8internal15TestFactoryImplI47SRF08Test_setRange_WhenCalled_WillSetRange_TestEC2Ev
FN:490,_ZN7testing8internal15TestFactoryImplI83DifferentialControlBasicTest_setSpeed_WhenTooHighSpeed_WillSetMaxSpeedToMotors_TestED0Ev
FN:490,_ZN7testing8internal15TestFactoryImplI71ConstrainTest_getConstrain_WhenLargerThanMaximum_WillReturnMaximum_TestEC2Ev
FN:490,_ZN7testing8internal15TestFactoryImplI95DirectionalOdometerAttachedTest_update_WhenPinStateForward_WillNotRegisterNegativeDistance_TestEC2Ev
FN:490,_ZN7testing8internal15TestFactoryImplI92DistanceCarOdometersAttachedTest_setSpeed_WhenDirectionChangesInCruiseControl_WillBrake_TestEC2Ev
FN:490,_ZN7testing8internal15TestFactoryImplI64ServoMotorTest_setSpeed_WhenCalledAndNotAttached_WillAttach_TestED0Ev
FN:490,_ZN7testing8internal15TestFactoryImplI80DirectionlessOdometerBasicTest_providesDirection_WhenCalled_WillReturnFalse_TestED2Ev
FN:490,_ZN7testing8internal15TestFactoryImplI63GP2Y0A02Test_getDistance_WhenReadingTooHigh_WillReturnZero_TestED2Ev
FN:490,_ZN7testing8internal15TestFactoryImplI73DistanceCarOdometersAttachedTest_update_WhenCalledTooFast_WillReturn_TestED2Ev
FN:490,_ZN7testing8internal15TestFactoryImplI89DirectionlessOdometerBasicTest_attach_WhenValidInterruptPin_WillSetUpPinAndInterrupt_TestED2Ev
FN:490,_ZN7testing8internal15TestFactoryImplI83DifferentialControlBasicTest_setSpeed_WhenTooHighSpeed_WillSetMaxSpeedToMotors_TestEC2Ev
FN:490,_ZN7testing8internal15TestFactoryImplI74DistanceCarOdometersAttachedTest_setSpeed_WhenCarShouldStop_WillBrake_TestED2Ev
FN:490,_ZN7testing8internal15TestFactoryImplI86DirectionlessOdometerAttachedTest_getSpeed_WhenNoPulses_WillNotCrashAndReturnZero_TestEC2Ev
FN:490,_ZN7testing8internal15TestFactoryImplI61SimpleCarTest_setAngle_WhenTooLargeAngle_WillSetMaxAngle_TestED2Ev
FN:490,_ZN7testing8internal15TestFactoryImplI81DirectionlessOdometerAttachedTest_getSpeed_WhenCalled_WillReturnCorrectSpeed_TestEC2Ev
FN:490,_ZN7testing8internal15TestFactoryImplI100DifferentialControlBasicTest_overrideMotorSpeed_WhenSpeedOutOfRange_WillSetCorrectSpeedToMotors_TestED0Ev
FN:490,_ZN7testing8internal15TestFactoryImplI85DifferentialControlBasicTest_setSpeed_WhenValidSpeed_WillSetCorrectSpeedToMotors_TestED0Ev
FN:490,_ZN7testing8internal15TestFactoryImplI73DistanceCarOdometersAttachedTest_update_WhenCalledTooFast_WillReturn_TestEC2Ev
FN:490,_ZN7testing8internal15TestFactoryImplI63GP2Y0A21Test_getDistance_WhenReadingTooHigh_WillReturnZero_TestED2Ev
FN:490,_ZN7testing8internal15TestFactoryImplI64SR04Test_getMedianDistance_WhenNoIterations_WillReturnError_TestED0Ev
FN:490,_ZN7testing8internal15TestFactoryImplI75DistanceCarTest_enableCruiseControl_WhenCalled_WillEnableCruiseControl_TestED2Ev
FN:490,_ZN7testing8internal15TestFactoryImplI53SRF08Test_setGain_WhenCalled_WillSetGainRegister_TestEC2Ev
FN:490,_ZN7testing8internal15TestFactoryImplI81AckerManControlTest_setSpeed_WhenIdleSpeed_WillSetIdleSpeedToThrottlingMotor_TestEC2Ev
FN:490,_ZN7testing8internal15TestFactoryImplI86DirectionalOdometerBasicTest_getDirection_WhenPinStateBackward_WillReturnBackward_TestEC2Ev
FN:490,_ZN7testing8internal15TestFactoryImplI84DirectionlessOdometerNotAttachedTest_isAttached_WhenNotAttached_WillReturnFalse_TestEC2Ev
FN:490,_ZN7testing8internal15TestFactoryImplI92SR04BadMaxDistanceTest_getDistance_WhenBadMaxDistanceSupplied_WillUseDefaultMaxDistance_TestED2Ev
FN:490,_ZN7testing8internal15TestFactoryImplI78DistanceCarTest_getDistance_WhenOneOdometerAttached_WillReturnItsDistance_TestEC2Ev
FN:490,_ZN7testing8internal15TestFactoryImplI67GY50AttachedTest_getOffset_WhenInvalidArgument_WillReturnError_TestEC2Ev
FN:490,_ZN7testing8internal15TestFactoryImplI62GP2Y0A21Test_getDistance_WhenReadingTooLow_WillReturnZero_TestEC2Ev
FN:490,_ZN7testing8internal15TestFactoryImplI104DirectionlessOdometerAttachedTest_update_WhenFirstPulseArrivesFast_WillCalculateDistanceButNotSpeed_TestED2Ev
FN:490,_ZN7testing8internal15TestFactoryImplI79SRF08Test_getMedianDistance_WhenCalled_WillMakeCorrectNumberOfMeasurements_TestED0Ev
FN:490,_ZN7testing8internal15TestFactoryImplI79GY50ZeroIntervalTest_update_WhenCalledWithZeroInterval_WillNotDivideByZero_TestED2Ev
FN:490,_ZN7testing8internal15TestFactoryImplI82AckerManControlTest_setSpeed_WhenTooLowSpeed_WillSetMinSpeedToThrottlingMotor_TestED0Ev
FN:490,_ZN7testing8internal15TestFactoryImplI112DistanceCarCruiseControlTest_update_WhenGroundSpeedAboveTargetAndOdometersAreDirectionless_WillSetIdleSpeed_TestEC2Ev
FN:490,_ZN7testing8internal15TestFactoryImplI80InfraredAnalogSensorTest_getMedianDistance_WhenNoIterations_WillReturnError_TestEC2Ev
FN:490,_ZN7testing8internal15TestFactoryImplI82DifferentialControlBasicTest_setSpeed_WhenTooLowSpeed_WillSetMinSpeedToMotors_TestEC2Ev
FN:490,_ZN7testing8internal15TestFactoryImplI95DirectionalOdometerAttachedTest_update_WhenPinStateForward_WillNotRegisterNegativeDistance_TestED2Ev
FN:490,_ZN7testing8internal15TestFactoryImplI85DifferentialControlSpeedTest_setAngle_WhenValidAngle_WillSetCorrectSpeedToMotors_TestED2Ev
FN:490,_ZN7testing8internal15TestFactoryImplI83DirectionalOdometerAttachedTest_reset_WhenCalled_WillSetSpeedAndDistanceToZero_TestED0Ev
FN:490,_ZN7testing8internal15TestFactoryImplI75GP2D120Test_getDistance_WhenReadingWithinRange_WillReturnCorrectResult_TestED2Ev
FN:490,_ZN7testing8internal15TestFactoryImplI67AbsoluteTest_getAbsolute_WhenNegativeNumber_WillReturnPositive_TestED2Ev
FN:490,_ZN7testing8internal15TestFactoryImplI84ServoMotorTest_setSpeed_WhenHigherThanMaximumSpeed_WillWriteMaximumMicroseconds_TestED2Ev
FN:490,_ZN7testing8internal15TestFactoryImplI74GY50AttachedTest_getHeading_WhenI2CNotAvailable_WillReturnZeroDegrees_TestEC2Ev
FN:490,_ZN7testing8internal15TestFactoryImplI81SmartCarOneOdometerTest_constructor_WhenOneOdometerSupplied_WillTreatItAsTwo_TestED2Ev
FN:490,_ZN7testing8internal15TestFactoryImplI72BrushedMotorTest_setSpeed_WhenSpeedWithinRange_WillSetSuppliedSpeed_TestED2Ev
FN:490,_ZN7testing8internal15TestFactoryImplI60SimpleCarTest_setSpeed_WhenTooHighSpeed_WillSetMaxSpeed_TestED0Ev
FN:490,_ZN7testing8internal15TestFactoryImplI81DirectionlessOdometerAttachedTest_getSpeed_WhenCalled_WillReturnCorrectSpeed_TestED0Ev
FN:490,_ZN7testing8internal15TestFactoryImplI80DistanceCarTest_overrideMotorSpeed_WhenCruiseControlEnabled_WillNotSetSpeed_TestED0Ev
FN:490,_ZN7testing8internal15TestFactoryImplI66SRF08Test_getLightReading_WhenBusNotAvailable_WillReturnError_TestED0Ev
FN:490,_ZN7testing8internal15TestFactoryImplI87DifferentialControlBasicTest_setAngle_WhenSpeedNotSet_WillNotTakeEffectImmediately_TestEC2Ev
FN:490,_ZN7testing8internal15TestFactoryImplI85AckerManControlTest_setAngle_WhenAngleInRange_WillSetCorrectSpeedToSteeringMotor_TestEC2Ev
FN:490,_ZN7testing8internal15TestFactoryImplI71MedianTest_getMedian_WhenCalledWithAscendingArray_WillReturnMedian_TestED2Ev
FN:490,_ZN7testing8internal15TestFactoryImplI56GY50BasicTest_update_WhenNotTimeToRun_WillDoNothing_TestEC2Ev
FN:490,_ZN7testing8internal15TestFactoryImplI80DistanceCarTest_getDistance_WhenOdometersAttached_WillReturnAverageDistance_TestED0Ev
FN:490,_ZN7testing8internal15TestFactoryImplI84DirectionlessOdometerNotAttachedTest_isAttached_WhenNotAttached_WillReturnFalse_TestED0Ev
FN:490,_ZN7testing8internal15TestFactoryImplI90GY50AttachedTest_getHeading_WhenAngularVelocityReadOverTime_WillReturnCorrectDistance_TestED2Ev
FN:490,_ZN7testing8internal15TestFactoryImplI74SRF08Test_getLightReading_WhenI2cNotInitialized_WillInitializeBusOnce_TestED2Ev
FN:490,_ZN7testing8internal15TestFactoryImplI78SR04Test_getMedianDistance_WhenCalled_WillMakeCorrectNumberOfMeasurements_TestED0Ev
FN:490,_ZN7testing8internal15TestFactoryImplI87DifferentialControlSpeedTest_setAngle_WhenTooHighAngle_WillSetSpeedOnlyToLeftMotor_TestED2Ev
FN:490,_ZN7testing8internal15TestFactoryImplI61HeadingCarTest_update_WhenCalled_WillUpdateHeadingSensor_TestED2Ev
FN:490,_ZN7testing8internal15TestFactoryImplI73SimpleCarTest_overrideMotorSpeed_WhenOutOfBounds_WillSetCorrectSpeed_TestED2Ev
FN:490,_ZN7testing8internal15TestFactoryImplI47SRF08Test_setRange_WhenCalled_WillSetRange_TestED2Ev
FN:490,_ZN7testing8internal15TestFactoryImplI83ServoMotorTest_setSpeed_WhenLowerThanMinimumSpeed_WillWriteMinimumMicroseconds_TestED2Ev
FN:490,_ZN7testing8internal15TestFactoryImplI67AbsoluteTest_getAbsolute_WhenNegativeNumber_WillReturnPositive_TestED0Ev
FN:490,_ZN7testing8internal15TestFactoryImplI86DirectionalOdometerBasicTest_getDirection_WhenPinStateBackward_WillReturnBackward_TestED0Ev
FN:490,_ZN7testing8internal15TestFactoryImplI68SimpleCarTest_overrideMotorSpeed_WhenCalled_WillSetCorrectSpeed_TestED2Ev
FN:490,_ZN7testing8internal15TestFactoryImplI84DirectionlessOdometerNotAttachedTest_isAttached_WhenNotAttached_WillReturnFalse_TestED2Ev
FN:490,_ZN7testing8internal15TestFactoryImplI73DistanceCarTest_getDistance_WhenOdometersNotAttached_WillReturnError_TestEC2Ev
FN:490,_ZN7testing8internal15TestFactoryImplI73BrushedMotorTest_setSpeed_WhenSpeedOverBounds_WillSetMaxSpeedForward_TestEC2Ev
FN:490,_ZN7testing8internal15TestFactoryImplI104DirectionlessOdometerAttachedTest_update_WhenFirstPulseArrivesFast_WillCalculateDistanceButNotSpeed_TestEC2Ev
FN:490,_ZN7testing8internal15TestFactoryImplI64SR04Test_getMedianDistance_WhenNoIterations_WillReturnError_TestEC2Ev
FN:490,_ZN7testing8internal15TestFactoryImplI63GP2Y0A02Test_getDistance_WhenReadingTooHigh_WillReturnZero_TestED0Ev
FN:490,_ZN7testing8internal15TestFactoryImplI80DistanceCarTest_overrideMotorSpeed_WhenCruiseControlNotEnabled_WillSetSpeed_TestEC2Ev
FN:490,_ZN7testing8internal15TestFactoryImplI61SmartCarTest_update_WhenCalled_WillUpdateHeadingAndSpeed_TestEC2Ev
FN:490,_ZN7testing8internal15TestFactoryImplI82AckerManControlTest_setSpeed_WhenTooLowSpeed_WillSetMinSpeedToThrottlingMotor_TestED2Ev
FN:490,_ZN7testing8internal15TestFactoryImplI100DistanceCarCruiseControlTest_update_WhenBackwardSpeedBelowTarget_WillIncreaseMotorSpeedBackward_TestED2Ev
FN:490,_ZN7testing8internal15TestFactoryImplI81SmartCarOneOdometerTest_constructor_WhenOneOdometerSupplied_WillTreatItAsTwo_TestED0Ev
FN:490,_ZN7testing8internal15TestFactoryImplI102DistanceCarOdometersAttachedTest_setSpeed_WhenCruiseControlAndNoBrake_WillSetSpeedInPidController_TestEC2Ev
FN:490,_ZN7testing8internal15TestFactoryImplI76GP2Y0A21Test_getDistance_WhenReadingWithinRange_WillReturnCorrectResult_TestED2Ev
FN:490,_ZN7testing8internal15TestFactoryImplI88SR04Test_getDistance_WhenCalculatedDistanceEqualToMaxDistance_WillReturnMaxDistance_TestED0Ev
FN:490,_ZN7testing8internal15TestFactoryImplI72MedianTest_getMedian_WhenCalledWithDescendingArray_WillReturnMedian_TestEC2Ev
FN:490,_ZN7testing8internal15TestFactoryImplI62SRF08Test_getDistance_WhenBusNotAvailable_WillReturnError_TestED0Ev
FN:490,_ZN7testing8internal15TestFactoryImplI79GY50ZeroIntervalTest_update_WhenCalledWithZeroInterval_WillNotDivideByZero_TestEC2Ev
FN:490,_ZN7testing8internal15TestFactoryImplI71DirectionalOdometerBasicTest_attach_WhenCalled_WillSetDirectionPin_TestED2Ev
FN:490,_ZN7testing8internal15TestFactoryImplI57SR04Test_getDistance_WhenCalled_WillMeasureCorrectly_TestED0Ev
FN:490,_ZN7testing8internal15TestFactoryImplI65GY50BasicTest_getOffset_WhenCalled_WillSetupSensorViaI2COnce_TestED0Ev
FN:490,_ZN7testing8internal15TestFactoryImplI61GP2D120Test_getDistance_WhenReadingTooLow_WillReturnZero_TestEC2Ev
FN:490,_ZN7testing8internal15TestFactoryImplI83AckerManControlTest_setSpeed_WhenTooHighSpeed_WillSetMaxSpeedToThrottlingMotor_TestEC2Ev
FN:490,_ZN7testing8internal15TestFactoryImplI53SRF08Test_setGain_WhenCalled_WillSetGainRegister_TestED0Ev
FN:490,_ZN7testing8internal15TestFactoryImplI72BrushedMotorTest_setSpeed_WhenPositiveSpeed_WillSetDirectionForward_TestEC2Ev
FN:490,_ZN7testing8internal15TestFactoryImplI62SimpleCarTest_setAngle_WhenValidAngle_WillSetCorrectAngle_TestED0Ev
FN:490,_ZN7testing8internal15TestFactoryImplI94DistanceCarOdometersAttachedTest_update_WhenCruiseControlNotEnabled_WillReturnImmediately_TestEC2Ev
FN:490,_ZN7testing8internal15TestFactoryImplI85DirectionlessOdometerNotAttachedTest_getDistance_WhenNotAttached_WillReturnError_TestEC2Ev
FN:490,_ZN7testing8internal15TestFactoryImplI72BrushedMotorTest_setSpeed_WhenPositiveSpeed_WillSetDirectionForward_TestED0Ev
FN:490,_ZN7testing8internal15TestFactoryImplI80InfraredAnalogSensorTest_getMedianDistance_WhenNoIterations_WillReturnError_TestED0Ev
FN:490,_ZN7testing8internal15TestFactoryImplI83GY50AttachedTest_getHeading_WhenTooLowAngularVelocityRead_WillNotUpdateHeading_TestED2Ev
FN:490,_ZN7testing8internal15TestFactoryImplI64MapTest_getMap_WhenFloatArguments_WillReturnValidFloatValue_TestEC2Ev
FN:490,_ZN7testing8internal15TestFactoryImplI62GP2D120Test_getDistance_WhenReadingTooHigh_WillReturnZero_TestED0Ev
FN:490,_ZN7testing8internal15TestFactoryImplI64AlmostEqualTest_areAlmostEqual_WhenNotEqual_WillReturnFalse_TestED2Ev
FN:490,_ZN7testing8internal15TestFactoryImplI59HeadingCarTest_getHeading_WhenCalled_WillReturnHeading_TestEC2Ev
FN:490,_ZN7testing8internal15TestFactoryImplI62GY50BasicTest_update_WhenCalled_WillSetupSensorViaI2COnce_TestED2Ev
FN:490,_ZN7testing8internal15TestFactoryImplI72BrushedMotorTest_setSpeed_WhenSpeedWithinRange_WillSetSuppliedSpeed_TestED0Ev
FN:490,_ZN7testing8internal15TestFactoryImplI61SmartCarTest_update_WhenCalled_WillUpdateHeadingAndSpeed_TestED0Ev
FN:490,_ZN7testing8internal15TestFactoryImplI92SR04BadMaxDistanceTest_getDistance_WhenBadMaxDistanceSupplied_WillUseDefaultMaxDistance_TestEC2Ev
FN:490,_ZN7testing8internal15TestFactoryImplI75DistanceCarTest_enableCruiseControl_WhenCalled_WillEnableCruiseControl_TestEC2Ev
FN:490,_ZN7testing8internal15TestFactoryImplI78DirectionlessOdometerNotAttachedTest_update_WhenNotAttached_WillDoNothing_TestEC2Ev
FN:490,_ZN7testing8internal15TestFactoryImplI70SRF08Test_getLightReading_WhenBusAvailable_WillReturnLightReading_TestED2Ev
FN:490,_ZN7testing8internal15TestFactoryImplI108DirectionlessOdometerBadPulsesPerMeter_constructor_WhenCalledWithZeroPulsesPerMeter_WillNotDivideByZero_TestEC2Ev
FN:490,_ZN7testing8internal15TestFactoryImplI80DistanceCarTest_overrideMotorSpeed_WhenCruiseControlNotEnabled_WillSetSpeed_TestED2Ev
FN:490,_ZN7testing8internal15TestFactoryImplI61SimpleCarTest_setAngle_WhenTooLargeAngle_WillSetMaxAngle_TestEC2Ev
FN:490,_ZN7testing8internal15TestFactoryImplI87AckerManControlTest_setSpeed_WhenSpeedInRange_WillSetCorrectSpeedToThrottlingMotor_TestED2Ev
FN:490,_ZN7testing8internal15TestFactoryImplI59SimpleCarTest_setSpeed_WhenTooLowSpeed_WillSetMinSpeed_TestED0Ev
FN:490,_ZN7testing8internal15TestFactoryImplI70SRF08Test_getLightReading_WhenBusAvailable_WillReturnLightReading_TestED0Ev
FN:490,_ZN7testing8internal15TestFactoryImplI61BrushedMotorTest_setSpeed_WhenSpeedIdle_WillSetZeroSpeed_TestEC2Ev
FN:490,_ZN7testing8internal15TestFactoryImplI57BrushedMotorTest_setSpeed_WhenNotAttached_WillAttach_TestED0Ev
FN:490,_ZN7testing8internal15TestFactoryImplI74DirectionalOdometerBasicTest_getSpeed_WhenNotAttached_WillReturnError_TestED0Ev
FN:490,_ZN7testing8internal15TestFactoryImplI74DistanceCarTest_update_WhenOdometersNotAttached_WillReturnImmediately_TestEC2Ev
FN:490,_ZN7testing8internal15TestFactoryImplI90GY50AttachedTest_getHeading_WhenAngularVelocityReadOverTime_WillReturnCorrectDistance_TestEC2Ev
FN:490,_ZN7testing8internal15TestFactoryImplI62GP2Y0A21Test_getDistance_WhenReadingTooLow_WillReturnZero_TestED2Ev
FN:490,_ZN7testing8internal15TestFactoryImplI75ServoMotorTest_setSpeed_WhenNegativeSpeed_WillWriteCorrectMicroseconds_TestED2Ev
FN:490,_ZN7testing8internal15TestFactoryImplI100DirectionlessOdometerAttachedTest_update_WhenFirstPulseArrives_WillCalculateDistanceButNotSpeed_TestEC2Ev
FN:490,_ZN7testing8internal15TestFactoryImplI138DistanceCarOdometersAttachedTest_setSpeed_WhenOdometersAreDirectionalAndCruiseControlIsEnabled_WillNotBrakeWhenChangingSpeedDirection_TestED2Ev
FN:490,_ZN7testing8internal15TestFactoryImplI79AlmostEqualTest_areAlmostEqual_WhenSignedSameAndAlmostEqual_WillReturnTrue_TestED2Ev
FN:490,_ZN7testing8internal15TestFactoryImplI64AlmostEqualTest_areAlmostEqual_WhenNotEqual_WillReturnFalse_TestEC2Ev
FN:490,_ZN7testing8internal15TestFactoryImplI119DistanceCarCruiseControlTest_update_WhenGroundSpeedAboveTargetAndOdometersAreDirectional_WillDecreaseSpeedToMotors_TestED2Ev
FN:490,_ZN7testing8internal15TestFactoryImplI89DistanceCarOdometersAttachedTest_setSpeed_WhenNoCruiseControlAndNoBrake_WillSetSpeed_TestEC2Ev
FN:490,_ZN7testing8internal15TestFactoryImplI84DirectionalOdometerBasicTest_getDirection_WhenPinStateForward_WillReturnForward_TestED0Ev
FN:490,_ZN7testing8internal15TestFactoryImplI64AlmostEqualTest_areAlmostEqual_WhenNotEqual_WillReturnFalse_TestED0Ev
FN:490,_ZN7testing8internal15TestFactoryImplI79AckerManControlTest_overrideMotorSpeed_WhenValidSpeed_WillSetSpeedToMotors_TestED2Ev
FN:490,_ZN7testing8internal15TestFactoryImplI71DistanceCarTest_getSpeed_WhenOdometersNotAttaached_WillReturnError_TestEC2Ev
FN:490,_ZN7testing8internal15TestFactoryImplI86AlmostEqualTest_areAlmostEqual_WhenSignedDifferentlyButAlmostEqual_WillReturnTrue_TestED2Ev
FN:490,_ZN7testing8internal15TestFactoryImplI82DifferentialControlBasicTest_setSpeed_WhenTooLowSpeed_WillSetMinSpeedToMotors_TestED2Ev
FN:490,_ZN7testing8internal15TestFactoryImplI100DifferentialControlBasicTest_overrideMotorSpeed_WhenSpeedOutOfRange_WillSetCorrectSpeedToMotors_TestEC2Ev
FN:490,_ZN7testing8internal15TestFactoryImplI81DirectionlessOdometerAttachedTest_getSpeed_WhenCalled_WillReturnCorrectSpeed_TestED2Ev
FN:490,_ZN7testing8internal15TestFactoryImplI87DirectionlessOdometerAttachedTest_getDistance_WhenCalled_WillReturnCorrectDistance_TestED2Ev
FN:490,_ZN7testing8internal15TestFactoryImplI93DistanceCarCruiseControlTest_update_WhenGroundSpeedBelowTarget_WillIncreaseSpeedToMotors_TestED2Ev
FN:490,_ZN7testing8internal15TestFactoryImplI85DirectionalOdometerAttachedTest_getDistance_WhenCalled_WillReturnCorrectDistance_TestEC2Ev
FN:490,_ZN7testing8internal15TestFactoryImplI81AckerManControlTest_setSpeed_WhenIdleSpeed_WillSetIdleSpeedToThrottlingMotor_TestED0Ev
FN:490,_ZN7testing8internal15TestFactoryImplI76GP2Y0A21Test_getDistance_WhenReadingWithinRange_WillReturnCorrectResult_TestED0Ev
FN:490,_ZN7testing8internal15TestFactoryImplI67SRF08Test_setRange_WhenI2cNotInitialized_WillInitializeBusOnce_TestED2Ev
FN:490,_ZN7testing8internal15TestFactoryImplI76GP2Y0A02Test_getDistance_WhenReadingWithinRange_WillReturnCorrectResult_TestEC2Ev
FN:490,_ZN7testing8internal15TestFactoryImplI57BrushedMotorTest_setSpeed_WhenNotAttached_WillAttach_TestED2Ev
FN:490,_ZN7testing8internal15TestFactoryImplI71DistanceCarTest_getSpeed_WhenOdometersNotAttaached_WillReturnError_TestED0Ev
FN:490,_ZN7testing8internal15TestFactoryImplI91DistanceCarOdometersAttachedTest_getSpeed_WhenOdometersAttached_WillReturnAverageSpeed_TestEC2Ev
FN:490,_ZN7testing8internal15TestFactoryImplI78DistanceCarTest_getDistance_WhenOneOdometerAttached_WillReturnItsDistance_TestED0Ev
FN:490,_ZN7testing8internal15TestFactoryImplI77DistanceCarTest_disableCruiseControl_WhenCalled_WillDisableCruiseControl_TestEC2Ev
FN:490,_ZN7testing8internal15TestFactoryImplI75BrushedMotorTest_setSpeed_WhenSpeedUnderBounds_WillSetMaxSpeedBackward_TestED0Ev
FN:490,_ZN7testing8internal15TestFactoryImplI77DirectionalOdometerBasicTest_getDistance_WhenNotAttached_WillReturnError_TestED0Ev
FN:490,_ZN7testing8internal15TestFactoryImplI72SR04Test_getDistance_WhenSensorNotAttached_WillSetPinDirectionsOnce_TestED0Ev
FN:490,_ZN7testing8internal15TestFactoryImplI92DistanceCarOdometersAttachedTest_setSpeed_WhenDirectionChangesInCruiseControl_WillBrake_TestED2Ev
FN:490,_ZN7testing8internal15TestFactoryImplI82GY50AttachedTest_getHeading_WhenAngularVelocityRead_WillReturnCorrectDistance_TestED0Ev
FN:490,_ZN7testing8internal15TestFactoryImplI77DirectionalOdometerBasicTest_getDistance_WhenNotAttached_WillReturnError_TestEC2Ev
FN:490,_ZN7testing8internal15TestFactoryImplI73BrushedMotorTest_setSpeed_WhenNegativeSpeed_WillSetDirectionBackward_TestEC2Ev
FN:490,_ZN7testing8internal15TestFactoryImplI92DistanceCarOdometersAttachedTest_setSpeed_WhenDirectionChangesInCruiseControl_WillBrake_TestED0Ev
FN:490,_ZN7testing8internal15TestFactoryImplI63GP2Y0A02Test_getDistance_WhenReadingTooHigh_WillReturnZero_TestEC2Ev
FN:490,_ZN7testing8internal15TestFactoryImplI85DirectionlessOdometerAttachedTest_reset_WhenCalled_WillSetSpeedAndDistanceToZero_TestED2Ev
FN:490,_ZN7testing8internal15TestFactoryImplI62SimpleCarTest_setSpeed_WhenValidSpeed_WillSetCorrectSpeed_TestED0Ev
FN:490,_ZN7testing8internal15TestFactoryImplI72BrushedMotorTest_setSpeed_WhenSpeedWithinRange_WillSetSuppliedSpeed_TestEC2Ev
FN:490,_ZN7testing8internal15TestFactoryImplI71DirectionalOdometerBasicTest_attach_WhenCalled_WillSetDirectionPin_TestED0Ev
FN:490,_ZN7testing8internal15TestFactoryImplI61GP2D120Test_getDistance_WhenReadingTooLow_WillReturnZero_TestED2Ev
FN:490,_ZN7testing8internal15TestFactoryImplI65MapTest_getMap_WhenValidArguments_WillReturnValidMappedValue_TestEC2Ev
FN:490,_ZN7testing8internal15TestFactoryImplI61BrushedMotorTest_setSpeed_WhenSpeedIdle_WillSetZeroSpeed_TestED2Ev
FN:490,_ZN7testing8internal15TestFactoryImplI80AckerManControlTest_setAngle_WhenTooLowAngle_WillSetMinSpeedToSteeringMotor_TestEC2Ev
FN:490,_ZN7testing8internal15TestFactoryImplI83SR04Test_getDistance_WhenCalculatedDistanceMoreThanMaxDistance_WillReturnError_TestED0Ev
FN:490,_ZN7testing8internal15TestFactoryImplI112DistanceCarCruiseControlTest_update_WhenGroundSpeedAboveTargetAndOdometersAreDirectionless_WillSetIdleSpeed_TestED2Ev
FN:490,_ZN7testing8internal15TestFactoryImplI78SR04Test_getMedianDistance_WhenCalled_WillMakeCorrectNumberOfMeasurements_TestED2Ev
FN:490,_ZN7testing8internal15TestFactoryImplI62GP2Y0A02Test_getDistance_WhenReadingTooLow_WillReturnZero_TestED0Ev
FN:490,_ZN7testing8internal15TestFactoryImplI95DirectionalOdometerAttachedTest_update_WhenPinStateForward_WillNotRegisterNegativeDistance_TestED0Ev
FN:490,_ZN7testing8internal15TestFactoryImplI75BrushedMotorTest_setSpeed_WhenSpeedUnderBounds_WillSetMaxSpeedBackward_TestED2Ev
FN:490,_ZN7testing8internal15TestFactoryImplI71DirectionalOdometerBasicTest_attach_WhenCalled_WillSetDirectionPin_TestEC2Ev
FN:490,_ZN7testing8internal15TestFactoryImplI108DirectionlessOdometerBadPulsesPerMeter_constructor_WhenCalledWithZeroPulsesPerMeter_WillNotDivideByZero_TestED2Ev
FN:490,_ZN7testing8internal15TestFactoryImplI66SRF08Test_setGain_WhenI2cNotInitialized_WillInitializeBusOnce_TestED0Ev
FN:490,_ZN7testing8internal15TestFactoryImplI78SR04Test_getMedianDistance_WhenCalled_WillMakeCorrectNumberOfMeasurements_TestEC2Ev
FN:490,_ZN7testing8internal15TestFactoryImplI77DirectionlessOdometerAttachedTest_isAttached_WhenAttached_WillReturnTrue_TestEC2Ev
FN:490,_ZN7testing8internal15TestFactoryImplI84DirectionalOdometerBasicTest_getDirection_WhenPinStateForward_WillReturnForward_TestEC2Ev
FN:490,_ZN7testing8internal15TestFactoryImplI83SR04Test_getDistance_WhenCalculatedDistanceMoreThanMaxDistance_WillReturnError_TestED2Ev
FN:490,_ZN7testing8internal15TestFactoryImplI73SimpleCarTest_overrideMotorSpeed_WhenOutOfBounds_WillSetCorrectSpeed_TestED0Ev
FN:490,_ZN7testing8internal15TestFactoryImplI75ServoMotorTest_setSpeed_WhenPositiveSpeed_WillWriteCorrectMicroseconds_TestED2Ev
FN:490,_ZN7testing8internal15TestFactoryImplI58SRF08Test_setPingDelay_WhenCalled_WillReturnPingDelay_TestEC2Ev
FN:490,_ZN7testing8internal15TestFactoryImplI61BrushedMotorTest_setSpeed_WhenSpeedIdle_WillSetZeroSpeed_TestED0Ev
FN:490,_ZN7testing8internal15TestFactoryImplI80DistanceCarTest_overrideMotorSpeed_WhenCruiseControlEnabled_WillNotSetSpeed_TestED2Ev
FN:490,_ZN7testing8internal15TestFactoryImplI66SRF08Test_getLightReading_WhenBusNotAvailable_WillReturnError_TestEC2Ev
FN:490,_ZN7testing8internal15TestFactoryImplI61HeadingCarTest_update_WhenCalled_WillUpdateHeadingSensor_TestED0Ev
FN:490,_ZN7testing8internal15TestFactoryImplI76GP2Y0A02Test_getDistance_WhenReadingWithinRange_WillReturnCorrectResult_TestED0Ev
FN:490,_ZN7testing8internal15TestFactoryImplI100DistanceCarCruiseControlTest_update_WhenBackwardSpeedBelowTarget_WillIncreaseMotorSpeedBackward_TestED0Ev
FN:490,_ZN7testing8internal15TestFactoryImplI80DistanceCarTest_overrideMotorSpeed_WhenCruiseControlNotEnabled_WillSetSpeed_TestED0Ev
FN:490,_ZN7testing8internal15TestFactoryImplI72ConstrainTest_getConstrain_WhenSmallerThanMinimum_WillReturnMinimum_TestED2Ev
FN:490,_ZN7testing8internal15TestFactoryImplI79AckerManControlTest_overrideMotorSpeed_WhenValidSpeed_WillSetSpeedToMotors_TestEC2Ev
FN:490,_ZN7testing8internal15TestFactoryImplI88SR04Test_getDistance_WhenCalculatedDistanceEqualToMaxDistance_WillReturnMaxDistance_TestEC2Ev
FN:490,_ZN7testing8internal15TestFactoryImplI79SRF08Test_getMedianDistance_WhenCalled_WillMakeCorrectNumberOfMeasurements_TestED2Ev
FN:490,_ZN7testing8internal15TestFactoryImplI102DistanceCarOdometersAttachedTest_setSpeed_WhenCruiseControlAndNoBrake_WillSetSpeedInPidController_TestED2Ev
FN:490,_ZN7testing8internal15TestFactoryImplI75ServoMotorTest_setSpeed_WhenPositiveSpeed_WillWriteCorrectMicroseconds_TestED0Ev
FN:490,_ZN7testing8internal15TestFactoryImplI53SRF08Test_setGain_WhenCalled_WillSetGainRegister_TestED2Ev
FN:490,_ZN7testing8internal15TestFactoryImplI79SRF08Test_getMedianDistance_WhenCalled_WillMakeCorrectNumberOfMeasurements_TestEC2Ev
FN:490,_ZN7testing8internal15TestFactoryImplI66GY50AttachedTest_update_WhenI2CNotAvailable_WillNotReadViaI2C_TestED2Ev
FN:490,_ZN7testing8internal15TestFactoryImplI138DistanceCarOdometersAttachedTest_setSpeed_WhenOdometersAreDirectionalAndCruiseControlIsEnabled_WillNotBrakeWhenChangingSpeedDirection_TestEC2Ev
FN:490,_ZN7testing8internal15TestFactoryImplI108DirectionlessOdometerBadPulsesPerMeter_constructor_WhenCalledWithZeroPulsesPerMeter_WillNotDivideByZero_TestED0Ev
FN:490,_ZN7testing8internal15TestFactoryImplI68MapTest_getMap_WhenInvalidRange_WillReturnLowerTargetRangeLimit_TestED0Ev
FN:490,_ZN7testing8internal15TestFactoryImplI102DistanceCarOdometersAttachedTest_setSpeed_WhenCruiseControlAndNoBrake_WillSetSpeedInPidController_TestED0Ev
FN:490,_ZN7testing8internal15TestFactoryImplI76GP2Y0A21Test_getDistance_WhenReadingWithinRange_WillReturnCorrectResult_TestEC2Ev
FN:490,_ZN7testing8internal15TestFactoryImplI100DirectionlessOdometerAttachedTest_update_WhenFirstPulseArrives_WillCalculateDistanceButNotSpeed_TestED2Ev
FN:490,_ZN7testing8internal15TestFactoryImplI81AckerManControlTest_setAngle_WhenTooHighAngle_WillSetMaxSpeedToSteeringMotor_TestED2Ev
FN:490,_ZN7testing8internal15TestFactoryImplI77DirectionalOdometerBasicTest_providesDirection_WhenCalled_WillReturnTrue_TestEC2Ev
FN:490,_ZN7testing8internal15TestFactoryImplI75ServoMotorTest_setSpeed_WhenNegativeSpeed_WillWriteCorrectMicroseconds_TestED0Ev
FN:490,_ZN7testing8internal15TestFactoryImplI79DirectionalOdometerAttachedTest_getSpeed_WhenCalled_WillReturnCorrectSpeed_TestEC2Ev
FN:490,_ZN7testing8internal15TestFactoryImplI80DistanceCarTest_getDistance_WhenOdometersAttached_WillReturnAverageDistance_TestED2Ev
FN:490,_ZN7testing8internal15TestFactoryImplI83ServoMotorTest_setSpeed_WhenLowerThanMinimumSpeed_WillWriteMinimumMicroseconds_TestEC2Ev
FN:490,_ZN7testing8internal15TestFactoryImplI62GP2Y0A02Test_getDistance_WhenReadingTooLow_WillReturnZero_TestEC2Ev
FN:490,_ZN7testing8internal15TestFactoryImplI91AckerManControlTest_overrideMotorSpeed_WhenSpeedOutOfRange_WillSetCorrectSpeedToMotors_TestED2Ev
FN:490,_ZN7testing8internal15TestFactoryImplI85DirectionalOdometerAttachedTest_getDistance_WhenCalled_WillReturnCorrectDistance_TestED2Ev
FN:490,_ZN7testing8internal15TestFactoryImplI82DirectionalOdometerBasicTest_attach_WhenInvalidPin_WillNotSetAnyPinDirections_TestEC2Ev
FN:490,_ZN7testing8internal15TestFactoryImplI89DirectionlessOdometerBasicTest_attach_WhenValidInterruptPin_WillSetUpPinAndInterrupt_TestED0Ev
FN:490,_ZN7testing8internal15TestFactoryImplI87DifferentialControlSpeedTest_setAngle_WhenTooHighAngle_WillSetSpeedOnlyToLeftMotor_TestEC2Ev
FN:490,_ZN7testing8internal15TestFactoryImplI80InfraredAnalogSensorTest_getMedianDistance_WhenNoIterations_WillReturnError_TestED2Ev
FN:490,_ZN7testing8internal15TestFactoryImplI67SRF08Test_setRange_WhenI2cNotInitialized_WillInitializeBusOnce_TestEC2Ev
FN:490,_ZN7testing8internal15TestFactoryImplI70MedianTest_getMedian_WhenCalledWithUnsortedArray_WillReturnMedian_TestED0Ev
FN:490,_ZN7testing8internal15TestFactoryImplI64SR04Test_getMedianDistance_WhenNoIterations_WillReturnError_TestED2Ev
FN:490,_ZN7testing8internal15TestFactoryImplI81DifferentialControlBasicTest_setSpeed_WhenIdleSpeed_WillSetIdleSpeedToMotors_TestEC2Ev
FN:490,_ZN7testing8internal15TestFactoryImplI93DistanceCarCruiseControlTest_update_WhenGroundSpeedBelowTarget_WillIncreaseSpeedToMotors_TestED0Ev
FN:490,_ZN7testing8internal15TestFactoryImplI88DifferentialControlBasicTest_overrideMotorSpeed_WhenValidSpeed_WillSetSpeedToMotors_TestED2Ev
FN:490,_ZN7testing8internal15TestFactoryImplI119DistanceCarCruiseControlTest_update_WhenGroundSpeedAboveTargetAndOdometersAreDirectional_WillDecreaseSpeedToMotors_TestEC2Ev
FN:490,_ZN7testing8internal15TestFactoryImplI77DistanceCarTest_disableCruiseControl_WhenCalled_WillDisableCruiseControl_TestED0Ev
FN:490,_ZN7testing8internal15TestFactoryImplI83DifferentialControlBasicTest_setSpeed_WhenAngleSet_WillSetCorrectSpeedToMotors_TestEC2Ev
FN:490,_ZN7testing8internal15TestFactoryImplI70DirectionalOdometerBasicTest_update_WhenNotAttached_WillDoNothing_TestED2Ev
FN:490,_ZN7testing8internal15TestFactoryImplI80DistanceCarTest_getDistance_WhenOdometersAttached_WillReturnAverageDistance_TestEC2Ev
FN:490,_ZN7testing8internal15TestFactoryImplI85DirectionlessOdometerAttachedTest_reset_WhenCalled_WillSetSpeedAndDistanceToZero_TestEC2Ev
FN:490,_ZN7testing8internal15TestFactoryImplI83ServoMotorTest_setSpeed_WhenLowerThanMinimumSpeed_WillWriteMinimumMicroseconds_TestED0Ev
FN:490,_ZN7testing8internal15TestFactoryImplI63GP2Y0A21Test_getDistance_WhenReadingTooHigh_WillReturnZero_TestED0Ev
FN:490,_ZN7testing8internal15TestFactoryImplI72ConstrainTest_getConstrain_WhenSmallerThanMinimum_WillReturnMinimum_TestED0Ev
FN:490,_ZN7testing8internal15TestFactoryImplI84ServoMotorTest_setSpeed_WhenHigherThanMaximumSpeed_WillWriteMaximumMicroseconds_TestED0Ev
FN:490,_ZN7testing8internal15TestFactoryImplI80DirectionlessOdometerBasicTest_providesDirection_WhenCalled_WillReturnFalse_TestEC2Ev
FN:490,_ZN7testing8internal15TestFactoryImplI68SimpleCarTest_overrideMotorSpeed_WhenCalled_WillSetCorrectSpeed_TestEC2Ev
FN:490,_ZN7testing8internal15TestFactoryImplI71ConstrainTest_getConstrain_WhenLargerThanMaximum_WillReturnMaximum_TestED2Ev
FN:490,_ZN7testing8internal15TestFactoryImplI65GY50BasicTest_getOffset_WhenCalled_WillSetupSensorViaI2COnce_TestEC2Ev
FN:490,_ZN7testing8internal15TestFactoryImplI86AlmostEqualTest_areAlmostEqual_WhenSignedDifferentlyButAlmostEqual_WillReturnTrue_TestED0Ev
FN:490,_ZN7testing8internal15TestFactoryImplI59SimpleCarTest_setSpeed_WhenTooLowSpeed_WillSetMinSpeed_TestEC2Ev
FN:490,_ZN7testing8internal15TestFactoryImplI78DistanceCarTest_getDistance_WhenOneOdometerAttached_WillReturnItsDistance_TestED2Ev
FN:490,_ZN7testing8internal15TestFactoryImplI74DirectionalOdometerBasicTest_getSpeed_WhenNotAttached_WillReturnError_TestEC2Ev
FN:490,_ZN7testing8internal15TestFactoryImplI81DifferentialControlSpeedTest_setAngle_WhenIdleAngle_WillSetSameSpeedToMotors_TestED0Ev
FN:490,_ZN7testing8internal15TestFactoryImplI81AckerManControlTest_setAngle_WhenTooHighAngle_WillSetMaxSpeedToSteeringMotor_TestED0Ev
FN:490,_ZN7testing8internal15TestFactoryImplI100DifferentialControlBasicTest_overrideMotorSpeed_WhenSpeedOutOfRange_WillSetCorrectSpeedToMotors_TestED2Ev
FN:490,_ZN7testing8internal15TestFactoryImplI71MedianTest_getMedian_WhenCalledWithAscendingArray_WillReturnMedian_TestEC2Ev
FN:490,_ZN7testing8internal15TestFactoryImplI67SRF08Test_setRange_WhenI2cNotInitialized_WillInitializeBusOnce_TestED0Ev
FN:490,_ZN7testing8internal15TestFactoryImplI73DirectionlessOdometerBasicTest_attach_WhenInvalidPin_WillReturnFalse_TestED2Ev
FN:490,_ZN7testing8internal15TestFactoryImplI61SmartCarTest_update_WhenCalled_WillUpdateHeadingAndSpeed_TestED2Ev
FN:490,_ZN7testing8internal15TestFactoryImplI60SimpleCarTest_setAngle_WhenTooLow_Angle_WillSetMinAngle_TestED2Ev
FN:490,_ZN7testing8internal15TestFactoryImplI62GP2D120Test_getDistance_WhenReadingTooHigh_WillReturnZero_TestED2Ev
FN:490,_ZN7testing8internal15TestFactoryImplI91GY50AttachedTest_getHeading_WhenNegativeAngularVelocity_WillReturnComplimentaryDegrees_TestEC2Ev
FN:490,_ZN7testing8internal15TestFactoryImplI83SR04Test_getDistance_WhenCalculatedDistanceMoreThanMaxDistance_WillReturnError_TestEC2Ev
FN:490,_ZN7testing8internal15TestFactoryImplI77DirectionlessOdometerAttachedTest_isAttached_WhenAttached_WillReturnTrue_TestED0Ev
FN:492,_ZN7testing8internal15TestFactoryImplI64MapTest_getMap_WhenFloatArguments_WillReturnValidFloatValue_TestE10CreateTestEv
FN:492,_ZN7testing8internal15TestFactoryImplI61BrushedMotorTest_setSpeed_WhenSpeedIdle_WillSetZeroSpeed_TestE10CreateTestEv
FN:492,_ZN7testing8internal15TestFactoryImplI71ServoMotorTest_setSpeed_WhenIdleSpeed_WillWriteCorrectMicroseconds_TestE10CreateTestEv
FN:492,_ZN7testing8internal15TestFactoryImplI75DistanceCarTest_enableCruiseControl_WhenCalled_WillEnableCruiseControl_TestE10CreateTestEv
FN:492,_ZN7testing8internal15TestFactoryImplI74DistanceCarOdometersAttachedTest_setSpeed_WhenCarShouldStop_WillBrake_TestE10CreateTestEv
FN:492,_ZN7testing8internal15TestFactoryImplI68AbsoluteTest_getAbsolute_WhenNonNegativeNumber_WillReturnNumber_TestE10CreateTestEv
FN:492,_ZN7testing8internal15TestFactoryImplI84ServoMotorTest_setSpeed_WhenHigherThanMaximumSpeed_WillWriteMaximumMicroseconds_TestE10CreateTestEv
FN:492,_ZN7testing8internal15TestFactoryImplI90GY50AttachedTest_getHeading_WhenAngularVelocityReadOverTime_WillReturnCorrectDistance_TestE10CreateTestEv
FN:492,_ZN7testing8internal15TestFactoryImplI78SR04Test_getMedianDistance_WhenCalled_WillMakeCorrectNumberOfMeasurements_TestE10CreateTestEv
FN:492,_ZN7testing8internal15TestFactoryImplI73BrushedMotorTest_setSpeed_WhenNegativeSpeed_WillSetDirectionBackward_TestE10CreateTestEv
FN:492,_ZN7testing8internal15TestFactoryImplI87DifferentialControlBasicTest_setAngle_WhenSpeedNotSet_WillNotTakeEffectImmediately_TestE10CreateTestEv
FN:492,_ZN7testing8internal15TestFactoryImplI85DirectionlessOdometerAttachedTest_reset_WhenCalled_WillSetSpeedAndDistanceToZero_TestE10CreateTestEv
FN:492,_ZN7testing8internal15TestFactoryImplI71DistanceCarTest_getSpeed_WhenOdometersNotAttaached_WillReturnError_TestE10CreateTestEv
FN:492,_ZN7testing8internal15TestFactoryImplI104DirectionlessOdometerAttachedTest_update_WhenFirstPulseArrivesFast_WillCalculateDistanceButNotSpeed_TestE10CreateTestEv
FN:492,_ZN7testing8internal15TestFactoryImplI73DistanceCarOdometersAttachedTest_update_WhenCalledTooFast_WillReturn_TestE10CreateTestEv
FN:492,_ZN7testing8internal15TestFactoryImplI77DirectionlessOdometerAttachedTest_isAttached_WhenAttached_WillReturnTrue_TestE10CreateTestEv
FN:492,_ZN7testing8internal15TestFactoryImplI61SmartCarTest_update_WhenCalled_WillUpdateHeadingAndSpeed_TestE10CreateTestEv
FN:492,_ZN7testing8internal15TestFactoryImplI82DirectionlessOdometerNotAttachedTest_getSpeed_WhenNotAttached_WillReturnError_TestE10CreateTestEv
FN:492,_ZN7testing8internal15TestFactoryImplI102DistanceCarOdometersAttachedTest_setSpeed_WhenCruiseControlAndNoBrake_WillSetSpeedInPidController_TestE10CreateTestEv
FN:492,_ZN7testing8internal15TestFactoryImplI60SimpleCarTest_setAngle_WhenTooLow_Angle_WillSetMinAngle_TestE10CreateTestEv
FN:492,_ZN7testing8internal15TestFactoryImplI81DifferentialControlBasicTest_setSpeed_WhenIdleSpeed_WillSetIdleSpeedToMotors_TestE10CreateTestEv
FN:492,_ZN7testing8internal15TestFactoryImplI80DistanceCarTest_overrideMotorSpeed_WhenCruiseControlEnabled_WillNotSetSpeed_TestE10CreateTestEv
FN:492,_ZN7testing8internal15TestFactoryImplI79DirectionalOdometerAttachedTest_getSpeed_WhenCalled_WillReturnCorrectSpeed_TestE10CreateTestEv
FN:492,_ZN7testing8internal15TestFactoryImplI75BrushedMotorTest_setSpeed_WhenSpeedUnderBounds_WillSetMaxSpeedBackward_TestE10CreateTestEv
FN:492,_ZN7testing8internal15TestFactoryImplI71MedianTest_getMedian_WhenCalledWithAscendingArray_WillReturnMedian_TestE10CreateTestEv
FN:492,_ZN7testing8internal15TestFactoryImplI89DirectionlessOdometerBasicTest_attach_WhenValidInterruptPin_WillSetUpPinAndInterrupt_TestE10CreateTestEv
FN:492,_ZN7testing8internal15TestFactoryImplI78DirectionlessOdometerNotAttachedTest_update_WhenNotAttached_WillDoNothing_TestE10CreateTestEv
FN:492,_ZN7testing8internal15TestFactoryImplI65MapTest_getMap_WhenValidArguments_WillReturnValidMappedValue_TestE10CreateTestEv
FN:492,_ZN7testing8internal15TestFactoryImplI83SR04Test_getDistance_WhenCalculatedDistanceMoreThanMaxDistance_WillReturnError_TestE10CreateTestEv
FN:492,_ZN7testing8internal15TestFactoryImplI67GY50AttachedTest_getOffset_WhenInvalidArgument_WillReturnError_TestE10CreateTestEv
FN:492,_ZN7testing8internal15TestFactoryImplI91DistanceCarOdometersAttachedTest_getSpeed_WhenOdometersAttached_WillReturnAverageSpeed_TestE10CreateTestEv
FN:492,_ZN7testing8internal15TestFactoryImplI67SRF08Test_setRange_WhenI2cNotInitialized_WillInitializeBusOnce_TestE10CreateTestEv
FN:492,_ZN7testing8internal15TestFactoryImplI59HeadingCarTest_getHeading_WhenCalled_WillReturnHeading_TestE10CreateTestEv
FN:492,_ZN7testing8internal15TestFactoryImplI72BrushedMotorTest_setSpeed_WhenPositiveSpeed_WillSetDirectionForward_TestE10CreateTestEv
FN:492,_ZN7testing8internal15TestFactoryImplI84DirectionlessOdometerNotAttachedTest_isAttached_WhenNotAttached_WillReturnFalse_TestE10CreateTestEv
FN:492,_ZN7testing8internal15TestFactoryImplI60SimpleCarTest_setSpeed_WhenTooHighSpeed_WillSetMaxSpeed_TestE10CreateTestEv
FN:492,_ZN7testing8internal15TestFactoryImplI75GP2D120Test_getDistance_WhenReadingWithinRange_WillReturnCorrectResult_TestE10CreateTestEv
FN:492,_ZN7testing8internal15TestFactoryImplI64ServoMotorTest_setSpeed_WhenCalledAndNotAttached_WillAttach_TestE10CreateTestEv
FN:492,_ZN7testing8internal15TestFactoryImplI80DistanceCarTest_getDistance_WhenOdometersAttached_WillReturnAverageDistance_TestE10CreateTestEv
FN:492,_ZN7testing8internal15TestFactoryImplI69SRF08Test_getDistance_WhenBusAvailable_WillReturnCorrectDistance_TestE10CreateTestEv
FN:492,_ZN7testing8internal15TestFactoryImplI62GY50BasicTest_update_WhenCalled_WillSetupSensorViaI2COnce_TestE10CreateTestEv
FN:492,_ZN7testing8internal15TestFactoryImplI80InfraredAnalogSensorTest_getMedianDistance_WhenNoIterations_WillReturnError_TestE10CreateTestEv
FN:492,_ZN7testing8internal15TestFactoryImplI78DistanceCarTest_getDistance_WhenOneOdometerAttached_WillReturnItsDistance_TestE10CreateTestEv
FN:492,_ZN7testing8internal15TestFactoryImplI83DirectionalOdometerAttachedTest_reset_WhenCalled_WillSetSpeedAndDistanceToZero_TestE10CreateTestEv
FN:492,_ZN7testing8internal15TestFactoryImplI86AlmostEqualTest_areAlmostEqual_WhenSignedDifferentlyButAlmostEqual_WillReturnTrue_TestE10CreateTestEv
FN:492,_ZN7testing8internal15TestFactoryImplI95DirectionalOdometerAttachedTest_update_WhenPinStateForward_WillNotRegisterNegativeDistance_TestE10CreateTestEv
FN:492,_ZN7testing8internal15TestFactoryImplI70MedianTest_getMedian_WhenCalledWithUnsortedArray_WillReturnMedian_TestE10CreateTestEv
FN:492,_ZN7testing8internal15TestFactoryImplI53SRF08Test_setGain_WhenCalled_WillSetGainRegister_TestE10CreateTestEv
FN:492,_ZN7testing8internal15TestFactoryImplI87DifferentialControlSpeedTest_setAngle_WhenTooLowAngle_WillSetSpeedOnlyToRightMotor_TestE10CreateTestEv
FN:492,_ZN7testing8internal15TestFactoryImplI77DirectionalOdometerBasicTest_providesDirection_WhenCalled_WillReturnTrue_TestE10CreateTestEv
FN:492,_ZN7testing8internal15TestFactoryImplI62GP2D120Test_getDistance_WhenReadingTooHigh_WillReturnZero_TestE10CreateTestEv
FN:492,_ZN7testing8internal15TestFactoryImplI93DistanceCarCruiseControlTest_update_WhenGroundSpeedBelowTarget_WillIncreaseSpeedToMotors_TestE10CreateTestEv
FN:492,_ZN7testing8internal15TestFactoryImplI66SRF08Test_getLightReading_WhenBusNotAvailable_WillReturnError_TestE10CreateTestEv
FN:492,_ZN7testing8internal15TestFactoryImplI83GY50AttachedTest_getHeading_WhenTooLowAngularVelocityRead_WillNotUpdateHeading_TestE10CreateTestEv
FN:492,_ZN7testing8internal15TestFactoryImplI73DirectionlessOdometerBasicTest_attach_WhenInvalidPin_WillReturnFalse_TestE10CreateTestEv
FN:492,_ZN7testing8internal15TestFactoryImplI77DistanceCarTest_disableCruiseControl_WhenCalled_WillDisableCruiseControl_TestE10CreateTestEv
FN:492,_ZN7testing8internal15TestFactoryImplI87DistanceCarSingleOdometerTest_constructor_WhenOneOdometerSupplied_WillTreatItAsTwo_TestE10CreateTestEv
FN:492,_ZN7testing8internal15TestFactoryImplI61HeadingCarTest_update_WhenCalled_WillUpdateHeadingSensor_TestE10CreateTestEv
FN:492,_ZN7testing8internal15TestFactoryImplI66SRF08Test_setGain_WhenI2cNotInitialized_WillInitializeBusOnce_TestE10CreateTestEv
FN:492,_ZN7testing8internal15TestFactoryImplI76GP2Y0A02Test_getDistance_WhenReadingWithinRange_WillReturnCorrectResult_TestE10CreateTestEv
FN:492,_ZN7testing8internal15TestFactoryImplI112DistanceCarCruiseControlTest_update_WhenGroundSpeedAboveTargetAndOdometersAreDirectionless_WillSetIdleSpeed_TestE10CreateTestEv
FN:492,_ZN7testing8internal15TestFactoryImplI74SRF08Test_getLightReading_WhenI2cNotInitialized_WillInitializeBusOnce_TestE10CreateTestEv
FN:492,_ZN7testing8internal15TestFactoryImplI78GY50BasicTest_getOffset_WhenCalled_WillReturnCorrectAverageOfMeasurements_TestE10CreateTestEv
